opt subtitle "HI-TECH Software Omniscient Code Generator (Lite mode) build 9453"

opt pagewidth 120

	opt lm

	processor	16F877A
clrc	macro
	bcf	3,0
	endm
clrz	macro
	bcf	3,2
	endm
setc	macro
	bsf	3,0
	endm
setz	macro
	bsf	3,2
	endm
skipc	macro
	btfss	3,0
	endm
skipz	macro
	btfss	3,2
	endm
skipnc	macro
	btfsc	3,0
	endm
skipnz	macro
	btfsc	3,2
	endm
indf	equ	0
indf0	equ	0
pc	equ	2
pcl	equ	2
status	equ	3
fsr	equ	4
fsr0	equ	4
c	equ	1
z	equ	0
pclath	equ	10
	FNROOT	_main
	global	_SSPBUF
psect	maintext,global,class=CODE,delta=2
global __pmaintext
__pmaintext:
_SSPBUF	set	19
	global	_SSPCON
_SSPCON	set	20
	global	_CARRY
_CARRY	set	24
	global	_GIE
_GIE	set	95
	global	_SSPEN
_SSPEN	set	165
	global	_SSPIF
_SSPIF	set	99
	global	_SSPADD
_SSPADD	set	147
	global	_SSPCON2
_SSPCON2	set	145
	global	_SSPSTAT
_SSPSTAT	set	148
	global	_TRISC
_TRISC	set	135
	global	_PEN
_PEN	set	1162
	global	_SEN
_SEN	set	1160
	global	_EEADR
_EEADR	set	269
	global	_EEDATA
_EEDATA	set	268
	global	_EECON1
_EECON1	set	396
	global	_EECON2
_EECON2	set	397
	global	_RD
_RD	set	3168
	global	_WR
_WR	set	3169
	global	_WREN
_WREN	set	3170
	file	"202121365038.as"
	line	#
psect cinit,class=CODE,delta=2
global start_initialization
start_initialization:

psect cinit,class=CODE,delta=2
global end_of_initialization

;End of C runtime variable initialization code

end_of_initialization:
clrf status
ljmp _main	;jump to C main() function
psect	cstackCOMMON,class=COMMON,space=1
global __pcstackCOMMON
__pcstackCOMMON:
	global	??_main
??_main:	; 0 bytes @ 0x0
	global	?_main
?_main:	; 2 bytes @ 0x0
;;Data sizes: Strings 0, constant 0, data 0, bss 0, persistent 0 stack 0
;;Auto spaces:   Size  Autos    Used
;; COMMON          14      0       0
;; BANK0           80      0       0
;; BANK1           80      0       0
;; BANK3           96      0       0
;; BANK2           96      0       0

;;
;; Pointer list with targets:



;;
;; Critical Paths under _main in COMMON
;;
;;   None.
;;
;; Critical Paths under _main in BANK0
;;
;;   None.
;;
;; Critical Paths under _main in BANK1
;;
;;   None.
;;
;; Critical Paths under _main in BANK3
;;
;;   None.
;;
;; Critical Paths under _main in BANK2
;;
;;   None.

;;
;;Main: autosize = 0, tempsize = 0, incstack = 0, save=0
;;

;;
;;Call Graph Tables:
;;
;; ---------------------------------------------------------------------------------
;; (Depth) Function   	        Calls       Base Space   Used Autos Params    Refs
;; ---------------------------------------------------------------------------------
;; (0) _main                                                 0     0      0       0
;; ---------------------------------------------------------------------------------
;; Estimated maximum stack depth 0
;; ---------------------------------------------------------------------------------

;; Call Graph Graphs:

;; _main (ROOT)
;;

;; Address spaces:

;;Name               Size   Autos  Total    Cost      Usage
;;BITCOMMON            E      0       0       0        0.0%
;;EEDATA             100      0       0       0        0.0%
;;NULL                 0      0       0       0        0.0%
;;CODE                 0      0       0       0        0.0%
;;COMMON               E      0       0       1        0.0%
;;BITSFR0              0      0       0       1        0.0%
;;SFR0                 0      0       0       1        0.0%
;;BITSFR1              0      0       0       2        0.0%
;;SFR1                 0      0       0       2        0.0%
;;STACK                0      0       0       2        0.0%
;;ABS                  0      0       0       3        0.0%
;;BITBANK0            50      0       0       4        0.0%
;;BITSFR3              0      0       0       4        0.0%
;;SFR3                 0      0       0       4        0.0%
;;BANK0               50      0       0       5        0.0%
;;BITSFR2              0      0       0       5        0.0%
;;SFR2                 0      0       0       5        0.0%
;;BITBANK1            50      0       0       6        0.0%
;;BANK1               50      0       0       7        0.0%
;;BITBANK3            60      0       0       8        0.0%
;;BANK3               60      0       0       9        0.0%
;;BITBANK2            60      0       0      10        0.0%
;;BANK2               60      0       0      11        0.0%
;;DATA                 0      0       0      12        0.0%

	global	_main
psect	maintext

;; *************** function _main *****************
;; Defined at:
;;		line 4 in file "D:\6_pic_project\00_Design_Flow_Car\User\Car_1_measure\main.c"
;; Parameters:    Size  Location     Type
;;		None
;; Auto vars:     Size  Location     Type
;;		None
;; Return value:  Size  Location     Type
;;                  2  684[COMMON] int 
;; Registers used:
;;		wreg, status,2
;; Tracked objects:
;;		On entry : 17F/0
;;		On exit  : 0/0
;;		Unchanged: 0/0
;; Data sizes:     COMMON   BANK0   BANK1   BANK3   BANK2
;;      Params:         0       0       0       0       0
;;      Locals:         0       0       0       0       0
;;      Temps:          0       0       0       0       0
;;      Totals:         0       0       0       0       0
;;Total ram usage:        0 bytes
;; This function calls:
;;		Nothing
;; This function is called by:
;;		Startup code after reset
;; This function uses a non-reentrant model
;;
psect	maintext
	file	"D:\6_pic_project\00_Design_Flow_Car\User\Car_1_measure\main.c"
	line	4
	global	__size_of_main
	__size_of_main	equ	__end_of_main-_main
	
_main:	
	opt	stack 8
; Regs used in _main: [wreg+status,2]
	line	5
	
l1745:	
;main.c: 5: TRISC=0X18;
	movlw	(018h)
	bsf	status, 5	;RP0=1, select bank1
	bcf	status, 6	;RP1=0, select bank1
	movwf	(135)^080h	;volatile
	line	6
;main.c: 6: SSPCON=8;
	movlw	(08h)
	bcf	status, 5	;RP0=0, select bank0
	bcf	status, 6	;RP1=0, select bank0
	movwf	(20)	;volatile
	line	7
;main.c: 7: SSPSTAT=0X80;SSPCON2=0;
	movlw	(080h)
	bsf	status, 5	;RP0=1, select bank1
	bcf	status, 6	;RP1=0, select bank1
	movwf	(148)^080h	;volatile
	
l1747:	
	clrf	(145)^080h	;volatile
	line	8
	
l1749:	
;main.c: 8: SSPADD=0X28;
	movlw	(028h)
	movwf	(147)^080h	;volatile
	line	9
	
l1751:	
;main.c: 9: SSPIF=0;
	bcf	status, 5	;RP0=0, select bank0
	bcf	status, 6	;RP1=0, select bank0
	bcf	(99/8),(99)&7
	line	10
	
l1753:	
;main.c: 10: SSPEN=1;
	bsf	(165/8),(165)&7
	goto	l1755
	line	11
;main.c: 11: loop:
	
l685:	
	line	12
	
l1755:	
;main.c: 12: SEN=1;
	bsf	status, 5	;RP0=1, select bank1
	bcf	status, 6	;RP1=0, select bank1
	bsf	(1160/8)^080h,(1160)&7
	line	13
;main.c: 13: while(!SSPIF);SSPIF=0;
	goto	l686
	
l687:	
	
l686:	
	bcf	status, 5	;RP0=0, select bank0
	btfss	(99/8),(99)&7
	goto	u11
	goto	u10
u11:
	goto	l686
u10:
	
l688:	
	bcf	(99/8),(99)&7
	line	14
	
l1757:	
;main.c: 14: SSPBUF=0X92;
	movlw	(092h)
	movwf	(19)	;volatile
	line	15
;main.c: 15: while(!SSPIF);SSPIF=0;
	goto	l689
	
l690:	
	
l689:	
	btfss	(99/8),(99)&7
	goto	u21
	goto	u20
u21:
	goto	l689
u20:
	
l691:	
	bcf	(99/8),(99)&7
	line	16
	
l1759:	
;main.c: 16: SSPBUF=0X45;
	movlw	(045h)
	movwf	(19)	;volatile
	line	17
;main.c: 17: while(!SSPIF);SSPIF=0;
	goto	l692
	
l693:	
	
l692:	
	btfss	(99/8),(99)&7
	goto	u31
	goto	u30
u31:
	goto	l692
u30:
	
l694:	
	bcf	(99/8),(99)&7
	line	18
;main.c: 18: PEN=1;
	bsf	status, 5	;RP0=1, select bank1
	bcf	status, 6	;RP1=0, select bank1
	bsf	(1162/8)^080h,(1162)&7
	line	19
;main.c: 19: while(!SSPIF);SSPIF=0;
	goto	l695
	
l696:	
	
l695:	
	bcf	status, 5	;RP0=0, select bank0
	btfss	(99/8),(99)&7
	goto	u41
	goto	u40
u41:
	goto	l695
u40:
	
l697:	
	bcf	(99/8),(99)&7
	line	20
;main.c: 20: goto loop;
	goto	l1755
	line	21
	
l698:	
	global	start
	ljmp	start
	opt stack 0
GLOBAL	__end_of_main
	__end_of_main:
;; =============== function _main ends ============

	signat	_main,90
psect	maintext
	global	btemp
	btemp set 07Eh

	DABS	1,126,2	;btemp
	global	wtemp0
	wtemp0 set btemp
	end
