

HI-TECH Software PIC LITE Macro Assembler V9.82 build 9453 
                                                                                               Mon Jun 17 22:10:32 2024

HI-TECH Software Omniscient Code Generator (Lite mode) build 9453
     1  0000                     opt subtitle "HI-TECH Software Omniscient Code Generator (Lite mode) build 9453"
     2                           
     3                           opt pagewidth 120
     4                           
     5                           	opt lm
     6                           
     7                           	processor	16F877A
     8                           clrc	macro
     9                           	bcf	3,0
    10  0000                     	endm
    11                           clrz	macro
    12                           	bcf	3,2
    13  0000                     	endm
    14                           setc	macro
    15                           	bsf	3,0
    16  0000                     	endm
    17                           setz	macro
    18                           	bsf	3,2
    19  0000                     	endm
    20                           skipc	macro
    21                           	btfss	3,0
    22  0000                     	endm
    23                           skipz	macro
    24                           	btfss	3,2
    25  0000                     	endm
    26                           skipnc	macro
    27                           	btfsc	3,0
    28  0000                     	endm
    29                           skipnz	macro
    30                           	btfsc	3,2
    31  0000                     	endm
    32  0000                     indf	equ	0
    33  0000                     indf0	equ	0
    34  0002                     pc	equ	2
    35  0002                     pcl	equ	2
    36  0003                     status	equ	3
    37  0004                     fsr	equ	4
    38  0004                     fsr0	equ	4
    39  0001                     c	equ	1
    40  0000                     z	equ	0
    41  000A                     pclath	equ	10
    42                           # 2 "D:\6_pic_project\00_Design_Flow_Car\User\Car_demo\Car_demo.c"
    43                           	psect config,class=CONFIG,delta=2 ;#
    44                           # 2 "D:\6_pic_project\00_Design_Flow_Car\User\Car_demo\Car_demo.c"
    45  2007  FF29               	dw 0xFF29 ;#
    46                           	FNCALL	_main,_LCD1602_GPIO_Init
    47                           	FNCALL	_main,_LCD1602_Init
    48                           	FNCALL	_main,_LCD1602_WriteString
    49                           	FNCALL	_main,_Usart_GPIO_Init
    50                           	FNCALL	_main,_Usart_Init
    51                           	FNCALL	_main,_Motor_GPIO_Init
    52                           	FNCALL	_main,_Motor_CCP_PWM_Init
    53                           	FNCALL	_main,_Delay_ms
    54                           	FNCALL	_main,_printf
    55                           	FNCALL	_main,_Motor_Speed_Set
    56                           	FNCALL	_main,_Encoder_Init
    57                           	FNCALL	_main,_Velociy_PID_Init
    58                           	FNCALL	_main,_LCD1602_WriteNum
    59                           	FNCALL	_LCD1602_WriteNum,_LCD1602_WriteCommand
    60                           	FNCALL	_LCD1602_WriteNum,_LCD1602_Pow
    61                           	FNCALL	_LCD1602_WriteNum,___aldiv
    62                           	FNCALL	_LCD1602_WriteNum,___almod
    63                           	FNCALL	_LCD1602_WriteNum,_LCD1602_WriteData
    64                           	FNCALL	_LCD1602_WriteString,_LCD1602_WriteCommand
    65                           	FNCALL	_LCD1602_WriteString,_LCD1602_WriteData
    66                           	FNCALL	_LCD1602_Init,_LCD1602_Delay
    67                           	FNCALL	_LCD1602_Init,_LCD1602_WriteCommand
    68                           	FNCALL	_LCD1602_Pow,___lmul
    69                           	FNCALL	_LCD1602_WriteData,_LCD1602_Delay
    70                           	FNCALL	_LCD1602_WriteCommand,_LCD1602_Delay
    71                           	FNCALL	_printf,_putch
    72                           	FNCALL	_printf,___lwdiv
    73                           	FNCALL	_printf,___lwmod
    74                           	FNROOT	_main
    75                           	FNCALL	_Service,_Trace_Proc
    76                           	FNCALL	_Service,_Trace_Write_Command
    77                           	FNCALL	_Service,i1_Motor_Speed_Set
    78                           	FNCALL	_Service,_Velocity_PID
    79                           	FNCALL	_Trace_Write_Command,_I2CStart
    80                           	FNCALL	_Trace_Write_Command,_I2CSendByte
    81                           	FNCALL	_Trace_Write_Command,_I2CWaitAck
    82                           	FNCALL	_Trace_Write_Command,_I2CStop
    83                           	FNCALL	_I2CWaitAck,_I2C_Delay
    84                           	FNCALL	_I2CSendByte,_I2C_Delay
    85                           	FNCALL	_I2CStop,_I2C_Delay
    86                           	FNCALL	_I2CStart,_I2C_Delay
    87                           	FNCALL	_Velocity_PID,___awtoft
    88                           	FNCALL	_Velocity_PID,___ftneg
    89                           	FNCALL	_Velocity_PID,___ftadd
    90                           	FNCALL	_Velocity_PID,___ftmul
    91                           	FNCALL	_Velocity_PID,_I_amplitude_limiting
    92                           	FNCALL	_Velocity_PID,___fttol
    93                           	FNCALL	___awtoft,___ftpack
    94                           	FNCALL	___ftmul,___ftpack
    95                           	FNCALL	___ftadd,___ftpack
    96                           	FNCALL	intlevel1,_Service
    97                           	global	intlevel1
    98                           	FNROOT	intlevel1
    99                           	global	_dpowers
   100                           psect	strings,class=STRING,delta=2
   101                           global __pstrings
   102  0800                     __pstrings:
   103                           ;	global	stringdir,stringtab,__stringbase
   104  0800                     stringtab:
   105                           ;	String table - string pointers are 1 byte each
   106  0800                     stringcode:stringdir:
      + 0800                     stringdir:	
   107  0800  3008               movlw high(stringdir)
   108  0801  008A               movwf pclath
   109  0802  0804               movf fsr,w
   110  0803  0A84               incf fsr
   111  0804  0782               	addwf pc
   112  0805                     __stringbase:
   113  0805  3400               	retlw	0
   114                           psect	strings
   115                           	file	"C:\Program Files (x86)\HI-TECH Software\PICC\9.82\lib\doprnt.c"
   116                           	line	350
   117  0806                     _dpowers:
   118  0806  3401               	retlw	01h
   119  0807  3400               	retlw	0
   120                           
   121  0808  340A               	retlw	0Ah
   122  0809  3400               	retlw	0
   123                           
   124  080A  3464               	retlw	064h
   125  080B  3400               	retlw	0
   126                           
   127  080C  34E8               	retlw	0E8h
   128  080D  3403               	retlw	03h
   129                           
   130  080E  3410               	retlw	010h
   131  080F  3427               	retlw	027h
   132                           
   133                           	global	_dpowers
   134                           	global	_filt_velocity
   135                           	global	_PWM
   136                           	global	_PWM1
   137                           	global	_PWM2
   138                           	global	_Speed
   139                           	global	_Speed_Set
   140                           	global	_Encoder_Counter
   141                           	global	_Key_Val
   142                           	global	_Motor_Flag
   143                           	global	_Speed_measure1
   144                           	global	_Speed_measure2
   145                           	global	_Trace_Byte
   146                           	global	_ack
   147                           	global	_bluetooth
   148                           	global	_m
   149                           	global	_x
   150                           	global	_y
   151                           	global	_RBIF_FLAG
   152                           	global	_last_filt_velocity
   153                           	global	_Counter_temp
   154                           	global	_Timer0_Counter
   155                           	global	_Turn
   156                           	global	_Velocity
   157                           	global	_CCP1CON
   158  0017                     _CCP1CON	set	23
   159                           	global	_CCP2CON
   160  001D                     _CCP2CON	set	29
   161                           	global	_CCPR1L
   162  0015                     _CCPR1L	set	21
   163                           	global	_CCPR2L
   164  001B                     _CCPR2L	set	27
   165                           	global	_PORTA
   166  0005                     _PORTA	set	5
   167                           	global	_PORTB
   168  0006                     _PORTB	set	6
   169                           	global	_PORTD
   170  0008                     _PORTD	set	8
   171                           	global	_RCREG
   172  001A                     _RCREG	set	26
   173                           	global	_RCSTA
   174  0018                     _RCSTA	set	24
   175                           	global	_T1CON
   176  0010                     _T1CON	set	16
   177                           	global	_T2CON
   178  0012                     _T2CON	set	18
   179                           	global	_TMR0
   180  0001                     _TMR0	set	1
   181                           	global	_TMR1H
   182  000F                     _TMR1H	set	15
   183                           	global	_TMR1L
   184  000E                     _TMR1L	set	14
   185                           	global	_TMR2
   186  0011                     _TMR2	set	17
   187                           	global	_TXREG
   188  0019                     _TXREG	set	25
   189                           	global	_CARRY
   190  0018                     _CARRY	set	24
   191                           	global	_GIE
   192  005F                     _GIE	set	95
   193                           	global	_INTE
   194  005C                     _INTE	set	92
   195                           	global	_INTF
   196  0059                     _INTF	set	89
   197                           	global	_PEIE
   198  005E                     _PEIE	set	94
   199                           	global	_RA0
   200  0028                     _RA0	set	40
   201                           	global	_RA1
   202  0029                     _RA1	set	41
   203                           	global	_RA2
   204  002A                     _RA2	set	42
   205                           	global	_RA3
   206  002B                     _RA3	set	43
   207                           	global	_RA4
   208  002C                     _RA4	set	44
   209                           	global	_RA5
   210  002D                     _RA5	set	45
   211                           	global	_RB4
   212  0034                     _RB4	set	52
   213                           	global	_RB5
   214  0035                     _RB5	set	53
   215                           	global	_RB6
   216  0036                     _RB6	set	54
   217                           	global	_RB7
   218  0037                     _RB7	set	55
   219                           	global	_RBIE
   220  005B                     _RBIE	set	91
   221                           	global	_RBIF
   222  0058                     _RBIF	set	88
   223                           	global	_RCIF
   224  0065                     _RCIF	set	101
   225                           	global	_RE0
   226  0048                     _RE0	set	72
   227                           	global	_RE1
   228  0049                     _RE1	set	73
   229                           	global	_RE2
   230  004A                     _RE2	set	74
   231                           	global	_T0IE
   232  005D                     _T0IE	set	93
   233                           	global	_T0IF
   234  005A                     _T0IF	set	90
   235                           	global	_TMR1IF
   236  0060                     _TMR1IF	set	96
   237                           	global	_TMR2IF
   238  0061                     _TMR2IF	set	97
   239                           	global	_TMR2ON
   240  0092                     _TMR2ON	set	146
   241                           	global	_ADCON1
   242  009F                     _ADCON1	set	159
   243                           	global	_OPTION_REG
   244  0081                     _OPTION_REG	set	129
   245                           	global	_PR2
   246  0092                     _PR2	set	146
   247                           	global	_SPBRG
   248  0099                     _SPBRG	set	153
   249                           	global	_TRISB
   250  0086                     _TRISB	set	134
   251                           	global	_TRISD
   252  0088                     _TRISD	set	136
   253                           	global	_TXSTA
   254  0098                     _TXSTA	set	152
   255                           	global	_RCIE
   256  0465                     _RCIE	set	1125
   257                           	global	_TMR1IE
   258  0460                     _TMR1IE	set	1120
   259                           	global	_TMR2IE
   260  0461                     _TMR2IE	set	1121
   261                           	global	_TRISA0
   262  0428                     _TRISA0	set	1064
   263                           	global	_TRISA1
   264  0429                     _TRISA1	set	1065
   265                           	global	_TRISA2
   266  042A                     _TRISA2	set	1066
   267                           	global	_TRISA3
   268  042B                     _TRISA3	set	1067
   269                           	global	_TRISA4
   270  042C                     _TRISA4	set	1068
   271                           	global	_TRISA5
   272  042D                     _TRISA5	set	1069
   273                           	global	_TRISB0
   274  0430                     _TRISB0	set	1072
   275                           	global	_TRISB1
   276  0431                     _TRISB1	set	1073
   277                           	global	_TRISB4
   278  0434                     _TRISB4	set	1076
   279                           	global	_TRISB5
   280  0435                     _TRISB5	set	1077
   281                           	global	_TRISB6
   282  0436                     _TRISB6	set	1078
   283                           	global	_TRISB7
   284  0437                     _TRISB7	set	1079
   285                           	global	_TRISC1
   286  0439                     _TRISC1	set	1081
   287                           	global	_TRISC2
   288  043A                     _TRISC2	set	1082
   289                           	global	_TRISC6
   290  043E                     _TRISC6	set	1086
   291                           	global	_TRISC7
   292  043F                     _TRISC7	set	1087
   293                           	global	_TRISE0
   294  0448                     _TRISE0	set	1096
   295                           	global	_TRISE1
   296  0449                     _TRISE1	set	1097
   297                           	global	_TRISE2
   298  044A                     _TRISE2	set	1098
   299                           	global	_TRMT
   300  04C1                     _TRMT	set	1217
   301                           	global	_nRBPU
   302  040F                     _nRBPU	set	1039
   303                           	global	_EEADR
   304  010D                     _EEADR	set	269
   305                           	global	_EEDATA
   306  010C                     _EEDATA	set	268
   307                           	global	_EECON1
   308  018C                     _EECON1	set	396
   309                           	global	_EECON2
   310  018D                     _EECON2	set	397
   311                           	global	_RD
   312  0C60                     _RD	set	3168
   313                           	global	_WR
   314  0C61                     _WR	set	3169
   315                           	global	_WREN
   316  0C62                     _WREN	set	3170
   317                           	
   318  0810                     STR_3:	
   319  0810  34B4               	retlw	-76
   320  0811  34AE               	retlw	-82
   321  0812  34BF               	retlw	-65
   322  0813  34DA               	retlw	-38
   323  0814  34B3               	retlw	-77
   324  0815  34F5               	retlw	-11
   325  0816  34CA               	retlw	-54
   326  0817  34BC               	retlw	-68
   327  0818  34BB               	retlw	-69
   328  0819  34AF               	retlw	-81
   329  081A  34CD               	retlw	-51
   330  081B  34EA               	retlw	-22
   331  081C  34B3               	retlw	-77
   332  081D  34C9               	retlw	-55
   333  081E  3421               	retlw	33	;'!'
   334  081F  340D               	retlw	13
   335  0820  340A               	retlw	10
   336  0821  3400               	retlw	0
   337                           psect	strings
   338                           	
   339  0822                     STR_4:	
   340  0822  3453               	retlw	83	;'S'
   341  0823  3470               	retlw	112	;'p'
   342  0824  3465               	retlw	101	;'e'
   343  0825  3465               	retlw	101	;'e'
   344  0826  3464               	retlw	100	;'d'
   345  0827  343A               	retlw	58	;':'
   346  0828  3425               	retlw	37	;'%'
   347  0829  3464               	retlw	100	;'d'
   348  082A  340D               	retlw	13
   349  082B  340A               	retlw	10
   350  082C  3400               	retlw	0
   351                           psect	strings
   352                           	
   353  082D                     STR_2:	
   354  082D  3453               	retlw	83	;'S'
   355  082E  3470               	retlw	112	;'p'
   356  082F  3465               	retlw	101	;'e'
   357  0830  3465               	retlw	101	;'e'
   358  0831  3464               	retlw	100	;'d'
   359  0832  343A               	retlw	58	;':'
   360  0833  3400               	retlw	0
   361                           psect	strings
   362                           	
   363  0834                     STR_1:	
   364  0834  3443               	retlw	67	;'C'
   365  0835  3441               	retlw	65	;'A'
   366  0836  3452               	retlw	82	;'R'
   367  0837  3420               	retlw	32	;' '
   368  0838  3431               	retlw	49	;'1'
   369  0839  3400               	retlw	0
   370                           psect	strings
   371                           	
   372  083A                     STR_5:	
   373  083A  3425               	retlw	37	;'%'
   374  083B  3463               	retlw	99	;'c'
   375  083C  3400               	retlw	0
   376                           psect	strings
   377                           	file	"202121365038.as"
   378                           	line	#
   379                           psect cinit,class=CODE,delta=2
   380                           global start_initialization
   381  0AEC                     start_initialization:
   382                           
   383                           psect	bitbssBANK0,class=BANK0,bit,space=1
   384                           global __pbitbssBANK0
   385  0370                     __pbitbssBANK0:
   386  0370                     _RBIF_FLAG:
   387  0370                            ds      1
   388                           
   389                           psect	bssBANK0,class=BANK0,space=1
   390                           global __pbssBANK0
   391  0056                     __pbssBANK0:
   392  0056                     _filt_velocity:
   393  0056                            ds      3
   394                           
   395  0059                     _PWM:
   396  0059                            ds      2
   397                           
   398  005B                     _PWM1:
   399  005B                            ds      2
   400                           
   401  005D                     _PWM2:
   402  005D                            ds      2
   403                           
   404  005F                     _Speed:
   405  005F                            ds      2
   406                           
   407  0061                     _Speed_Set:
   408  0061                            ds      2
   409                           
   410  0063                     _Encoder_Counter:
   411  0063                            ds      1
   412                           
   413  0064                     _Key_Val:
   414  0064                            ds      1
   415                           
   416  0065                     _Motor_Flag:
   417  0065                            ds      1
   418                           
   419  0066                     _Speed_measure1:
   420  0066                            ds      1
   421                           
   422  0067                     _Speed_measure2:
   423  0067                            ds      1
   424                           
   425  0068                     _Trace_Byte:
   426  0068                            ds      1
   427                           
   428  0069                     _ack:
   429  0069                            ds      1
   430                           
   431  006A                     _bluetooth:
   432  006A                            ds      1
   433                           
   434  006B                     _m:
   435  006B                            ds      1
   436                           
   437  006C                     _x:
   438  006C                            ds      1
   439                           
   440  006D                     _y:
   441  006D                            ds      1
   442                           
   443                           psect	bssBANK1,class=BANK1,space=1
   444                           global __pbssBANK1
   445  00E0                     __pbssBANK1:
   446  00E0                     _last_filt_velocity:
   447  00E0                            ds      3
   448                           
   449  00E3                     _Counter_temp:
   450  00E3                            ds      2
   451                           
   452  00E5                     _Timer0_Counter:
   453  00E5                            ds      2
   454                           
   455  00E7                     _Turn:
   456  00E7                            ds      2
   457                           
   458                           psect	bssBANK3,class=BANK3,space=1
   459                           global __pbssBANK3
   460  0190                     __pbssBANK3:
   461  0190                     _Velocity:
   462  0190                            ds      24
   463                           
   464                           psect clrtext,class=CODE,delta=2
   465                           global clear_ram
   466                           ;	Called with FSR containing the base address, and
   467                           ;	W with the last address+1
   468  09B6                     clear_ram:
   469  09B6  0064               	clrwdt			;clear the watchdog before getting into this loop
   470  09B7                     clrloop:
   471  09B7  0180               	clrf	indf		;clear RAM location pointed to by FSR
   472  09B8  0A84               	incf	fsr,f		;increment pointer
   473  09B9  0604               	xorwf	fsr,w		;XOR with final address
   474  09BA  1903               	btfsc	status,2	;have we reached the end yet?
   475  09BB  3400               	retlw	0		;all done for this memory range, return
   476  09BC  0604               	xorwf	fsr,w		;XOR again to restore value
   477  09BD  29B7               	goto	clrloop		;do the next byte
   478                           
   479                           ; Clear objects allocated to BITBANK0
   480                           psect cinit,class=CODE,delta=2
   481  0AEC  01EE               	clrf	((__pbitbssBANK0/8)+0)&07Fh
   482                           ; Clear objects allocated to BANK0
   483                           psect cinit,class=CODE,delta=2
   484  0AED  1383               	bcf	status, 7	;select IRP bank0
   485  0AEE  3056               	movlw	low(__pbssBANK0)
   486  0AEF  0084               	movwf	fsr
   487  0AF0  306E               	movlw	low((__pbssBANK0)+018h)
   488  0AF1  120A  158A  21B6   	fcall	clear_ram
              120A  158A         
   489                           ; Clear objects allocated to BANK1
   490                           psect cinit,class=CODE,delta=2
   491  0AF6  30E0               	movlw	low(__pbssBANK1)
   492  0AF7  0084               	movwf	fsr
   493  0AF8  30E9               	movlw	low((__pbssBANK1)+09h)
   494  0AF9  120A  158A  21B6   	fcall	clear_ram
              120A  158A         
   495                           ; Clear objects allocated to BANK3
   496                           psect cinit,class=CODE,delta=2
   497  0AFE  1783               	bsf	status, 7	;select IRP bank2
   498  0AFF  3090               	movlw	low(__pbssBANK3)
   499  0B00  0084               	movwf	fsr
   500  0B01  30A8               	movlw	low((__pbssBANK3)+018h)
   501  0B02  120A  158A  21B6   	fcall	clear_ram
              120A  158A         
   502                           psect cinit,class=CODE,delta=2
   503                           global end_of_initialization
   504                           
   505                           ;End of C runtime variable initialization code
   506                           
   507  0B07                     end_of_initialization:
   508  0B07  0183               clrf status
   509  0B08  120A  118A  2BEF   ljmp _main	;jump to C main() function
   510                           psect	cstackBANK1,class=BANK1,space=1
   511                           global __pcstackBANK1
   512  00A0                     __pcstackBANK1:
   513                           	global	??_LCD1602_GPIO_Init
   514  00A0                     ??_LCD1602_GPIO_Init:	; 0 bytes @ 0x0
   515                           	global	??_Usart_GPIO_Init
   516  00A0                     ??_Usart_GPIO_Init:	; 0 bytes @ 0x0
   517                           	global	??_Usart_Init
   518  00A0                     ??_Usart_Init:	; 0 bytes @ 0x0
   519                           	global	??_Motor_GPIO_Init
   520  00A0                     ??_Motor_GPIO_Init:	; 0 bytes @ 0x0
   521                           	global	??_Motor_CCP_PWM_Init
   522  00A0                     ??_Motor_CCP_PWM_Init:	; 0 bytes @ 0x0
   523                           	global	?_Delay_ms
   524  00A0                     ?_Delay_ms:	; 0 bytes @ 0x0
   525                           	global	??_Encoder_Init
   526  00A0                     ??_Encoder_Init:	; 0 bytes @ 0x0
   527                           	global	??_Velociy_PID_Init
   528  00A0                     ??_Velociy_PID_Init:	; 0 bytes @ 0x0
   529                           	global	?_Motor_Speed_Set
   530  00A0                     ?_Motor_Speed_Set:	; 0 bytes @ 0x0
   531                           	global	??_LCD1602_Delay
   532  00A0                     ??_LCD1602_Delay:	; 0 bytes @ 0x0
   533                           	global	??_putch
   534  00A0                     ??_putch:	; 0 bytes @ 0x0
   535                           	global	?___lwdiv
   536  00A0                     ?___lwdiv:	; 2 bytes @ 0x0
   537                           	global	?___lmul
   538  00A0                     ?___lmul:	; 4 bytes @ 0x0
   539                           	global	putch@ch
   540  00A0                     putch@ch:	; 1 bytes @ 0x0
   541                           	global	Motor_Speed_Set@Speed1
   542  00A0                     Motor_Speed_Set@Speed1:	; 2 bytes @ 0x0
   543                           	global	LCD1602_Delay@i
   544  00A0                     LCD1602_Delay@i:	; 2 bytes @ 0x0
   545                           	global	Delay_ms@x
   546  00A0                     Delay_ms@x:	; 2 bytes @ 0x0
   547                           	global	___lwdiv@divisor
   548  00A0                     ___lwdiv@divisor:	; 2 bytes @ 0x0
   549                           	global	___lmul@multiplier
   550  00A0                     ___lmul@multiplier:	; 4 bytes @ 0x0
   551  00A0                     	ds	2
   552                           	global	??_Delay_ms
   553  00A2                     ??_Delay_ms:	; 0 bytes @ 0x2
   554                           	global	??_LCD1602_WriteCommand
   555  00A2                     ??_LCD1602_WriteCommand:	; 0 bytes @ 0x2
   556                           	global	??_LCD1602_WriteData
   557  00A2                     ??_LCD1602_WriteData:	; 0 bytes @ 0x2
   558                           	global	LCD1602_WriteCommand@Command
   559  00A2                     LCD1602_WriteCommand@Command:	; 1 bytes @ 0x2
   560                           	global	LCD1602_WriteData@Data
   561  00A2                     LCD1602_WriteData@Data:	; 1 bytes @ 0x2
   562                           	global	Motor_Speed_Set@Speed2
   563  00A2                     Motor_Speed_Set@Speed2:	; 2 bytes @ 0x2
   564                           	global	___lwdiv@dividend
   565  00A2                     ___lwdiv@dividend:	; 2 bytes @ 0x2
   566  00A2                     	ds	1
   567                           	global	??_LCD1602_Init
   568  00A3                     ??_LCD1602_Init:	; 0 bytes @ 0x3
   569                           	global	?_LCD1602_WriteString
   570  00A3                     ?_LCD1602_WriteString:	; 0 bytes @ 0x3
   571                           	global	LCD1602_WriteString@column
   572  00A3                     LCD1602_WriteString@column:	; 1 bytes @ 0x3
   573  00A3                     	ds	1
   574                           	global	??_Motor_Speed_Set
   575  00A4                     ??_Motor_Speed_Set:	; 0 bytes @ 0x4
   576                           	global	??___lwdiv
   577  00A4                     ??___lwdiv:	; 0 bytes @ 0x4
   578                           	global	LCD1602_WriteString@String
   579  00A4                     LCD1602_WriteString@String:	; 1 bytes @ 0x4
   580                           	global	___lmul@multiplicand
   581  00A4                     ___lmul@multiplicand:	; 4 bytes @ 0x4
   582  00A4                     	ds	1
   583                           	global	??_LCD1602_WriteString
   584  00A5                     ??_LCD1602_WriteString:	; 0 bytes @ 0x5
   585                           	global	___lwdiv@quotient
   586  00A5                     ___lwdiv@quotient:	; 2 bytes @ 0x5
   587  00A5                     	ds	1
   588                           	global	LCD1602_WriteString@Location
   589  00A6                     LCD1602_WriteString@Location:	; 1 bytes @ 0x6
   590  00A6                     	ds	1
   591                           	global	LCD1602_WriteString@row
   592  00A7                     LCD1602_WriteString@row:	; 1 bytes @ 0x7
   593                           	global	___lwdiv@counter
   594  00A7                     ___lwdiv@counter:	; 1 bytes @ 0x7
   595  00A7                     	ds	1
   596                           	global	??___lmul
   597  00A8                     ??___lmul:	; 0 bytes @ 0x8
   598                           	global	?___lwmod
   599  00A8                     ?___lwmod:	; 2 bytes @ 0x8
   600                           	global	___lwmod@divisor
   601  00A8                     ___lwmod@divisor:	; 2 bytes @ 0x8
   602  00A8                     	ds	1
   603                           	global	___lmul@product
   604  00A9                     ___lmul@product:	; 4 bytes @ 0x9
   605  00A9                     	ds	1
   606                           	global	___lwmod@dividend
   607  00AA                     ___lwmod@dividend:	; 2 bytes @ 0xA
   608  00AA                     	ds	2
   609                           	global	??___lwmod
   610  00AC                     ??___lwmod:	; 0 bytes @ 0xC
   611  00AC                     	ds	1
   612                           	global	?___aldiv
   613  00AD                     ?___aldiv:	; 4 bytes @ 0xD
   614                           	global	___lwmod@counter
   615  00AD                     ___lwmod@counter:	; 1 bytes @ 0xD
   616                           	global	___aldiv@divisor
   617  00AD                     ___aldiv@divisor:	; 4 bytes @ 0xD
   618  00AD                     	ds	1
   619                           	global	?_printf
   620  00AE                     ?_printf:	; 2 bytes @ 0xE
   621  00AE                     	ds	2
   622                           	global	??_printf
   623  00B0                     ??_printf:	; 0 bytes @ 0x10
   624  00B0                     	ds	1
   625                           	global	___aldiv@dividend
   626  00B1                     ___aldiv@dividend:	; 4 bytes @ 0x11
   627  00B1                     	ds	2
   628                           	global	printf@flag
   629  00B3                     printf@flag:	; 1 bytes @ 0x13
   630  00B3                     	ds	1
   631                           	global	printf@f
   632  00B4                     printf@f:	; 1 bytes @ 0x14
   633  00B4                     	ds	1
   634                           	global	??___aldiv
   635  00B5                     ??___aldiv:	; 0 bytes @ 0x15
   636                           	global	printf@prec
   637  00B5                     printf@prec:	; 1 bytes @ 0x15
   638  00B5                     	ds	1
   639                           	global	printf@ap
   640  00B6                     printf@ap:	; 1 bytes @ 0x16
   641                           	global	___aldiv@counter
   642  00B6                     ___aldiv@counter:	; 1 bytes @ 0x16
   643  00B6                     	ds	1
   644                           	global	___aldiv@sign
   645  00B7                     ___aldiv@sign:	; 1 bytes @ 0x17
   646                           	global	printf@_val
   647  00B7                     printf@_val:	; 4 bytes @ 0x17
   648  00B7                     	ds	1
   649                           	global	___aldiv@quotient
   650  00B8                     ___aldiv@quotient:	; 4 bytes @ 0x18
   651  00B8                     	ds	3
   652                           	global	printf@c
   653  00BB                     printf@c:	; 1 bytes @ 0x1B
   654  00BB                     	ds	1
   655                           	global	?___almod
   656  00BC                     ?___almod:	; 4 bytes @ 0x1C
   657                           	global	___almod@divisor
   658  00BC                     ___almod@divisor:	; 4 bytes @ 0x1C
   659  00BC                     	ds	4
   660                           	global	___almod@dividend
   661  00C0                     ___almod@dividend:	; 4 bytes @ 0x20
   662  00C0                     	ds	4
   663                           	global	??___almod
   664  00C4                     ??___almod:	; 0 bytes @ 0x24
   665  00C4                     	ds	1
   666                           	global	___almod@counter
   667  00C5                     ___almod@counter:	; 1 bytes @ 0x25
   668  00C5                     	ds	1
   669                           	global	___almod@sign
   670  00C6                     ___almod@sign:	; 1 bytes @ 0x26
   671  00C6                     	ds	1
   672                           	global	?_LCD1602_Pow
   673  00C7                     ?_LCD1602_Pow:	; 4 bytes @ 0x27
   674                           	global	LCD1602_Pow@Y
   675  00C7                     LCD1602_Pow@Y:	; 1 bytes @ 0x27
   676  00C7                     	ds	4
   677                           	global	??_LCD1602_Pow
   678  00CB                     ??_LCD1602_Pow:	; 0 bytes @ 0x2B
   679  00CB                     	ds	4
   680                           	global	LCD1602_Pow@X
   681  00CF                     LCD1602_Pow@X:	; 1 bytes @ 0x2F
   682  00CF                     	ds	1
   683                           	global	LCD1602_Pow@i
   684  00D0                     LCD1602_Pow@i:	; 1 bytes @ 0x30
   685  00D0                     	ds	1
   686                           	global	LCD1602_Pow@result
   687  00D1                     LCD1602_Pow@result:	; 4 bytes @ 0x31
   688  00D1                     	ds	4
   689                           	global	?_LCD1602_WriteNum
   690  00D5                     ?_LCD1602_WriteNum:	; 0 bytes @ 0x35
   691                           	global	LCD1602_WriteNum@column
   692  00D5                     LCD1602_WriteNum@column:	; 1 bytes @ 0x35
   693  00D5                     	ds	1
   694                           	global	LCD1602_WriteNum@number
   695  00D6                     LCD1602_WriteNum@number:	; 2 bytes @ 0x36
   696  00D6                     	ds	2
   697                           	global	LCD1602_WriteNum@lenth
   698  00D8                     LCD1602_WriteNum@lenth:	; 1 bytes @ 0x38
   699  00D8                     	ds	1
   700                           	global	??_LCD1602_WriteNum
   701  00D9                     ??_LCD1602_WriteNum:	; 0 bytes @ 0x39
   702  00D9                     	ds	1
   703                           	global	LCD1602_WriteNum@Location
   704  00DA                     LCD1602_WriteNum@Location:	; 1 bytes @ 0x3A
   705  00DA                     	ds	1
   706                           	global	LCD1602_WriteNum@row
   707  00DB                     LCD1602_WriteNum@row:	; 1 bytes @ 0x3B
   708  00DB                     	ds	1
   709                           	global	LCD1602_WriteNum@i
   710  00DC                     LCD1602_WriteNum@i:	; 1 bytes @ 0x3C
   711  00DC                     	ds	1
   712                           	global	??_main
   713  00DD                     ??_main:	; 0 bytes @ 0x3D
   714  00DD                     	ds	3
   715                           psect	cstackCOMMON,class=COMMON,space=1
   716                           global __pcstackCOMMON
   717  0070                     __pcstackCOMMON:
   718                           	global	?_LCD1602_GPIO_Init
   719  0070                     ?_LCD1602_GPIO_Init:	; 0 bytes @ 0x0
   720                           	global	?_LCD1602_Init
   721  0070                     ?_LCD1602_Init:	; 0 bytes @ 0x0
   722                           	global	?_Usart_GPIO_Init
   723  0070                     ?_Usart_GPIO_Init:	; 0 bytes @ 0x0
   724                           	global	?_Usart_Init
   725  0070                     ?_Usart_Init:	; 0 bytes @ 0x0
   726                           	global	?_Motor_GPIO_Init
   727  0070                     ?_Motor_GPIO_Init:	; 0 bytes @ 0x0
   728                           	global	?_Motor_CCP_PWM_Init
   729  0070                     ?_Motor_CCP_PWM_Init:	; 0 bytes @ 0x0
   730                           	global	?_Encoder_Init
   731  0070                     ?_Encoder_Init:	; 0 bytes @ 0x0
   732                           	global	?_Velociy_PID_Init
   733  0070                     ?_Velociy_PID_Init:	; 0 bytes @ 0x0
   734                           	global	??_Trace_Proc
   735  0070                     ??_Trace_Proc:	; 0 bytes @ 0x0
   736                           	global	?_Service
   737  0070                     ?_Service:	; 0 bytes @ 0x0
   738                           	global	?_main
   739  0070                     ?_main:	; 0 bytes @ 0x0
   740                           	global	?_LCD1602_Delay
   741  0070                     ?_LCD1602_Delay:	; 0 bytes @ 0x0
   742                           	global	?_LCD1602_WriteCommand
   743  0070                     ?_LCD1602_WriteCommand:	; 0 bytes @ 0x0
   744                           	global	?_LCD1602_WriteData
   745  0070                     ?_LCD1602_WriteData:	; 0 bytes @ 0x0
   746                           	global	?_I2C_Delay
   747  0070                     ?_I2C_Delay:	; 0 bytes @ 0x0
   748                           	global	??_I2C_Delay
   749  0070                     ??_I2C_Delay:	; 0 bytes @ 0x0
   750                           	global	?_I2CStart
   751  0070                     ?_I2CStart:	; 0 bytes @ 0x0
   752                           	global	?_I2CStop
   753  0070                     ?_I2CStop:	; 0 bytes @ 0x0
   754                           	global	?_I2CSendByte
   755  0070                     ?_I2CSendByte:	; 0 bytes @ 0x0
   756                           	global	?_putch
   757  0070                     ?_putch:	; 0 bytes @ 0x0
   758                           	global	?_I_amplitude_limiting
   759  0070                     ?_I_amplitude_limiting:	; 0 bytes @ 0x0
   760                           	global	?i1_Motor_Speed_Set
   761  0070                     ?i1_Motor_Speed_Set:	; 0 bytes @ 0x0
   762                           	global	?_Trace_Write_Command
   763  0070                     ?_Trace_Write_Command:	; 1 bytes @ 0x0
   764                           	global	?_I2CWaitAck
   765  0070                     ?_I2CWaitAck:	; 1 bytes @ 0x0
   766                           	global	?_Trace_Proc
   767  0070                     ?_Trace_Proc:	; 2 bytes @ 0x0
   768                           	global	?___ftpack
   769  0070                     ?___ftpack:	; 3 bytes @ 0x0
   770                           	global	?___ftneg
   771  0070                     ?___ftneg:	; 3 bytes @ 0x0
   772                           	global	I2C_Delay@n
   773  0070                     I2C_Delay@n:	; 1 bytes @ 0x0
   774                           	global	I_amplitude_limiting@Error_sum
   775  0070                     I_amplitude_limiting@Error_sum:	; 1 bytes @ 0x0
   776                           	global	i1Motor_Speed_Set@Speed1
   777  0070                     i1Motor_Speed_Set@Speed1:	; 2 bytes @ 0x0
   778                           	global	___ftneg@f1
   779  0070                     ___ftneg@f1:	; 3 bytes @ 0x0
   780                           	global	___ftpack@arg
   781  0070                     ___ftpack@arg:	; 3 bytes @ 0x0
   782  0070                     	ds	1
   783                           	global	??_I2CStart
   784  0071                     ??_I2CStart:	; 0 bytes @ 0x1
   785                           	global	??_I2CStop
   786  0071                     ??_I2CStop:	; 0 bytes @ 0x1
   787                           	global	??_I2CSendByte
   788  0071                     ??_I2CSendByte:	; 0 bytes @ 0x1
   789                           	global	??_I2CWaitAck
   790  0071                     ??_I2CWaitAck:	; 0 bytes @ 0x1
   791                           	global	??_I_amplitude_limiting
   792  0071                     ??_I_amplitude_limiting:	; 0 bytes @ 0x1
   793  0071                     	ds	1
   794                           	global	I2CSendByte@byt
   795  0072                     I2CSendByte@byt:	; 1 bytes @ 0x2
   796                           	global	I2CWaitAck@ackbit
   797  0072                     I2CWaitAck@ackbit:	; 1 bytes @ 0x2
   798                           	global	i1Motor_Speed_Set@Speed2
   799  0072                     i1Motor_Speed_Set@Speed2:	; 2 bytes @ 0x2
   800  0072                     	ds	1
   801                           	global	??___ftneg
   802  0073                     ??___ftneg:	; 0 bytes @ 0x3
   803                           	global	I2CSendByte@i
   804  0073                     I2CSendByte@i:	; 1 bytes @ 0x3
   805                           	global	I_amplitude_limiting@number
   806  0073                     I_amplitude_limiting@number:	; 1 bytes @ 0x3
   807                           	global	___ftpack@exp
   808  0073                     ___ftpack@exp:	; 1 bytes @ 0x3
   809  0073                     	ds	1
   810                           	global	??_Trace_Write_Command
   811  0074                     ??_Trace_Write_Command:	; 0 bytes @ 0x4
   812                           	global	??i1_Motor_Speed_Set
   813  0074                     ??i1_Motor_Speed_Set:	; 0 bytes @ 0x4
   814                           	global	___ftpack@sign
   815  0074                     ___ftpack@sign:	; 1 bytes @ 0x4
   816  0074                     	ds	1
   817                           	global	??___ftpack
   818  0075                     ??___ftpack:	; 0 bytes @ 0x5
   819  0075                     	ds	3
   820                           	global	?___awtoft
   821  0078                     ?___awtoft:	; 3 bytes @ 0x8
   822                           	global	?___fttol
   823  0078                     ?___fttol:	; 4 bytes @ 0x8
   824                           	global	___awtoft@c
   825  0078                     ___awtoft@c:	; 2 bytes @ 0x8
   826                           	global	___fttol@f1
   827  0078                     ___fttol@f1:	; 3 bytes @ 0x8
   828  0078                     	ds	3
   829                           	global	??___awtoft
   830  007B                     ??___awtoft:	; 0 bytes @ 0xB
   831  007B                     	ds	2
   832                           	global	___awtoft@sign
   833  007D                     ___awtoft@sign:	; 1 bytes @ 0xD
   834  007D                     	ds	1
   835                           psect	cstackBANK0,class=BANK0,space=1
   836                           global __pcstackBANK0
   837  0020                     __pcstackBANK0:
   838                           	global	??___fttol
   839  0020                     ??___fttol:	; 0 bytes @ 0x0
   840  0020                     	ds	4
   841                           	global	___fttol@sign1
   842  0024                     ___fttol@sign1:	; 1 bytes @ 0x4
   843  0024                     	ds	1
   844                           	global	___fttol@lval
   845  0025                     ___fttol@lval:	; 4 bytes @ 0x5
   846  0025                     	ds	4
   847                           	global	___fttol@exp1
   848  0029                     ___fttol@exp1:	; 1 bytes @ 0x9
   849  0029                     	ds	1
   850                           	global	?___ftadd
   851  002A                     ?___ftadd:	; 3 bytes @ 0xA
   852                           	global	___ftadd@f1
   853  002A                     ___ftadd@f1:	; 3 bytes @ 0xA
   854  002A                     	ds	3
   855                           	global	___ftadd@f2
   856  002D                     ___ftadd@f2:	; 3 bytes @ 0xD
   857  002D                     	ds	3
   858                           	global	??___ftadd
   859  0030                     ??___ftadd:	; 0 bytes @ 0x10
   860  0030                     	ds	4
   861                           	global	___ftadd@sign
   862  0034                     ___ftadd@sign:	; 1 bytes @ 0x14
   863  0034                     	ds	1
   864                           	global	___ftadd@exp2
   865  0035                     ___ftadd@exp2:	; 1 bytes @ 0x15
   866  0035                     	ds	1
   867                           	global	___ftadd@exp1
   868  0036                     ___ftadd@exp1:	; 1 bytes @ 0x16
   869  0036                     	ds	1
   870                           	global	?___ftmul
   871  0037                     ?___ftmul:	; 3 bytes @ 0x17
   872                           	global	___ftmul@f1
   873  0037                     ___ftmul@f1:	; 3 bytes @ 0x17
   874  0037                     	ds	3
   875                           	global	___ftmul@f2
   876  003A                     ___ftmul@f2:	; 3 bytes @ 0x1A
   877  003A                     	ds	3
   878                           	global	??___ftmul
   879  003D                     ??___ftmul:	; 0 bytes @ 0x1D
   880  003D                     	ds	4
   881                           	global	___ftmul@exp
   882  0041                     ___ftmul@exp:	; 1 bytes @ 0x21
   883  0041                     	ds	1
   884                           	global	___ftmul@f3_as_product
   885  0042                     ___ftmul@f3_as_product:	; 3 bytes @ 0x22
   886  0042                     	ds	3
   887                           	global	___ftmul@cntr
   888  0045                     ___ftmul@cntr:	; 1 bytes @ 0x25
   889  0045                     	ds	1
   890                           	global	___ftmul@sign
   891  0046                     ___ftmul@sign:	; 1 bytes @ 0x26
   892  0046                     	ds	1
   893                           	global	?_Velocity_PID
   894  0047                     ?_Velocity_PID:	; 2 bytes @ 0x27
   895                           	global	Velocity_PID@velocity
   896  0047                     Velocity_PID@velocity:	; 2 bytes @ 0x27
   897  0047                     	ds	2
   898                           	global	Velocity_PID@velocity_calcu
   899  0049                     Velocity_PID@velocity_calcu:	; 2 bytes @ 0x29
   900  0049                     	ds	2
   901                           	global	??_Velocity_PID
   902  004B                     ??_Velocity_PID:	; 0 bytes @ 0x2B
   903  004B                     	ds	2
   904                           	global	Velocity_PID@a
   905  004D                     Velocity_PID@a:	; 3 bytes @ 0x2D
   906  004D                     	ds	3
   907                           	global	??_Service
   908  0050                     ??_Service:	; 0 bytes @ 0x30
   909  0050                     	ds	6
   910 ;;Data sizes: Strings 45, constant 10, data 0, bss 57, persistent 0 stack 0
   911 ;;Auto spaces:   Size  Autos    Used
   912 ;; COMMON          14     14      14
   913 ;; BANK0           80     54      79
   914 ;; BANK1           80     64      73
   915 ;; BANK3           96      0      24
   916 ;; BANK2           96      0       0
   917                           
   918 ;;
   919 ;; Pointer list with targets:
   920                           
   921 ;; ?___ftpack	float  size(1) Largest target is 0
   922 ;;
   923 ;; ?___lwdiv	unsigned int  size(1) Largest target is 0
   924 ;;
   925 ;; ?___lwmod	unsigned int  size(1) Largest target is 0
   926 ;;
   927 ;; ?___fttol	long  size(1) Largest target is 0
   928 ;;
   929 ;; ?___ftneg	float  size(1) Largest target is 0
   930 ;;
   931 ;; ?___ftmul	float  size(1) Largest target is 0
   932 ;;
   933 ;; ?___ftadd	float  size(1) Largest target is 0
   934 ;;
   935 ;; ?___awtoft	float  size(1) Largest target is 0
   936 ;;
   937 ;; ?___aldiv	long  size(1) Largest target is 0
   938 ;;
   939 ;; ?___almod	long  size(1) Largest target is 0
   940 ;;
   941 ;; ?___lmul	unsigned long  size(1) Largest target is 0
   942 ;;
   943 ;; ?_LCD1602_Pow	long  size(1) Largest target is 0
   944 ;;
   945 ;; ?_Velocity_PID	int  size(1) Largest target is 0
   946 ;;
   947 ;; printf@f	PTR const unsigned char  size(1) Largest target is 18
   948 ;;		 -> STR_5(CODE[3]), STR_4(CODE[11]), STR_3(CODE[18]), 
   949 ;;
   950 ;; ?_printf	int  size(1) Largest target is 0
   951 ;;
   952 ;; printf@ap	PTR void [1] size(1) Largest target is 2
   953 ;;		 -> ?_printf(BANK1[2]), 
   954 ;;
   955 ;; S11360$_cp	PTR const unsigned char  size(1) Largest target is 0
   956 ;;
   957 ;; _val._str._cp	PTR const unsigned char  size(1) Largest target is 0
   958 ;;
   959 ;; I_amplitude_limiting@Error_sum	PTR unsigned char  size(1) Largest target is 24
   960 ;;		 -> Velocity(BANK3[24]), 
   961 ;;
   962 ;; LCD1602_WriteString@String	PTR unsigned char  size(1) Largest target is 7
   963 ;;		 -> STR_2(CODE[7]), STR_1(CODE[6]), 
   964 ;;
   965                           
   966                           
   967 ;;
   968 ;; Critical Paths under _main in COMMON
   969 ;;
   970 ;;   None.
   971 ;;
   972 ;; Critical Paths under _Service in COMMON
   973 ;;
   974 ;;   _Trace_Write_Command->_I2CSendByte
   975 ;;   _I2CWaitAck->_I2C_Delay
   976 ;;   _I2CSendByte->_I2C_Delay
   977 ;;   _I2CStop->_I2C_Delay
   978 ;;   _I2CStart->_I2C_Delay
   979 ;;   _Velocity_PID->___awtoft
   980 ;;   ___awtoft->___ftpack
   981 ;;   ___ftmul->___fttol
   982 ;;   ___ftadd->___fttol
   983 ;;   ___fttol->___ftpack
   984 ;;
   985 ;; Critical Paths under _main in BANK0
   986 ;;
   987 ;;   None.
   988 ;;
   989 ;; Critical Paths under _Service in BANK0
   990 ;;
   991 ;;   _Service->_Velocity_PID
   992 ;;   _Velocity_PID->___ftmul
   993 ;;   ___ftmul->___ftadd
   994 ;;   ___ftadd->___fttol
   995 ;;
   996 ;; Critical Paths under _main in BANK1
   997 ;;
   998 ;;   _main->_LCD1602_WriteNum
   999 ;;   _LCD1602_WriteNum->_LCD1602_Pow
  1000 ;;   _LCD1602_WriteString->_LCD1602_WriteCommand
  1001 ;;   _LCD1602_WriteString->_LCD1602_WriteData
  1002 ;;   _LCD1602_Init->_LCD1602_WriteCommand
  1003 ;;   _LCD1602_Pow->___almod
  1004 ;;   _LCD1602_WriteData->_LCD1602_Delay
  1005 ;;   _LCD1602_WriteCommand->_LCD1602_Delay
  1006 ;;   _printf->___lwmod
  1007 ;;   ___aldiv->___lmul
  1008 ;;   ___almod->___aldiv
  1009 ;;   ___lwmod->___lwdiv
  1010 ;;
  1011 ;; Critical Paths under _Service in BANK1
  1012 ;;
  1013 ;;   None.
  1014 ;;
  1015 ;; Critical Paths under _main in BANK3
  1016 ;;
  1017 ;;   None.
  1018 ;;
  1019 ;; Critical Paths under _Service in BANK3
  1020 ;;
  1021 ;;   None.
  1022 ;;
  1023 ;; Critical Paths under _main in BANK2
  1024 ;;
  1025 ;;   None.
  1026 ;;
  1027 ;; Critical Paths under _Service in BANK2
  1028 ;;
  1029 ;;   None.
  1030                           
  1031 ;;
  1032 ;;Main: autosize = 0, tempsize = 3, incstack = 0, save=0
  1033 ;;
  1034                           
  1035 ;;
  1036 ;;Call Graph Tables:
  1037 ;;
  1038 ;; ---------------------------------------------------------------------------------
  1039 ;; (Depth) Function   	        Calls       Base Space   Used Autos Params    Refs
  1040 ;; ---------------------------------------------------------------------------------
  1041 ;; (0) _main                                                 3     3      0    2498
  1042 ;;                                             61 BANK1      3     3      0
  1043 ;;                  _LCD1602_GPIO_Init
  1044 ;;                       _LCD1602_Init
  1045 ;;                _LCD1602_WriteString
  1046 ;;                    _Usart_GPIO_Init
  1047 ;;                         _Usart_Init
  1048 ;;                    _Motor_GPIO_Init
  1049 ;;                 _Motor_CCP_PWM_Init
  1050 ;;                           _Delay_ms
  1051 ;;                             _printf
  1052 ;;                    _Motor_Speed_Set
  1053 ;;                       _Encoder_Init
  1054 ;;                   _Velociy_PID_Init
  1055 ;;                   _LCD1602_WriteNum
  1056 ;; ---------------------------------------------------------------------------------
  1057 ;; (1) _LCD1602_WriteNum                                     8     4      4    1162
  1058 ;;                                             53 BANK1      8     4      4
  1059 ;;               _LCD1602_WriteCommand
  1060 ;;                        _LCD1602_Pow
  1061 ;;                            ___aldiv
  1062 ;;                            ___almod
  1063 ;;                  _LCD1602_WriteData
  1064 ;; ---------------------------------------------------------------------------------
  1065 ;; (1) _LCD1602_WriteString                                  5     3      2     293
  1066 ;;                                              3 BANK1      5     3      2
  1067 ;;               _LCD1602_WriteCommand
  1068 ;;                  _LCD1602_WriteData
  1069 ;; ---------------------------------------------------------------------------------
  1070 ;; (1) _LCD1602_Init                                         0     0      0     114
  1071 ;;                      _LCD1602_Delay
  1072 ;;               _LCD1602_WriteCommand
  1073 ;; ---------------------------------------------------------------------------------
  1074 ;; (2) _LCD1602_Pow                                         14    10      4     206
  1075 ;;                                             39 BANK1     14    10      4
  1076 ;;                             ___lmul
  1077 ;;                            ___aldiv (ARG)
  1078 ;;                            ___almod (ARG)
  1079 ;; ---------------------------------------------------------------------------------
  1080 ;; (2) _LCD1602_WriteData                                    1     1      0      68
  1081 ;;                                              2 BANK1      1     1      0
  1082 ;;                      _LCD1602_Delay
  1083 ;; ---------------------------------------------------------------------------------
  1084 ;; (2) _LCD1602_WriteCommand                                 1     1      0      68
  1085 ;;                                              2 BANK1      1     1      0
  1086 ;;                      _LCD1602_Delay
  1087 ;; ---------------------------------------------------------------------------------
  1088 ;; (1) _printf                                              14    12      2     775
  1089 ;;                                             14 BANK1     14    12      2
  1090 ;;                              _putch
  1091 ;;                            ___lwdiv
  1092 ;;                            ___lwmod
  1093 ;; ---------------------------------------------------------------------------------
  1094 ;; (1) _Delay_ms                                             2     0      2      22
  1095 ;;                                              0 BANK1      2     0      2
  1096 ;; ---------------------------------------------------------------------------------
  1097 ;; (2) ___aldiv                                             15     7      8     300
  1098 ;;                                             13 BANK1     15     7      8
  1099 ;;                             ___lmul (ARG)
  1100 ;; ---------------------------------------------------------------------------------
  1101 ;; (2) ___almod                                             11     3      8     296
  1102 ;;                                             28 BANK1     11     3      8
  1103 ;;                            ___aldiv (ARG)
  1104 ;;                             ___lmul (ARG)
  1105 ;; ---------------------------------------------------------------------------------
  1106 ;; (3) ___lmul                                              13     5      8      92
  1107 ;;                                              0 BANK1     13     5      8
  1108 ;; ---------------------------------------------------------------------------------
  1109 ;; (2) ___lwmod                                              6     2      4     159
  1110 ;;                                              8 BANK1      6     2      4
  1111 ;;                            ___lwdiv (ARG)
  1112 ;; ---------------------------------------------------------------------------------
  1113 ;; (2) ___lwdiv                                              8     4      4     162
  1114 ;;                                              0 BANK1      8     4      4
  1115 ;; ---------------------------------------------------------------------------------
  1116 ;; (2) _putch                                                1     1      0      22
  1117 ;;                                              0 BANK1      1     1      0
  1118 ;; ---------------------------------------------------------------------------------
  1119 ;; (3) _LCD1602_Delay                                        2     2      0      46
  1120 ;;                                              0 BANK1      2     2      0
  1121 ;; ---------------------------------------------------------------------------------
  1122 ;; (1) _Velociy_PID_Init                                     0     0      0       0
  1123 ;; ---------------------------------------------------------------------------------
  1124 ;; (1) _Encoder_Init                                         0     0      0       0
  1125 ;; ---------------------------------------------------------------------------------
  1126 ;; (1) _Motor_CCP_PWM_Init                                   0     0      0       0
  1127 ;; ---------------------------------------------------------------------------------
  1128 ;; (1) _Motor_GPIO_Init                                      0     0      0       0
  1129 ;; ---------------------------------------------------------------------------------
  1130 ;; (1) _Usart_Init                                           0     0      0       0
  1131 ;; ---------------------------------------------------------------------------------
  1132 ;; (1) _Usart_GPIO_Init                                      0     0      0       0
  1133 ;; ---------------------------------------------------------------------------------
  1134 ;; (1) _LCD1602_GPIO_Init                                    0     0      0       0
  1135 ;; ---------------------------------------------------------------------------------
  1136 ;; (1) _Motor_Speed_Set                                      4     0      4     132
  1137 ;;                                              0 BANK1      4     0      4
  1138 ;; ---------------------------------------------------------------------------------
  1139 ;; Estimated maximum stack depth 3
  1140 ;; ---------------------------------------------------------------------------------
  1141 ;; (Depth) Function   	        Calls       Base Space   Used Autos Params    Refs
  1142 ;; ---------------------------------------------------------------------------------
  1143 ;; (4) _Service                                              6     6      0    3109
  1144 ;;                                             48 BANK0      6     6      0
  1145 ;;                         _Trace_Proc
  1146 ;;                _Trace_Write_Command
  1147 ;;                  i1_Motor_Speed_Set
  1148 ;;                       _Velocity_PID
  1149 ;; ---------------------------------------------------------------------------------
  1150 ;; (5) _Trace_Write_Command                                  0     0      0     180
  1151 ;;                           _I2CStart
  1152 ;;                        _I2CSendByte
  1153 ;;                         _I2CWaitAck
  1154 ;;                            _I2CStop
  1155 ;; ---------------------------------------------------------------------------------
  1156 ;; (6) _I2CWaitAck                                           2     2      0      45
  1157 ;;                                              1 COMMON     2     2      0
  1158 ;;                          _I2C_Delay
  1159 ;; ---------------------------------------------------------------------------------
  1160 ;; (6) _I2CSendByte                                          3     3      0      91
  1161 ;;                                              1 COMMON     3     3      0
  1162 ;;                          _I2C_Delay
  1163 ;; ---------------------------------------------------------------------------------
  1164 ;; (6) _I2CStop                                              0     0      0      22
  1165 ;;                          _I2C_Delay
  1166 ;; ---------------------------------------------------------------------------------
  1167 ;; (6) _I2CStart                                             0     0      0      22
  1168 ;;                          _I2C_Delay
  1169 ;; ---------------------------------------------------------------------------------
  1170 ;; (5) _Velocity_PID                                         9     5      4    2491
  1171 ;;                                             39 BANK0      9     5      4
  1172 ;;                           ___awtoft
  1173 ;;                            ___ftneg
  1174 ;;                            ___ftadd
  1175 ;;                            ___ftmul
  1176 ;;               _I_amplitude_limiting
  1177 ;;                            ___fttol
  1178 ;; ---------------------------------------------------------------------------------
  1179 ;; (6) ___awtoft                                             6     3      3     300
  1180 ;;                                              8 COMMON     6     3      3
  1181 ;;                           ___ftpack
  1182 ;; ---------------------------------------------------------------------------------
  1183 ;; (6) ___ftmul                                             16    10      6     535
  1184 ;;                                             23 BANK0     16    10      6
  1185 ;;                           ___ftpack
  1186 ;;                            ___ftadd (ARG)
  1187 ;;                            ___ftneg (ARG)
  1188 ;;                            ___fttol (ARG)
  1189 ;; ---------------------------------------------------------------------------------
  1190 ;; (6) ___ftadd                                             13     7      6    1049
  1191 ;;                                             10 BANK0     13     7      6
  1192 ;;                           ___ftpack
  1193 ;;                            ___ftneg (ARG)
  1194 ;;                            ___fttol (ARG)
  1195 ;; ---------------------------------------------------------------------------------
  1196 ;; (7) _I2C_Delay                                            1     1      0      22
  1197 ;;                                              0 COMMON     1     1      0
  1198 ;; ---------------------------------------------------------------------------------
  1199 ;; (5) i1_Motor_Speed_Set                                    4     0      4     438
  1200 ;;                                              0 COMMON     4     0      4
  1201 ;; ---------------------------------------------------------------------------------
  1202 ;; (6) ___ftneg                                              3     0      3      45
  1203 ;;                                              0 COMMON     3     0      3
  1204 ;; ---------------------------------------------------------------------------------
  1205 ;; (6) ___fttol                                             14    10      4     252
  1206 ;;                                              8 COMMON     4     0      4
  1207 ;;                                              0 BANK0     10    10      0
  1208 ;;                           ___ftpack (ARG)
  1209 ;; ---------------------------------------------------------------------------------
  1210 ;; (7) ___ftpack                                             8     3      5     209
  1211 ;;                                              0 COMMON     8     3      5
  1212 ;; ---------------------------------------------------------------------------------
  1213 ;; (6) _I_amplitude_limiting                                 4     3      1     176
  1214 ;;                                              0 COMMON     4     3      1
  1215 ;; ---------------------------------------------------------------------------------
  1216 ;; (5) _Trace_Proc                                           1     1      0       0
  1217 ;;                                              0 COMMON     1     1      0
  1218 ;; ---------------------------------------------------------------------------------
  1219 ;; Estimated maximum stack depth 7
  1220 ;; ---------------------------------------------------------------------------------
  1221                           
  1222 ;; Call Graph Graphs:
  1223                           
  1224 ;; _main (ROOT)
  1225 ;;   _LCD1602_GPIO_Init
  1226 ;;   _LCD1602_Init
  1227 ;;     _LCD1602_Delay
  1228 ;;     _LCD1602_WriteCommand
  1229 ;;       _LCD1602_Delay
  1230 ;;   _LCD1602_WriteString
  1231 ;;     _LCD1602_WriteCommand
  1232 ;;       _LCD1602_Delay
  1233 ;;     _LCD1602_WriteData
  1234 ;;       _LCD1602_Delay
  1235 ;;   _Usart_GPIO_Init
  1236 ;;   _Usart_Init
  1237 ;;   _Motor_GPIO_Init
  1238 ;;   _Motor_CCP_PWM_Init
  1239 ;;   _Delay_ms
  1240 ;;   _printf
  1241 ;;     _putch
  1242 ;;     ___lwdiv
  1243 ;;     ___lwmod
  1244 ;;       ___lwdiv (ARG)
  1245 ;;   _Motor_Speed_Set
  1246 ;;   _Encoder_Init
  1247 ;;   _Velociy_PID_Init
  1248 ;;   _LCD1602_WriteNum
  1249 ;;     _LCD1602_WriteCommand
  1250 ;;       _LCD1602_Delay
  1251 ;;     _LCD1602_Pow
  1252 ;;       ___lmul
  1253 ;;       ___aldiv (ARG)
  1254 ;;         ___lmul (ARG)
  1255 ;;       ___almod (ARG)
  1256 ;;         ___aldiv (ARG)
  1257 ;;           ___lmul (ARG)
  1258 ;;         ___lmul (ARG)
  1259 ;;     ___aldiv
  1260 ;;       ___lmul (ARG)
  1261 ;;     ___almod
  1262 ;;       ___aldiv (ARG)
  1263 ;;         ___lmul (ARG)
  1264 ;;       ___lmul (ARG)
  1265 ;;     _LCD1602_WriteData
  1266 ;;       _LCD1602_Delay
  1267 ;;
  1268 ;; _Service (ROOT)
  1269 ;;   _Trace_Proc
  1270 ;;   _Trace_Write_Command
  1271 ;;     _I2CStart
  1272 ;;       _I2C_Delay
  1273 ;;     _I2CSendByte
  1274 ;;       _I2C_Delay
  1275 ;;     _I2CWaitAck
  1276 ;;       _I2C_Delay
  1277 ;;     _I2CStop
  1278 ;;       _I2C_Delay
  1279 ;;   i1_Motor_Speed_Set
  1280 ;;   _Velocity_PID
  1281 ;;     ___awtoft
  1282 ;;       ___ftpack
  1283 ;;     ___ftneg
  1284 ;;     ___ftadd
  1285 ;;       ___ftpack
  1286 ;;       ___ftneg (ARG)
  1287 ;;       ___fttol (ARG)
  1288 ;;         ___ftpack (ARG)
  1289 ;;     ___ftmul
  1290 ;;       ___ftpack
  1291 ;;       ___ftadd (ARG)
  1292 ;;         ___ftpack
  1293 ;;         ___ftneg (ARG)
  1294 ;;         ___fttol (ARG)
  1295 ;;           ___ftpack (ARG)
  1296 ;;       ___ftneg (ARG)
  1297 ;;       ___fttol (ARG)
  1298 ;;         ___ftpack (ARG)
  1299 ;;     _I_amplitude_limiting
  1300 ;;     ___fttol
  1301 ;;       ___ftpack (ARG)
  1302 ;;
  1303                           
  1304 ;; Address spaces:
  1305                           
  1306 ;;Name               Size   Autos  Total    Cost      Usage
  1307 ;;BITCOMMON            E      0       0       0        0.0%
  1308 ;;EEDATA             100      0       0       0        0.0%
  1309 ;;NULL                 0      0       0       0        0.0%
  1310 ;;CODE                 0      0       0       0        0.0%
  1311 ;;COMMON               E      E       E       1      100.0%
  1312 ;;BITSFR0              0      0       0       1        0.0%
  1313 ;;SFR0                 0      0       0       1        0.0%
  1314 ;;BITSFR1              0      0       0       2        0.0%
  1315 ;;SFR1                 0      0       0       2        0.0%
  1316 ;;STACK                0      0       B       2        0.0%
  1317 ;;ABS                  0      0      BE       3        0.0%
  1318 ;;BITBANK0            50      0       1       4        1.3%
  1319 ;;BITSFR3              0      0       0       4        0.0%
  1320 ;;SFR3                 0      0       0       4        0.0%
  1321 ;;BANK0               50     36      4F       5       98.8%
  1322 ;;BITSFR2              0      0       0       5        0.0%
  1323 ;;SFR2                 0      0       0       5        0.0%
  1324 ;;BITBANK1            50      0       0       6        0.0%
  1325 ;;BANK1               50     40      49       7       91.3%
  1326 ;;BITBANK3            60      0       0       8        0.0%
  1327 ;;BANK3               60      0      18       9       25.0%
  1328 ;;BITBANK2            60      0       0      10        0.0%
  1329 ;;BANK2               60      0       0      11        0.0%
  1330 ;;DATA                 0      0      C9      12        0.0%
  1331                           
  1332                           	global	_main
  1333                           psect	maintext,global,class=CODE,delta=2
  1334                           global __pmaintext
  1335  03EF                     __pmaintext:
  1336                           
  1337 ;; *************** function _main *****************
  1338 ;; Defined at:
  1339 ;;		line 168 in file "D:\6_pic_project\00_Design_Flow_Car\User\Car_demo\Car_demo.c"
  1340 ;; Parameters:    Size  Location     Type
  1341 ;;		None
  1342 ;; Auto vars:     Size  Location     Type
  1343 ;;		None
  1344 ;; Return value:  Size  Location     Type
  1345 ;;		None               void
  1346 ;; Registers used:
  1347 ;;		wreg, fsr0l, fsr0h, status,2, status,0, btemp+1, pclath, cstack
  1348 ;; Tracked objects:
  1349 ;;		On entry : 17F/0
  1350 ;;		On exit  : 0/0
  1351 ;;		Unchanged: 0/0
  1352 ;; Data sizes:     COMMON   BANK0   BANK1   BANK3   BANK2
  1353 ;;      Params:         0       0       0       0       0
  1354 ;;      Locals:         0       0       0       0       0
  1355 ;;      Temps:          0       0       3       0       0
  1356 ;;      Totals:         0       0       3       0       0
  1357 ;;Total ram usage:        3 bytes
  1358 ;; Hardware stack levels required when called:    7
  1359 ;; This function calls:
  1360 ;;		_LCD1602_GPIO_Init
  1361 ;;		_LCD1602_Init
  1362 ;;		_LCD1602_WriteString
  1363 ;;		_Usart_GPIO_Init
  1364 ;;		_Usart_Init
  1365 ;;		_Motor_GPIO_Init
  1366 ;;		_Motor_CCP_PWM_Init
  1367 ;;		_Delay_ms
  1368 ;;		_printf
  1369 ;;		_Motor_Speed_Set
  1370 ;;		_Encoder_Init
  1371 ;;		_Velociy_PID_Init
  1372 ;;		_LCD1602_WriteNum
  1373 ;; This function is called by:
  1374 ;;		Startup code after reset
  1375 ;; This function uses a non-reentrant model
  1376 ;;
  1377                           psect	maintext
  1378                           	file	"D:\6_pic_project\00_Design_Flow_Car\User\Car_demo\Car_demo.c"
  1379                           	line	168
  1380                           	global	__size_of_main
  1381  0131                     	__size_of_main	equ	__end_of_main-_main
  1382                           	
  1383  03EF                     _main:	
  1384                           	opt	stack 1
  1385                           ; Regs used in _main: [wreg-fsr0h+status,2+status,0+btemp+1+pclath+cstack]
  1386                           	line	169
  1387                           	
  1388  03EF                     l13294:	
  1389                           ;Car_demo.c: 169: TRISB1=0;
  1390  03EF  1683               	bsf	status, 5	;RP0=1, select bank1
  1391  03F0  1303               	bcf	status, 6	;RP1=0, select bank1
  1392  03F1  1086               	bcf	(1073/8)^080h,(1073)&7
  1393                           	line	171
  1394                           ;Car_demo.c: 171: TRISA0=0;
  1395  03F2  1005               	bcf	(1064/8)^080h,(1064)&7
  1396                           	line	172
  1397                           ;Car_demo.c: 172: TRISA1=0;
  1398  03F3  1085               	bcf	(1065/8)^080h,(1065)&7
  1399                           	line	174
  1400                           ;Car_demo.c: 174: TRISE0=1;
  1401  03F4  1409               	bsf	(1096/8)^080h,(1096)&7
  1402                           	line	175
  1403                           ;Car_demo.c: 175: TRISE1=1;
  1404  03F5  1489               	bsf	(1097/8)^080h,(1097)&7
  1405                           	line	176
  1406                           ;Car_demo.c: 176: TRISE2=1;
  1407  03F6  1509               	bsf	(1098/8)^080h,(1098)&7
  1408                           	line	178
  1409                           ;Car_demo.c: 178: TRISA4=1;
  1410  03F7  1605               	bsf	(1068/8)^080h,(1068)&7
  1411                           	line	183
  1412                           	
  1413  03F8                     l13296:	
  1414                           ;Car_demo.c: 183: LCD1602_GPIO_Init();
  1415  03F8  120A  158A  21BE   	fcall	_LCD1602_GPIO_Init
              120A  118A         
  1416                           	line	184
  1417                           ;Car_demo.c: 184: LCD1602_Init();
  1418  03FD  120A  158A  232F   	fcall	_LCD1602_Init
              120A  118A         
  1419                           	line	185
  1420                           	
  1421  0402                     l13298:	
  1422                           ;Car_demo.c: 185: LCD1602_WriteString(1,0,"CAR 1");
  1423  0402  1683               	bsf	status, 5	;RP0=1, select bank1
  1424  0403  1303               	bcf	status, 6	;RP1=0, select bank1
  1425  0404  01A3               	clrf	(?_LCD1602_WriteString)^080h
  1426  0405  302F               	movlw	((STR_1-__stringbase))&0ffh
  1427  0406  00DD               	movwf	(??_main+0)^080h+0
  1428  0407  085D               	movf	(??_main+0)^080h+0,w
  1429  0408  00A4               	movwf	(0+?_LCD1602_WriteString+01h)^080h
  1430  0409  3001               	movlw	(01h)
  1431  040A  120A  158A  24A5   	fcall	_LCD1602_WriteString
              120A  118A         
  1432                           	line	186
  1433                           	
  1434  040F                     l13300:	
  1435                           ;Car_demo.c: 186: LCD1602_WriteString(2,0,"Speed:");
  1436  040F  1683               	bsf	status, 5	;RP0=1, select bank1
  1437  0410  1303               	bcf	status, 6	;RP1=0, select bank1
  1438  0411  01A3               	clrf	(?_LCD1602_WriteString)^080h
  1439  0412  3028               	movlw	((STR_2-__stringbase))&0ffh
  1440  0413  00DD               	movwf	(??_main+0)^080h+0
  1441  0414  085D               	movf	(??_main+0)^080h+0,w
  1442  0415  00A4               	movwf	(0+?_LCD1602_WriteString+01h)^080h
  1443  0416  3002               	movlw	(02h)
  1444  0417  120A  158A  24A5   	fcall	_LCD1602_WriteString
              120A  118A         
  1445                           	line	188
  1446                           	
  1447  041C                     l13302:	
  1448                           ;Car_demo.c: 188: Usart_GPIO_Init();
  1449  041C  120A  158A  21B1   	fcall	_Usart_GPIO_Init
              120A  118A         
  1450                           	line	189
  1451                           	
  1452  0421                     l13304:	
  1453                           ;Car_demo.c: 189: Usart_Init();
  1454  0421  120A  158A  21EA   	fcall	_Usart_Init
              120A  118A         
  1455                           	line	190
  1456                           ;Car_demo.c: 190: Motor_GPIO_Init();
  1457  0426  120A  158A  21C7   	fcall	_Motor_GPIO_Init
              120A  118A         
  1458                           	line	191
  1459                           	
  1460  042B                     l13306:	
  1461                           ;Car_demo.c: 191: Motor_CCP_PWM_Init();
  1462  042B  120A  158A  2244   	fcall	_Motor_CCP_PWM_Init
              120A  118A         
  1463                           	line	193
  1464                           	
  1465  0430                     l13308:	
  1466                           ;Car_demo.c: 193: Delay_ms(5000);
  1467  0430  3088               	movlw	low(01388h)
  1468  0431  1683               	bsf	status, 5	;RP0=1, select bank1
  1469  0432  1303               	bcf	status, 6	;RP1=0, select bank1
  1470  0433  00A0               	movwf	(?_Delay_ms)^080h
  1471  0434  3013               	movlw	high(01388h)
  1472  0435  00A1               	movwf	((?_Delay_ms)^080h)+1
  1473  0436  120A  158A  2284   	fcall	_Delay_ms
              120A  118A         
  1474                           	line	194
  1475                           	
  1476  043B                     l13310:	
  1477                           ;Car_demo.c: 194: printf("!\r\n");
  1478  043B  300B               	movlw	((STR_3-__stringbase))&0ffh
  1479  043C  120A  118A  2520   	fcall	_printf
              120A  118A         
  1480                           	line	195
  1481                           	
  1482  0441                     l13312:	
  1483                           ;Car_demo.c: 195: Motor_Speed_Set(PWM1,PWM2);
  1484  0441  1283               	bcf	status, 5	;RP0=0, select bank0
  1485  0442  1303               	bcf	status, 6	;RP1=0, select bank0
  1486  0443  085C               	movf	(_PWM1+1),w
  1487  0444  1683               	bsf	status, 5	;RP0=1, select bank1
  1488  0445  1303               	bcf	status, 6	;RP1=0, select bank1
  1489  0446  01A1               	clrf	(?_Motor_Speed_Set+1)^080h
  1490  0447  07A1               	addwf	(?_Motor_Speed_Set+1)^080h
  1491  0448  1283               	bcf	status, 5	;RP0=0, select bank0
  1492  0449  1303               	bcf	status, 6	;RP1=0, select bank0
  1493  044A  085B               	movf	(_PWM1),w
  1494  044B  1683               	bsf	status, 5	;RP0=1, select bank1
  1495  044C  1303               	bcf	status, 6	;RP1=0, select bank1
  1496  044D  01A0               	clrf	(?_Motor_Speed_Set)^080h
  1497  044E  07A0               	addwf	(?_Motor_Speed_Set)^080h
  1498                           
  1499  044F  1283               	bcf	status, 5	;RP0=0, select bank0
  1500  0450  1303               	bcf	status, 6	;RP1=0, select bank0
  1501  0451  085E               	movf	(_PWM2+1),w
  1502  0452  1683               	bsf	status, 5	;RP0=1, select bank1
  1503  0453  1303               	bcf	status, 6	;RP1=0, select bank1
  1504  0454  01A3               	clrf	1+(?_Motor_Speed_Set)^080h+02h
  1505  0455  07A3               	addwf	1+(?_Motor_Speed_Set)^080h+02h
  1506  0456  1283               	bcf	status, 5	;RP0=0, select bank0
  1507  0457  1303               	bcf	status, 6	;RP1=0, select bank0
  1508  0458  085D               	movf	(_PWM2),w
  1509  0459  1683               	bsf	status, 5	;RP0=1, select bank1
  1510  045A  1303               	bcf	status, 6	;RP1=0, select bank1
  1511  045B  01A2               	clrf	0+(?_Motor_Speed_Set)^080h+02h
  1512  045C  07A2               	addwf	0+(?_Motor_Speed_Set)^080h+02h
  1513                           
  1514  045D  120A  158A  2539   	fcall	_Motor_Speed_Set
              120A  118A         
  1515                           	line	196
  1516                           	
  1517  0462                     l13314:	
  1518                           ;Car_demo.c: 196: Encoder_Init();
  1519  0462  120A  158A  21DC   	fcall	_Encoder_Init
              120A  118A         
  1520                           	line	197
  1521                           	
  1522  0467                     l13316:	
  1523                           ;Car_demo.c: 197: Velociy_PID_Init();
  1524  0467  120A  158A  2258   	fcall	_Velociy_PID_Init
              120A  118A         
  1525  046C  2C6D               	goto	l13318
  1526                           	line	198
  1527                           ;Car_demo.c: 198: while(1)
  1528                           	
  1529  046D                     l777:	
  1530                           	line	203
  1531                           	
  1532  046D                     l13318:	
  1533                           ;Car_demo.c: 199: {
  1534                           ;Car_demo.c: 203: LCD1602_WriteNum(2,7,Speed,3);
  1535  046D  3007               	movlw	(07h)
  1536  046E  1683               	bsf	status, 5	;RP0=1, select bank1
  1537  046F  1303               	bcf	status, 6	;RP1=0, select bank1
  1538  0470  00DD               	movwf	(??_main+0)^080h+0
  1539  0471  085D               	movf	(??_main+0)^080h+0,w
  1540  0472  00D5               	movwf	(?_LCD1602_WriteNum)^080h
  1541  0473  1283               	bcf	status, 5	;RP0=0, select bank0
  1542  0474  1303               	bcf	status, 6	;RP1=0, select bank0
  1543  0475  0860               	movf	(_Speed+1),w
  1544  0476  1683               	bsf	status, 5	;RP0=1, select bank1
  1545  0477  1303               	bcf	status, 6	;RP1=0, select bank1
  1546  0478  01D7               	clrf	1+(?_LCD1602_WriteNum)^080h+01h
  1547  0479  07D7               	addwf	1+(?_LCD1602_WriteNum)^080h+01h
  1548  047A  1283               	bcf	status, 5	;RP0=0, select bank0
  1549  047B  1303               	bcf	status, 6	;RP1=0, select bank0
  1550  047C  085F               	movf	(_Speed),w
  1551  047D  1683               	bsf	status, 5	;RP0=1, select bank1
  1552  047E  1303               	bcf	status, 6	;RP1=0, select bank1
  1553  047F  01D6               	clrf	0+(?_LCD1602_WriteNum)^080h+01h
  1554  0480  07D6               	addwf	0+(?_LCD1602_WriteNum)^080h+01h
  1555                           
  1556  0481  3003               	movlw	(03h)
  1557  0482  00DE               	movwf	(??_main+1)^080h+0
  1558  0483  085E               	movf	(??_main+1)^080h+0,w
  1559  0484  00D8               	movwf	0+(?_LCD1602_WriteNum)^080h+03h
  1560  0485  3002               	movlw	(02h)
  1561  0486  120A  158A  25D6   	fcall	_LCD1602_WriteNum
              120A  118A         
  1562                           	line	204
  1563                           	
  1564  048B                     l13320:	
  1565                           ;Car_demo.c: 204: LCD1602_WriteNum(1,7,RE0,1);
  1566  048B  3007               	movlw	(07h)
  1567  048C  1683               	bsf	status, 5	;RP0=1, select bank1
  1568  048D  1303               	bcf	status, 6	;RP1=0, select bank1
  1569  048E  00DD               	movwf	(??_main+0)^080h+0
  1570  048F  085D               	movf	(??_main+0)^080h+0,w
  1571  0490  00D5               	movwf	(?_LCD1602_WriteNum)^080h
  1572  0491  1003               	clrc
  1573  0492  1283               	bcf	status, 5	;RP0=0, select bank0
  1574  0493  1303               	bcf	status, 6	;RP1=0, select bank0
  1575  0494  1809               	btfsc	(72/8),(72)&7
  1576  0495  1403               	setc
  1577  0496  3000               	movlw	0
  1578  0497  1803               	skipnc
  1579  0498  3001               	movlw	1
  1580                           
  1581  0499  1683               	bsf	status, 5	;RP0=1, select bank1
  1582  049A  1303               	bcf	status, 6	;RP1=0, select bank1
  1583  049B  00DE               	movwf	(??_main+1)^080h+0
  1584  049C  01DF               	clrf	(??_main+1)^080h+0+1
  1585  049D  085E               	movf	0+(??_main+1)^080h+0,w
  1586  049E  00D6               	movwf	0+(?_LCD1602_WriteNum)^080h+01h
  1587  049F  085F               	movf	1+(??_main+1)^080h+0,w
  1588  04A0  00D7               	movwf	1+(?_LCD1602_WriteNum)^080h+01h
  1589  04A1  01D8               	clrf	0+(?_LCD1602_WriteNum)^080h+03h
  1590  04A2  1403               	bsf	status,0
  1591  04A3  0DD8               	rlf	0+(?_LCD1602_WriteNum)^080h+03h,f
  1592  04A4  3001               	movlw	(01h)
  1593  04A5  120A  158A  25D6   	fcall	_LCD1602_WriteNum
              120A  118A         
  1594                           	line	205
  1595                           	
  1596  04AA                     l13322:	
  1597                           ;Car_demo.c: 205: LCD1602_WriteNum(1,8,RE1,1);
  1598  04AA  3008               	movlw	(08h)
  1599  04AB  1683               	bsf	status, 5	;RP0=1, select bank1
  1600  04AC  1303               	bcf	status, 6	;RP1=0, select bank1
  1601  04AD  00DD               	movwf	(??_main+0)^080h+0
  1602  04AE  085D               	movf	(??_main+0)^080h+0,w
  1603  04AF  00D5               	movwf	(?_LCD1602_WriteNum)^080h
  1604  04B0  1003               	clrc
  1605  04B1  1283               	bcf	status, 5	;RP0=0, select bank0
  1606  04B2  1303               	bcf	status, 6	;RP1=0, select bank0
  1607  04B3  1889               	btfsc	(73/8),(73)&7
  1608  04B4  1403               	setc
  1609  04B5  3000               	movlw	0
  1610  04B6  1803               	skipnc
  1611  04B7  3001               	movlw	1
  1612                           
  1613  04B8  1683               	bsf	status, 5	;RP0=1, select bank1
  1614  04B9  1303               	bcf	status, 6	;RP1=0, select bank1
  1615  04BA  00DE               	movwf	(??_main+1)^080h+0
  1616  04BB  01DF               	clrf	(??_main+1)^080h+0+1
  1617  04BC  085E               	movf	0+(??_main+1)^080h+0,w
  1618  04BD  00D6               	movwf	0+(?_LCD1602_WriteNum)^080h+01h
  1619  04BE  085F               	movf	1+(??_main+1)^080h+0,w
  1620  04BF  00D7               	movwf	1+(?_LCD1602_WriteNum)^080h+01h
  1621  04C0  01D8               	clrf	0+(?_LCD1602_WriteNum)^080h+03h
  1622  04C1  1403               	bsf	status,0
  1623  04C2  0DD8               	rlf	0+(?_LCD1602_WriteNum)^080h+03h,f
  1624  04C3  3001               	movlw	(01h)
  1625  04C4  120A  158A  25D6   	fcall	_LCD1602_WriteNum
              120A  118A         
  1626                           	line	206
  1627                           	
  1628  04C9                     l13324:	
  1629                           ;Car_demo.c: 206: LCD1602_WriteNum(1,9,RE2,1);
  1630  04C9  3009               	movlw	(09h)
  1631  04CA  1683               	bsf	status, 5	;RP0=1, select bank1
  1632  04CB  1303               	bcf	status, 6	;RP1=0, select bank1
  1633  04CC  00DD               	movwf	(??_main+0)^080h+0
  1634  04CD  085D               	movf	(??_main+0)^080h+0,w
  1635  04CE  00D5               	movwf	(?_LCD1602_WriteNum)^080h
  1636  04CF  1003               	clrc
  1637  04D0  1283               	bcf	status, 5	;RP0=0, select bank0
  1638  04D1  1303               	bcf	status, 6	;RP1=0, select bank0
  1639  04D2  1909               	btfsc	(74/8),(74)&7
  1640  04D3  1403               	setc
  1641  04D4  3000               	movlw	0
  1642  04D5  1803               	skipnc
  1643  04D6  3001               	movlw	1
  1644                           
  1645  04D7  1683               	bsf	status, 5	;RP0=1, select bank1
  1646  04D8  1303               	bcf	status, 6	;RP1=0, select bank1
  1647  04D9  00DE               	movwf	(??_main+1)^080h+0
  1648  04DA  01DF               	clrf	(??_main+1)^080h+0+1
  1649  04DB  085E               	movf	0+(??_main+1)^080h+0,w
  1650  04DC  00D6               	movwf	0+(?_LCD1602_WriteNum)^080h+01h
  1651  04DD  085F               	movf	1+(??_main+1)^080h+0,w
  1652  04DE  00D7               	movwf	1+(?_LCD1602_WriteNum)^080h+01h
  1653  04DF  01D8               	clrf	0+(?_LCD1602_WriteNum)^080h+03h
  1654  04E0  1403               	bsf	status,0
  1655  04E1  0DD8               	rlf	0+(?_LCD1602_WriteNum)^080h+03h,f
  1656  04E2  3001               	movlw	(01h)
  1657  04E3  120A  158A  25D6   	fcall	_LCD1602_WriteNum
              120A  118A         
  1658                           	line	207
  1659                           	
  1660  04E8                     l13326:	
  1661                           ;Car_demo.c: 207: LCD1602_WriteNum(1,10,RA4,1);
  1662  04E8  300A               	movlw	(0Ah)
  1663  04E9  1683               	bsf	status, 5	;RP0=1, select bank1
  1664  04EA  1303               	bcf	status, 6	;RP1=0, select bank1
  1665  04EB  00DD               	movwf	(??_main+0)^080h+0
  1666  04EC  085D               	movf	(??_main+0)^080h+0,w
  1667  04ED  00D5               	movwf	(?_LCD1602_WriteNum)^080h
  1668  04EE  1003               	clrc
  1669  04EF  1283               	bcf	status, 5	;RP0=0, select bank0
  1670  04F0  1303               	bcf	status, 6	;RP1=0, select bank0
  1671  04F1  1A05               	btfsc	(44/8),(44)&7
  1672  04F2  1403               	setc
  1673  04F3  3000               	movlw	0
  1674  04F4  1803               	skipnc
  1675  04F5  3001               	movlw	1
  1676                           
  1677  04F6  1683               	bsf	status, 5	;RP0=1, select bank1
  1678  04F7  1303               	bcf	status, 6	;RP1=0, select bank1
  1679  04F8  00DE               	movwf	(??_main+1)^080h+0
  1680  04F9  01DF               	clrf	(??_main+1)^080h+0+1
  1681  04FA  085E               	movf	0+(??_main+1)^080h+0,w
  1682  04FB  00D6               	movwf	0+(?_LCD1602_WriteNum)^080h+01h
  1683  04FC  085F               	movf	1+(??_main+1)^080h+0,w
  1684  04FD  00D7               	movwf	1+(?_LCD1602_WriteNum)^080h+01h
  1685  04FE  01D8               	clrf	0+(?_LCD1602_WriteNum)^080h+03h
  1686  04FF  1403               	bsf	status,0
  1687  0500  0DD8               	rlf	0+(?_LCD1602_WriteNum)^080h+03h,f
  1688  0501  3001               	movlw	(01h)
  1689  0502  120A  158A  25D6   	fcall	_LCD1602_WriteNum
              120A  118A         
  1690                           	line	208
  1691                           	
  1692  0507                     l13328:	
  1693                           ;Car_demo.c: 208: printf("Speed:%d\r\n",(unsigned int)Speed);
  1694  0507  1283               	bcf	status, 5	;RP0=0, select bank0
  1695  0508  1303               	bcf	status, 6	;RP1=0, select bank0
  1696  0509  0860               	movf	(_Speed+1),w
  1697  050A  1683               	bsf	status, 5	;RP0=1, select bank1
  1698  050B  1303               	bcf	status, 6	;RP1=0, select bank1
  1699  050C  01AF               	clrf	(?_printf+1)^080h
  1700  050D  07AF               	addwf	(?_printf+1)^080h
  1701  050E  1283               	bcf	status, 5	;RP0=0, select bank0
  1702  050F  1303               	bcf	status, 6	;RP1=0, select bank0
  1703  0510  085F               	movf	(_Speed),w
  1704  0511  1683               	bsf	status, 5	;RP0=1, select bank1
  1705  0512  1303               	bcf	status, 6	;RP1=0, select bank1
  1706  0513  01AE               	clrf	(?_printf)^080h
  1707  0514  07AE               	addwf	(?_printf)^080h
  1708                           
  1709  0515  301D               	movlw	((STR_4-__stringbase))&0ffh
  1710  0516  120A  118A  2520   	fcall	_printf
              120A  118A         
  1711  051B  2C6D               	goto	l13318
  1712                           	line	209
  1713                           	
  1714  051C                     l778:	
  1715                           	line	198
  1716  051C  2C6D               	goto	l13318
  1717                           	
  1718  051D                     l779:	
  1719                           	line	210
  1720                           	
  1721  051D                     l780:	
  1722                           	global	start
  1723  051D  120A  118A  2812   	ljmp	start
  1724                           	opt stack 0
  1725                           GLOBAL	__end_of_main
  1726  0520                     	__end_of_main:
  1727 ;; =============== function _main ends ============
  1728                           
  1729                           	signat	_main,88
  1730                           	global	_LCD1602_WriteNum
  1731                           psect	text1020,local,class=CODE,delta=2
  1732                           global __ptext1020
  1733  0DD6                     __ptext1020:
  1734                           
  1735 ;; *************** function _LCD1602_WriteNum *****************
  1736 ;; Defined at:
  1737 ;;		line 127 in file "D:\6_pic_project\00_Design_Flow_Car\Driver\LCD1602.c"
  1738 ;; Parameters:    Size  Location     Type
  1739 ;;  row             1    wreg     unsigned char 
  1740 ;;  column          1   53[BANK1 ] unsigned char 
  1741 ;;  number          2   54[BANK1 ] unsigned int 
  1742 ;;  lenth           1   56[BANK1 ] unsigned char 
  1743 ;; Auto vars:     Size  Location     Type
  1744 ;;  row             1   59[BANK1 ] unsigned char 
  1745 ;;  i               1   60[BANK1 ] unsigned char 
  1746 ;;  Location        1   58[BANK1 ] unsigned char 
  1747 ;; Return value:  Size  Location     Type
  1748 ;;		None               void
  1749 ;; Registers used:
  1750 ;;		wreg, status,2, status,0, pclath, cstack
  1751 ;; Tracked objects:
  1752 ;;		On entry : 0/0
  1753 ;;		On exit  : 0/0
  1754 ;;		Unchanged: 0/0
  1755 ;; Data sizes:     COMMON   BANK0   BANK1   BANK3   BANK2
  1756 ;;      Params:         0       0       4       0       0
  1757 ;;      Locals:         0       0       3       0       0
  1758 ;;      Temps:          0       0       1       0       0
  1759 ;;      Totals:         0       0       8       0       0
  1760 ;;Total ram usage:        8 bytes
  1761 ;; Hardware stack levels used:    1
  1762 ;; Hardware stack levels required when called:    6
  1763 ;; This function calls:
  1764 ;;		_LCD1602_WriteCommand
  1765 ;;		_LCD1602_Pow
  1766 ;;		___aldiv
  1767 ;;		___almod
  1768 ;;		_LCD1602_WriteData
  1769 ;; This function is called by:
  1770 ;;		_main
  1771 ;; This function uses a non-reentrant model
  1772 ;;
  1773                           psect	text1020
  1774                           	file	"D:\6_pic_project\00_Design_Flow_Car\Driver\LCD1602.c"
  1775                           	line	127
  1776                           	global	__size_of_LCD1602_WriteNum
  1777  0077                     	__size_of_LCD1602_WriteNum	equ	__end_of_LCD1602_WriteNum-_LCD1602_WriteNum
  1778                           	
  1779  0DD6                     _LCD1602_WriteNum:	
  1780                           	opt	stack 1
  1781                           ; Regs used in _LCD1602_WriteNum: [wreg+status,2+status,0+pclath+cstack]
  1782                           ;LCD1602_WriteNum@row stored from wreg
  1783                           	line	130
  1784  0DD6  1683               	bsf	status, 5	;RP0=1, select bank1
  1785  0DD7  1303               	bcf	status, 6	;RP1=0, select bank1
  1786  0DD8  00DB               	movwf	(LCD1602_WriteNum@row)^080h
  1787                           	
  1788  0DD9                     l13276:	
  1789                           ;LCD1602.c: 128: unsigned char Location;
  1790                           ;LCD1602.c: 129: unsigned char i;
  1791                           ;LCD1602.c: 130: if(row == 1)
  1792  0DD9  085B               	movf	(LCD1602_WriteNum@row)^080h,w
  1793  0DDA  3A01               	xorlw	01h
  1794  0DDB  1D03               	skipz
  1795  0DDC  2DDE               	goto	u5351
  1796  0DDD  2DDF               	goto	u5350
  1797  0DDE                     u5351:
  1798  0DDE  2DE5               	goto	l13280
  1799  0DDF                     u5350:
  1800                           	line	132
  1801                           	
  1802  0DDF                     l13278:	
  1803                           ;LCD1602.c: 131: {
  1804                           ;LCD1602.c: 132: Location = 0x80 + column;
  1805  0DDF  0855               	movf	(LCD1602_WriteNum@column)^080h,w
  1806  0DE0  3E80               	addlw	080h
  1807  0DE1  00D9               	movwf	(??_LCD1602_WriteNum+0)^080h+0
  1808  0DE2  0859               	movf	(??_LCD1602_WriteNum+0)^080h+0,w
  1809  0DE3  00DA               	movwf	(LCD1602_WriteNum@Location)^080h
  1810                           	line	133
  1811                           ;LCD1602.c: 133: }
  1812  0DE4  2DF2               	goto	l13284
  1813                           	line	134
  1814                           	
  1815  0DE5                     l1500:	
  1816                           	
  1817  0DE5                     l13280:	
  1818                           ;LCD1602.c: 134: else if(row == 2)
  1819  0DE5  085B               	movf	(LCD1602_WriteNum@row)^080h,w
  1820  0DE6  3A02               	xorlw	02h
  1821  0DE7  1D03               	skipz
  1822  0DE8  2DEA               	goto	u5361
  1823  0DE9  2DEB               	goto	u5360
  1824  0DEA                     u5361:
  1825  0DEA  2DF2               	goto	l13284
  1826  0DEB                     u5360:
  1827                           	line	136
  1828                           	
  1829  0DEB                     l13282:	
  1830                           ;LCD1602.c: 135: {
  1831                           ;LCD1602.c: 136: Location = 0xC0 + column;
  1832  0DEB  0855               	movf	(LCD1602_WriteNum@column)^080h,w
  1833  0DEC  3EC0               	addlw	0C0h
  1834  0DED  00D9               	movwf	(??_LCD1602_WriteNum+0)^080h+0
  1835  0DEE  0859               	movf	(??_LCD1602_WriteNum+0)^080h+0,w
  1836  0DEF  00DA               	movwf	(LCD1602_WriteNum@Location)^080h
  1837  0DF0  2DF2               	goto	l13284
  1838                           	line	137
  1839                           	
  1840  0DF1                     l1502:	
  1841  0DF1  2DF2               	goto	l13284
  1842                           	line	139
  1843                           	
  1844  0DF2                     l1501:	
  1845                           	
  1846  0DF2                     l13284:	
  1847                           ;LCD1602.c: 137: }
  1848                           ;LCD1602.c: 139: LCD1602_WriteCommand(Location);
  1849  0DF2  085A               	movf	(LCD1602_WriteNum@Location)^080h,w
  1850  0DF3  120A  158A  220A   	fcall	_LCD1602_WriteCommand
              120A  158A         
  1851                           	line	141
  1852                           	
  1853  0DF8                     l13286:	
  1854                           ;LCD1602.c: 141: for(i=0;i<lenth;i++)
  1855  0DF8  1683               	bsf	status, 5	;RP0=1, select bank1
  1856  0DF9  1303               	bcf	status, 6	;RP1=0, select bank1
  1857  0DFA  01DC               	clrf	(LCD1602_WriteNum@i)^080h
  1858  0DFB  2E45               	goto	l13292
  1859                           	line	142
  1860                           	
  1861  0DFC                     l1504:	
  1862                           	line	143
  1863                           	
  1864  0DFC                     l13288:	
  1865                           ;LCD1602.c: 142: {
  1866                           ;LCD1602.c: 143: LCD1602_WriteData(number/LCD1602_Pow(10,lenth-i-1)%10+'0');
  1867  0DFC  3000               	movlw	0
  1868  0DFD  00BF               	movwf	(?___almod+3)^080h
  1869  0DFE  3000               	movlw	0
  1870  0DFF  00BE               	movwf	(?___almod+2)^080h
  1871  0E00  3000               	movlw	0
  1872  0E01  00BD               	movwf	(?___almod+1)^080h
  1873  0E02  300A               	movlw	0Ah
  1874  0E03  00BC               	movwf	(?___almod)^080h
  1875                           
  1876  0E04  035C               	decf	(LCD1602_WriteNum@i)^080h,w
  1877  0E05  3AFF               	xorlw	0ffh
  1878  0E06  0758               	addwf	(LCD1602_WriteNum@lenth)^080h,w
  1879  0E07  3EFF               	addlw	0FFh
  1880  0E08  00D9               	movwf	(??_LCD1602_WriteNum+0)^080h+0
  1881  0E09  0859               	movf	(??_LCD1602_WriteNum+0)^080h+0,w
  1882  0E0A  00C7               	movwf	(?_LCD1602_Pow)^080h
  1883  0E0B  300A               	movlw	(0Ah)
  1884  0E0C  120A  158A  245E   	fcall	_LCD1602_Pow
              120A  158A         
  1885  0E11  1683               	bsf	status, 5	;RP0=1, select bank1
  1886  0E12  1303               	bcf	status, 6	;RP1=0, select bank1
  1887  0E13  084A               	movf	(3+(?_LCD1602_Pow))^080h,w
  1888  0E14  00B0               	movwf	(?___aldiv+3)^080h
  1889  0E15  0849               	movf	(2+(?_LCD1602_Pow))^080h,w
  1890  0E16  00AF               	movwf	(?___aldiv+2)^080h
  1891  0E17  0848               	movf	(1+(?_LCD1602_Pow))^080h,w
  1892  0E18  00AE               	movwf	(?___aldiv+1)^080h
  1893  0E19  0847               	movf	(0+(?_LCD1602_Pow))^080h,w
  1894  0E1A  00AD               	movwf	(?___aldiv)^080h
  1895                           
  1896  0E1B  0856               	movf	(LCD1602_WriteNum@number)^080h,w
  1897  0E1C  00B1               	movwf	0+(?___aldiv)^080h+04h
  1898  0E1D  0857               	movf	(LCD1602_WriteNum@number+1)^080h,w
  1899  0E1E  00B2               	movwf	(0+(?___aldiv)^080h+04h)+1
  1900  0E1F  01B3               	clrf	2+(0+(?___aldiv)^080h+04h)
  1901  0E20  01B4               	clrf	3+(0+(?___aldiv)^080h+04h)
  1902  0E21  120A  118A  2719   	fcall	___aldiv
              120A  158A         
  1903  0E26  1683               	bsf	status, 5	;RP0=1, select bank1
  1904  0E27  1303               	bcf	status, 6	;RP1=0, select bank1
  1905  0E28  0830               	movf	(3+(?___aldiv))^080h,w
  1906  0E29  00C3               	movwf	3+(?___almod)^080h+04h
  1907  0E2A  082F               	movf	(2+(?___aldiv))^080h,w
  1908  0E2B  00C2               	movwf	2+(?___almod)^080h+04h
  1909  0E2C  082E               	movf	(1+(?___aldiv))^080h,w
  1910  0E2D  00C1               	movwf	1+(?___almod)^080h+04h
  1911  0E2E  082D               	movf	(0+(?___aldiv))^080h,w
  1912  0E2F  00C0               	movwf	0+(?___almod)^080h+04h
  1913                           
  1914  0E30  120A  158A  26C8   	fcall	___almod
              120A  158A         
  1915  0E35  1683               	bsf	status, 5	;RP0=1, select bank1
  1916  0E36  1303               	bcf	status, 6	;RP1=0, select bank1
  1917  0E37  083C               	movf	0+(((0+(?___almod))^080h)),w
  1918  0E38  3E30               	addlw	030h
  1919  0E39  120A  158A  221D   	fcall	_LCD1602_WriteData
              120A  158A         
  1920                           	line	141
  1921                           	
  1922  0E3E                     l13290:	
  1923  0E3E  3001               	movlw	(01h)
  1924  0E3F  1683               	bsf	status, 5	;RP0=1, select bank1
  1925  0E40  1303               	bcf	status, 6	;RP1=0, select bank1
  1926  0E41  00D9               	movwf	(??_LCD1602_WriteNum+0)^080h+0
  1927  0E42  0859               	movf	(??_LCD1602_WriteNum+0)^080h+0,w
  1928  0E43  07DC               	addwf	(LCD1602_WriteNum@i)^080h,f
  1929  0E44  2E45               	goto	l13292
  1930                           	
  1931  0E45                     l1503:	
  1932                           	
  1933  0E45                     l13292:	
  1934  0E45  0858               	movf	(LCD1602_WriteNum@lenth)^080h,w
  1935  0E46  025C               	subwf	(LCD1602_WriteNum@i)^080h,w
  1936  0E47  1C03               	skipc
  1937  0E48  2E4A               	goto	u5371
  1938  0E49  2E4B               	goto	u5370
  1939  0E4A                     u5371:
  1940  0E4A  2DFC               	goto	l13288
  1941  0E4B                     u5370:
  1942  0E4B  2E4C               	goto	l1506
  1943                           	
  1944  0E4C                     l1505:	
  1945                           	line	146
  1946                           	
  1947  0E4C                     l1506:	
  1948  0E4C  0008               	return
  1949                           	opt stack 0
  1950                           GLOBAL	__end_of_LCD1602_WriteNum
  1951  0E4D                     	__end_of_LCD1602_WriteNum:
  1952 ;; =============== function _LCD1602_WriteNum ends ============
  1953                           
  1954                           	signat	_LCD1602_WriteNum,16504
  1955                           	global	_LCD1602_WriteString
  1956                           psect	text1021,local,class=CODE,delta=2
  1957                           global __ptext1021
  1958  0CA5                     __ptext1021:
  1959                           
  1960 ;; *************** function _LCD1602_WriteString *****************
  1961 ;; Defined at:
  1962 ;;		line 84 in file "D:\6_pic_project\00_Design_Flow_Car\Driver\LCD1602.c"
  1963 ;; Parameters:    Size  Location     Type
  1964 ;;  row             1    wreg     unsigned char 
  1965 ;;  column          1    3[BANK1 ] unsigned char 
  1966 ;;  String          1    4[BANK1 ] PTR unsigned char 
  1967 ;;		 -> STR_2(7), STR_1(6), 
  1968 ;; Auto vars:     Size  Location     Type
  1969 ;;  row             1    7[BANK1 ] unsigned char 
  1970 ;;  Location        1    6[BANK1 ] unsigned char 
  1971 ;; Return value:  Size  Location     Type
  1972 ;;		None               void
  1973 ;; Registers used:
  1974 ;;		wreg, fsr0l, fsr0h, status,2, status,0, pclath, cstack
  1975 ;; Tracked objects:
  1976 ;;		On entry : 0/0
  1977 ;;		On exit  : 0/0
  1978 ;;		Unchanged: 0/0
  1979 ;; Data sizes:     COMMON   BANK0   BANK1   BANK3   BANK2
  1980 ;;      Params:         0       0       2       0       0
  1981 ;;      Locals:         0       0       2       0       0
  1982 ;;      Temps:          0       0       1       0       0
  1983 ;;      Totals:         0       0       5       0       0
  1984 ;;Total ram usage:        5 bytes
  1985 ;; Hardware stack levels used:    1
  1986 ;; Hardware stack levels required when called:    6
  1987 ;; This function calls:
  1988 ;;		_LCD1602_WriteCommand
  1989 ;;		_LCD1602_WriteData
  1990 ;; This function is called by:
  1991 ;;		_main
  1992 ;; This function uses a non-reentrant model
  1993 ;;
  1994                           psect	text1021
  1995                           	file	"D:\6_pic_project\00_Design_Flow_Car\Driver\LCD1602.c"
  1996                           	line	84
  1997                           	global	__size_of_LCD1602_WriteString
  1998  0048                     	__size_of_LCD1602_WriteString	equ	__end_of_LCD1602_WriteString-_LCD1602_WriteString
  1999                           	
  2000  0CA5                     _LCD1602_WriteString:	
  2001                           	opt	stack 1
  2002                           ; Regs used in _LCD1602_WriteString: [wreg-fsr0h+status,2+status,0+pclath+cstack]
  2003                           ;LCD1602_WriteString@row stored from wreg
  2004                           	line	86
  2005  0CA5  1683               	bsf	status, 5	;RP0=1, select bank1
  2006  0CA6  1303               	bcf	status, 6	;RP1=0, select bank1
  2007  0CA7  00A7               	movwf	(LCD1602_WriteString@row)^080h
  2008                           	
  2009  0CA8                     l13260:	
  2010                           ;LCD1602.c: 85: unsigned char Location;
  2011                           ;LCD1602.c: 86: if(row == 1)
  2012  0CA8  0827               	movf	(LCD1602_WriteString@row)^080h,w
  2013  0CA9  3A01               	xorlw	01h
  2014  0CAA  1D03               	skipz
  2015  0CAB  2CAD               	goto	u5321
  2016  0CAC  2CAE               	goto	u5320
  2017  0CAD                     u5321:
  2018  0CAD  2CB4               	goto	l13264
  2019  0CAE                     u5320:
  2020                           	line	88
  2021                           	
  2022  0CAE                     l13262:	
  2023                           ;LCD1602.c: 87: {
  2024                           ;LCD1602.c: 88: Location = 0x80 + column;
  2025  0CAE  0823               	movf	(LCD1602_WriteString@column)^080h,w
  2026  0CAF  3E80               	addlw	080h
  2027  0CB0  00A5               	movwf	(??_LCD1602_WriteString+0)^080h+0
  2028  0CB1  0825               	movf	(??_LCD1602_WriteString+0)^080h+0,w
  2029  0CB2  00A6               	movwf	(LCD1602_WriteString@Location)^080h
  2030                           	line	89
  2031                           ;LCD1602.c: 89: }
  2032  0CB3  2CC1               	goto	l13268
  2033                           	line	90
  2034                           	
  2035  0CB4                     l1485:	
  2036                           	
  2037  0CB4                     l13264:	
  2038                           ;LCD1602.c: 90: else if(row == 2)
  2039  0CB4  0827               	movf	(LCD1602_WriteString@row)^080h,w
  2040  0CB5  3A02               	xorlw	02h
  2041  0CB6  1D03               	skipz
  2042  0CB7  2CB9               	goto	u5331
  2043  0CB8  2CBA               	goto	u5330
  2044  0CB9                     u5331:
  2045  0CB9  2CC1               	goto	l13268
  2046  0CBA                     u5330:
  2047                           	line	92
  2048                           	
  2049  0CBA                     l13266:	
  2050                           ;LCD1602.c: 91: {
  2051                           ;LCD1602.c: 92: Location = 0xC0 + column;
  2052  0CBA  0823               	movf	(LCD1602_WriteString@column)^080h,w
  2053  0CBB  3EC0               	addlw	0C0h
  2054  0CBC  00A5               	movwf	(??_LCD1602_WriteString+0)^080h+0
  2055  0CBD  0825               	movf	(??_LCD1602_WriteString+0)^080h+0,w
  2056  0CBE  00A6               	movwf	(LCD1602_WriteString@Location)^080h
  2057  0CBF  2CC1               	goto	l13268
  2058                           	line	93
  2059                           	
  2060  0CC0                     l1487:	
  2061  0CC0  2CC1               	goto	l13268
  2062                           	line	94
  2063                           	
  2064  0CC1                     l1486:	
  2065                           	
  2066  0CC1                     l13268:	
  2067                           ;LCD1602.c: 93: }
  2068                           ;LCD1602.c: 94: LCD1602_WriteCommand(Location);
  2069  0CC1  0826               	movf	(LCD1602_WriteString@Location)^080h,w
  2070  0CC2  120A  158A  220A   	fcall	_LCD1602_WriteCommand
              120A  158A         
  2071                           	line	97
  2072                           ;LCD1602.c: 97: while(*String != '\0')
  2073  0CC7  2CDD               	goto	l13274
  2074                           	
  2075  0CC8                     l1489:	
  2076                           	line	99
  2077                           	
  2078  0CC8                     l13270:	
  2079                           ;LCD1602.c: 98: {
  2080                           ;LCD1602.c: 99: LCD1602_WriteData(*String++);
  2081  0CC8  1683               	bsf	status, 5	;RP0=1, select bank1
  2082  0CC9  1303               	bcf	status, 6	;RP1=0, select bank1
  2083  0CCA  0824               	movf	(LCD1602_WriteString@String)^080h,w
  2084  0CCB  0084               	movwf	fsr0
  2085  0CCC  120A  158A  2000   	fcall	stringdir
              120A  158A         
  2086  0CD1  120A  158A  221D   	fcall	_LCD1602_WriteData
              120A  158A         
  2087                           	
  2088  0CD6                     l13272:	
  2089  0CD6  3001               	movlw	(01h)
  2090  0CD7  1683               	bsf	status, 5	;RP0=1, select bank1
  2091  0CD8  1303               	bcf	status, 6	;RP1=0, select bank1
  2092  0CD9  00A5               	movwf	(??_LCD1602_WriteString+0)^080h+0
  2093  0CDA  0825               	movf	(??_LCD1602_WriteString+0)^080h+0,w
  2094  0CDB  07A4               	addwf	(LCD1602_WriteString@String)^080h,f
  2095  0CDC  2CDD               	goto	l13274
  2096                           	line	100
  2097                           	
  2098  0CDD                     l1488:	
  2099                           	line	97
  2100                           	
  2101  0CDD                     l13274:	
  2102  0CDD  1683               	bsf	status, 5	;RP0=1, select bank1
  2103  0CDE  1303               	bcf	status, 6	;RP1=0, select bank1
  2104  0CDF  0824               	movf	(LCD1602_WriteString@String)^080h,w
  2105  0CE0  0084               	movwf	fsr0
  2106  0CE1  120A  158A  2000   	fcall	stringdir
              120A  158A         
  2107  0CE6  3800               	iorlw	0
  2108  0CE7  1D03               	skipz
  2109  0CE8  2CEA               	goto	u5341
  2110  0CE9  2CEB               	goto	u5340
  2111  0CEA                     u5341:
  2112  0CEA  2CC8               	goto	l13270
  2113  0CEB                     u5340:
  2114  0CEB  2CEC               	goto	l1491
  2115                           	
  2116  0CEC                     l1490:	
  2117                           	line	101
  2118                           	
  2119  0CEC                     l1491:	
  2120  0CEC  0008               	return
  2121                           	opt stack 0
  2122                           GLOBAL	__end_of_LCD1602_WriteString
  2123  0CED                     	__end_of_LCD1602_WriteString:
  2124 ;; =============== function _LCD1602_WriteString ends ============
  2125                           
  2126                           	signat	_LCD1602_WriteString,12408
  2127                           	global	_LCD1602_Init
  2128                           psect	text1022,local,class=CODE,delta=2
  2129                           global __ptext1022
  2130  0B2F                     __ptext1022:
  2131                           
  2132 ;; *************** function _LCD1602_Init *****************
  2133 ;; Defined at:
  2134 ;;		line 45 in file "D:\6_pic_project\00_Design_Flow_Car\Driver\LCD1602.c"
  2135 ;; Parameters:    Size  Location     Type
  2136 ;;		None
  2137 ;; Auto vars:     Size  Location     Type
  2138 ;;		None
  2139 ;; Return value:  Size  Location     Type
  2140 ;;		None               void
  2141 ;; Registers used:
  2142 ;;		wreg, status,2, status,0, pclath, cstack
  2143 ;; Tracked objects:
  2144 ;;		On entry : 0/0
  2145 ;;		On exit  : 0/0
  2146 ;;		Unchanged: 0/0
  2147 ;; Data sizes:     COMMON   BANK0   BANK1   BANK3   BANK2
  2148 ;;      Params:         0       0       0       0       0
  2149 ;;      Locals:         0       0       0       0       0
  2150 ;;      Temps:          0       0       0       0       0
  2151 ;;      Totals:         0       0       0       0       0
  2152 ;;Total ram usage:        0 bytes
  2153 ;; Hardware stack levels used:    1
  2154 ;; Hardware stack levels required when called:    6
  2155 ;; This function calls:
  2156 ;;		_LCD1602_Delay
  2157 ;;		_LCD1602_WriteCommand
  2158 ;; This function is called by:
  2159 ;;		_main
  2160 ;; This function uses a non-reentrant model
  2161 ;;
  2162                           psect	text1022
  2163                           	file	"D:\6_pic_project\00_Design_Flow_Car\Driver\LCD1602.c"
  2164                           	line	45
  2165                           	global	__size_of_LCD1602_Init
  2166  0027                     	__size_of_LCD1602_Init	equ	__end_of_LCD1602_Init-_LCD1602_Init
  2167                           	
  2168  0B2F                     _LCD1602_Init:	
  2169                           	opt	stack 1
  2170                           ; Regs used in _LCD1602_Init: [wreg+status,2+status,0+pclath+cstack]
  2171                           	line	46
  2172                           	
  2173  0B2F                     l13246:	
  2174                           ;LCD1602.c: 46: PORTD=0X00;
  2175  0B2F  1283               	bcf	status, 5	;RP0=0, select bank0
  2176  0B30  1303               	bcf	status, 6	;RP1=0, select bank0
  2177  0B31  0188               	clrf	(8)	;volatile
  2178                           	line	47
  2179                           	
  2180  0B32                     l13248:	
  2181                           ;LCD1602.c: 47: LCD1602_Delay();
  2182  0B32  120A  158A  22D0   	fcall	_LCD1602_Delay
              120A  158A         
  2183                           	line	48
  2184                           	
  2185  0B37                     l13250:	
  2186                           ;LCD1602.c: 48: LCD1602_WriteCommand(0x01);
  2187  0B37  3001               	movlw	(01h)
  2188  0B38  120A  158A  220A   	fcall	_LCD1602_WriteCommand
              120A  158A         
  2189                           	line	49
  2190                           	
  2191  0B3D                     l13252:	
  2192                           ;LCD1602.c: 49: LCD1602_WriteCommand(0x38);
  2193  0B3D  3038               	movlw	(038h)
  2194  0B3E  120A  158A  220A   	fcall	_LCD1602_WriteCommand
              120A  158A         
  2195                           	line	50
  2196                           	
  2197  0B43                     l13254:	
  2198                           ;LCD1602.c: 50: LCD1602_WriteCommand(0x0C);
  2199  0B43  300C               	movlw	(0Ch)
  2200  0B44  120A  158A  220A   	fcall	_LCD1602_WriteCommand
              120A  158A         
  2201                           	line	51
  2202                           	
  2203  0B49                     l13256:	
  2204                           ;LCD1602.c: 51: LCD1602_WriteCommand(0x06);
  2205  0B49  3006               	movlw	(06h)
  2206  0B4A  120A  158A  220A   	fcall	_LCD1602_WriteCommand
              120A  158A         
  2207                           	line	52
  2208                           	
  2209  0B4F                     l13258:	
  2210                           ;LCD1602.c: 52: LCD1602_WriteCommand(0x80);
  2211  0B4F  3080               	movlw	(080h)
  2212  0B50  120A  158A  220A   	fcall	_LCD1602_WriteCommand
              120A  158A         
  2213                           	line	53
  2214                           	
  2215  0B55                     l1476:	
  2216  0B55  0008               	return
  2217                           	opt stack 0
  2218                           GLOBAL	__end_of_LCD1602_Init
  2219  0B56                     	__end_of_LCD1602_Init:
  2220 ;; =============== function _LCD1602_Init ends ============
  2221                           
  2222                           	signat	_LCD1602_Init,88
  2223                           	global	_LCD1602_Pow
  2224                           psect	text1023,local,class=CODE,delta=2
  2225                           global __ptext1023
  2226  0C5E                     __ptext1023:
  2227                           
  2228 ;; *************** function _LCD1602_Pow *****************
  2229 ;; Defined at:
  2230 ;;		line 110 in file "D:\6_pic_project\00_Design_Flow_Car\Driver\LCD1602.c"
  2231 ;; Parameters:    Size  Location     Type
  2232 ;;  X               1    wreg     unsigned char 
  2233 ;;  Y               1   39[BANK1 ] unsigned char 
  2234 ;; Auto vars:     Size  Location     Type
  2235 ;;  X               1   47[BANK1 ] unsigned char 
  2236 ;;  result          4   49[BANK1 ] long 
  2237 ;;  i               1   48[BANK1 ] unsigned char 
  2238 ;; Return value:  Size  Location     Type
  2239 ;;                  4   39[BANK1 ] long 
  2240 ;; Registers used:
  2241 ;;		wreg, status,2, status,0, pclath, cstack
  2242 ;; Tracked objects:
  2243 ;;		On entry : 0/0
  2244 ;;		On exit  : 0/0
  2245 ;;		Unchanged: 0/0
  2246 ;; Data sizes:     COMMON   BANK0   BANK1   BANK3   BANK2
  2247 ;;      Params:         0       0       4       0       0
  2248 ;;      Locals:         0       0       6       0       0
  2249 ;;      Temps:          0       0       4       0       0
  2250 ;;      Totals:         0       0      14       0       0
  2251 ;;Total ram usage:       14 bytes
  2252 ;; Hardware stack levels used:    1
  2253 ;; Hardware stack levels required when called:    5
  2254 ;; This function calls:
  2255 ;;		___lmul
  2256 ;; This function is called by:
  2257 ;;		_LCD1602_WriteNum
  2258 ;;		_LCD1602_WriteLongNum
  2259 ;; This function uses a non-reentrant model
  2260 ;;
  2261                           psect	text1023
  2262                           	file	"D:\6_pic_project\00_Design_Flow_Car\Driver\LCD1602.c"
  2263                           	line	110
  2264                           	global	__size_of_LCD1602_Pow
  2265  0047                     	__size_of_LCD1602_Pow	equ	__end_of_LCD1602_Pow-_LCD1602_Pow
  2266                           	
  2267  0C5E                     _LCD1602_Pow:	
  2268                           	opt	stack 1
  2269                           ; Regs used in _LCD1602_Pow: [wreg+status,2+status,0+pclath+cstack]
  2270                           ;LCD1602_Pow@X stored from wreg
  2271                           	line	112
  2272  0C5E  1683               	bsf	status, 5	;RP0=1, select bank1
  2273  0C5F  1303               	bcf	status, 6	;RP1=0, select bank1
  2274  0C60  00CF               	movwf	(LCD1602_Pow@X)^080h
  2275                           	
  2276  0C61                     l13232:	
  2277                           ;LCD1602.c: 111: unsigned char i;
  2278                           ;LCD1602.c: 112: long result=1;
  2279  0C61  3000               	movlw	0
  2280  0C62  00D4               	movwf	(LCD1602_Pow@result+3)^080h
  2281  0C63  3000               	movlw	0
  2282  0C64  00D3               	movwf	(LCD1602_Pow@result+2)^080h
  2283  0C65  3000               	movlw	0
  2284  0C66  00D2               	movwf	(LCD1602_Pow@result+1)^080h
  2285  0C67  3001               	movlw	01h
  2286  0C68  00D1               	movwf	(LCD1602_Pow@result)^080h
  2287                           
  2288                           	line	113
  2289                           	
  2290  0C69                     l13234:	
  2291                           ;LCD1602.c: 113: for(i=0;i<Y;i++)
  2292  0C69  01D0               	clrf	(LCD1602_Pow@i)^080h
  2293  0C6A  2C94               	goto	l13240
  2294                           	line	114
  2295                           	
  2296  0C6B                     l1495:	
  2297                           	line	115
  2298                           	
  2299  0C6B                     l13236:	
  2300                           ;LCD1602.c: 114: {
  2301                           ;LCD1602.c: 115: result*=X;
  2302  0C6B  084F               	movf	(LCD1602_Pow@X)^080h,w
  2303  0C6C  00CB               	movwf	(??_LCD1602_Pow+0)^080h+0
  2304  0C6D  01CC               	clrf	((??_LCD1602_Pow+0)^080h+0+1)
  2305  0C6E  01CD               	clrf	((??_LCD1602_Pow+0)^080h+0+2)
  2306  0C6F  01CE               	clrf	((??_LCD1602_Pow+0)^080h+0+3)
  2307  0C70  084E               	movf	3+(??_LCD1602_Pow+0)^080h+0,w
  2308  0C71  00A3               	movwf	(?___lmul+3)^080h
  2309  0C72  084D               	movf	2+(??_LCD1602_Pow+0)^080h+0,w
  2310  0C73  00A2               	movwf	(?___lmul+2)^080h
  2311  0C74  084C               	movf	1+(??_LCD1602_Pow+0)^080h+0,w
  2312  0C75  00A1               	movwf	(?___lmul+1)^080h
  2313  0C76  084B               	movf	0+(??_LCD1602_Pow+0)^080h+0,w
  2314  0C77  00A0               	movwf	(?___lmul)^080h
  2315                           
  2316  0C78  0854               	movf	(LCD1602_Pow@result+3)^080h,w
  2317  0C79  00A7               	movwf	3+(?___lmul)^080h+04h
  2318  0C7A  0853               	movf	(LCD1602_Pow@result+2)^080h,w
  2319  0C7B  00A6               	movwf	2+(?___lmul)^080h+04h
  2320  0C7C  0852               	movf	(LCD1602_Pow@result+1)^080h,w
  2321  0C7D  00A5               	movwf	1+(?___lmul)^080h+04h
  2322  0C7E  0851               	movf	(LCD1602_Pow@result)^080h,w
  2323  0C7F  00A4               	movwf	0+(?___lmul)^080h+04h
  2324                           
  2325  0C80  120A  158A  24ED   	fcall	___lmul
              120A  158A         
  2326  0C85  1683               	bsf	status, 5	;RP0=1, select bank1
  2327  0C86  1303               	bcf	status, 6	;RP1=0, select bank1
  2328  0C87  0823               	movf	(3+(?___lmul))^080h,w
  2329  0C88  00D4               	movwf	(LCD1602_Pow@result+3)^080h
  2330  0C89  0822               	movf	(2+(?___lmul))^080h,w
  2331  0C8A  00D3               	movwf	(LCD1602_Pow@result+2)^080h
  2332  0C8B  0821               	movf	(1+(?___lmul))^080h,w
  2333  0C8C  00D2               	movwf	(LCD1602_Pow@result+1)^080h
  2334  0C8D  0820               	movf	(0+(?___lmul))^080h,w
  2335  0C8E  00D1               	movwf	(LCD1602_Pow@result)^080h
  2336                           
  2337                           	line	113
  2338                           	
  2339  0C8F                     l13238:	
  2340  0C8F  3001               	movlw	(01h)
  2341  0C90  00CB               	movwf	(??_LCD1602_Pow+0)^080h+0
  2342  0C91  084B               	movf	(??_LCD1602_Pow+0)^080h+0,w
  2343  0C92  07D0               	addwf	(LCD1602_Pow@i)^080h,f
  2344  0C93  2C94               	goto	l13240
  2345                           	
  2346  0C94                     l1494:	
  2347                           	
  2348  0C94                     l13240:	
  2349  0C94  0847               	movf	(LCD1602_Pow@Y)^080h,w
  2350  0C95  0250               	subwf	(LCD1602_Pow@i)^080h,w
  2351  0C96  1C03               	skipc
  2352  0C97  2C99               	goto	u5311
  2353  0C98  2C9A               	goto	u5310
  2354  0C99                     u5311:
  2355  0C99  2C6B               	goto	l13236
  2356  0C9A                     u5310:
  2357  0C9A  2C9B               	goto	l13242
  2358                           	
  2359  0C9B                     l1496:	
  2360                           	line	117
  2361                           	
  2362  0C9B                     l13242:	
  2363                           ;LCD1602.c: 116: }
  2364                           ;LCD1602.c: 117: return result;
  2365  0C9B  0854               	movf	(LCD1602_Pow@result+3)^080h,w
  2366  0C9C  00CA               	movwf	(?_LCD1602_Pow+3)^080h
  2367  0C9D  0853               	movf	(LCD1602_Pow@result+2)^080h,w
  2368  0C9E  00C9               	movwf	(?_LCD1602_Pow+2)^080h
  2369  0C9F  0852               	movf	(LCD1602_Pow@result+1)^080h,w
  2370  0CA0  00C8               	movwf	(?_LCD1602_Pow+1)^080h
  2371  0CA1  0851               	movf	(LCD1602_Pow@result)^080h,w
  2372  0CA2  00C7               	movwf	(?_LCD1602_Pow)^080h
  2373                           
  2374  0CA3  2CA4               	goto	l1497
  2375                           	
  2376  0CA4                     l13244:	
  2377                           	line	118
  2378                           	
  2379  0CA4                     l1497:	
  2380  0CA4  0008               	return
  2381                           	opt stack 0
  2382                           GLOBAL	__end_of_LCD1602_Pow
  2383  0CA5                     	__end_of_LCD1602_Pow:
  2384 ;; =============== function _LCD1602_Pow ends ============
  2385                           
  2386                           	signat	_LCD1602_Pow,8316
  2387                           	global	_LCD1602_WriteData
  2388                           psect	text1024,local,class=CODE,delta=2
  2389                           global __ptext1024
  2390  0A1D                     __ptext1024:
  2391                           
  2392 ;; *************** function _LCD1602_WriteData *****************
  2393 ;; Defined at:
  2394 ;;		line 38 in file "D:\6_pic_project\00_Design_Flow_Car\Driver\LCD1602.c"
  2395 ;; Parameters:    Size  Location     Type
  2396 ;;  Data            1    wreg     unsigned char 
  2397 ;; Auto vars:     Size  Location     Type
  2398 ;;  Data            1    2[BANK1 ] unsigned char 
  2399 ;; Return value:  Size  Location     Type
  2400 ;;		None               void
  2401 ;; Registers used:
  2402 ;;		wreg, status,2, status,0, pclath, cstack
  2403 ;; Tracked objects:
  2404 ;;		On entry : 0/0
  2405 ;;		On exit  : 0/0
  2406 ;;		Unchanged: 0/0
  2407 ;; Data sizes:     COMMON   BANK0   BANK1   BANK3   BANK2
  2408 ;;      Params:         0       0       0       0       0
  2409 ;;      Locals:         0       0       1       0       0
  2410 ;;      Temps:          0       0       0       0       0
  2411 ;;      Totals:         0       0       1       0       0
  2412 ;;Total ram usage:        1 bytes
  2413 ;; Hardware stack levels used:    1
  2414 ;; Hardware stack levels required when called:    5
  2415 ;; This function calls:
  2416 ;;		_LCD1602_Delay
  2417 ;; This function is called by:
  2418 ;;		_LCD1602_WriteString
  2419 ;;		_LCD1602_WriteNum
  2420 ;;		_LCD1602_WriteChar
  2421 ;;		_LCD1602_WriteLongNum
  2422 ;; This function uses a non-reentrant model
  2423 ;;
  2424                           psect	text1024
  2425                           	file	"D:\6_pic_project\00_Design_Flow_Car\Driver\LCD1602.c"
  2426                           	line	38
  2427                           	global	__size_of_LCD1602_WriteData
  2428  0013                     	__size_of_LCD1602_WriteData	equ	__end_of_LCD1602_WriteData-_LCD1602_WriteData
  2429                           	
  2430  0A1D                     _LCD1602_WriteData:	
  2431                           	opt	stack 1
  2432                           ; Regs used in _LCD1602_WriteData: [wreg+status,2+status,0+pclath+cstack]
  2433                           ;LCD1602_WriteData@Data stored from wreg
  2434  0A1D  1683               	bsf	status, 5	;RP0=1, select bank1
  2435  0A1E  1303               	bcf	status, 6	;RP1=0, select bank1
  2436  0A1F  00A2               	movwf	(LCD1602_WriteData@Data)^080h
  2437                           	line	39
  2438                           	
  2439  0A20                     l13220:	
  2440                           ;LCD1602.c: 39: PORTD=Data;
  2441  0A20  0822               	movf	(LCD1602_WriteData@Data)^080h,w
  2442  0A21  1283               	bcf	status, 5	;RP0=0, select bank0
  2443  0A22  1303               	bcf	status, 6	;RP1=0, select bank0
  2444  0A23  0088               	movwf	(8)	;volatile
  2445                           	line	40
  2446                           	
  2447  0A24                     l13222:	
  2448                           ;LCD1602.c: 40: RA5=1;RA2=0;RA3=0;LCD1602_Delay();RA3=1;
  2449  0A24  1685               	bsf	(45/8),(45)&7
  2450                           	
  2451  0A25                     l13224:	
  2452  0A25  1105               	bcf	(42/8),(42)&7
  2453                           	
  2454  0A26                     l13226:	
  2455  0A26  1185               	bcf	(43/8),(43)&7
  2456                           	
  2457  0A27                     l13228:	
  2458  0A27  120A  158A  22D0   	fcall	_LCD1602_Delay
              120A  158A         
  2459                           	
  2460  0A2C                     l13230:	
  2461  0A2C  1283               	bcf	status, 5	;RP0=0, select bank0
  2462  0A2D  1303               	bcf	status, 6	;RP1=0, select bank0
  2463  0A2E  1585               	bsf	(43/8),(43)&7
  2464                           	line	41
  2465                           	
  2466  0A2F                     l1473:	
  2467  0A2F  0008               	return
  2468                           	opt stack 0
  2469                           GLOBAL	__end_of_LCD1602_WriteData
  2470  0A30                     	__end_of_LCD1602_WriteData:
  2471 ;; =============== function _LCD1602_WriteData ends ============
  2472                           
  2473                           	signat	_LCD1602_WriteData,4216
  2474                           	global	_LCD1602_WriteCommand
  2475                           psect	text1025,local,class=CODE,delta=2
  2476                           global __ptext1025
  2477  0A0A                     __ptext1025:
  2478                           
  2479 ;; *************** function _LCD1602_WriteCommand *****************
  2480 ;; Defined at:
  2481 ;;		line 26 in file "D:\6_pic_project\00_Design_Flow_Car\Driver\LCD1602.c"
  2482 ;; Parameters:    Size  Location     Type
  2483 ;;  Command         1    wreg     unsigned char 
  2484 ;; Auto vars:     Size  Location     Type
  2485 ;;  Command         1    2[BANK1 ] unsigned char 
  2486 ;; Return value:  Size  Location     Type
  2487 ;;		None               void
  2488 ;; Registers used:
  2489 ;;		wreg, status,2, status,0, pclath, cstack
  2490 ;; Tracked objects:
  2491 ;;		On entry : 0/0
  2492 ;;		On exit  : 0/0
  2493 ;;		Unchanged: 0/0
  2494 ;; Data sizes:     COMMON   BANK0   BANK1   BANK3   BANK2
  2495 ;;      Params:         0       0       0       0       0
  2496 ;;      Locals:         0       0       1       0       0
  2497 ;;      Temps:          0       0       0       0       0
  2498 ;;      Totals:         0       0       1       0       0
  2499 ;;Total ram usage:        1 bytes
  2500 ;; Hardware stack levels used:    1
  2501 ;; Hardware stack levels required when called:    5
  2502 ;; This function calls:
  2503 ;;		_LCD1602_Delay
  2504 ;; This function is called by:
  2505 ;;		_LCD1602_Init
  2506 ;;		_LCD1602_WriteString
  2507 ;;		_LCD1602_WriteNum
  2508 ;;		_LCD1602_WriteChar
  2509 ;;		_LCD1602_WriteLongNum
  2510 ;; This function uses a non-reentrant model
  2511 ;;
  2512                           psect	text1025
  2513                           	file	"D:\6_pic_project\00_Design_Flow_Car\Driver\LCD1602.c"
  2514                           	line	26
  2515                           	global	__size_of_LCD1602_WriteCommand
  2516  0013                     	__size_of_LCD1602_WriteCommand	equ	__end_of_LCD1602_WriteCommand-_LCD1602_WriteCommand
  2517                           	
  2518  0A0A                     _LCD1602_WriteCommand:	
  2519                           	opt	stack 1
  2520                           ; Regs used in _LCD1602_WriteCommand: [wreg+status,2+status,0+pclath+cstack]
  2521                           ;LCD1602_WriteCommand@Command stored from wreg
  2522  0A0A  1683               	bsf	status, 5	;RP0=1, select bank1
  2523  0A0B  1303               	bcf	status, 6	;RP1=0, select bank1
  2524  0A0C  00A2               	movwf	(LCD1602_WriteCommand@Command)^080h
  2525                           	line	27
  2526                           	
  2527  0A0D                     l13208:	
  2528                           ;LCD1602.c: 27: PORTD=Command;
  2529  0A0D  0822               	movf	(LCD1602_WriteCommand@Command)^080h,w
  2530  0A0E  1283               	bcf	status, 5	;RP0=0, select bank0
  2531  0A0F  1303               	bcf	status, 6	;RP1=0, select bank0
  2532  0A10  0088               	movwf	(8)	;volatile
  2533                           	line	28
  2534                           	
  2535  0A11                     l13210:	
  2536                           ;LCD1602.c: 28: RA5=0;RA2=0;RA3=0;LCD1602_Delay();RA3=1;
  2537  0A11  1285               	bcf	(45/8),(45)&7
  2538                           	
  2539  0A12                     l13212:	
  2540  0A12  1105               	bcf	(42/8),(42)&7
  2541                           	
  2542  0A13                     l13214:	
  2543  0A13  1185               	bcf	(43/8),(43)&7
  2544                           	
  2545  0A14                     l13216:	
  2546  0A14  120A  158A  22D0   	fcall	_LCD1602_Delay
              120A  158A         
  2547                           	
  2548  0A19                     l13218:	
  2549  0A19  1283               	bcf	status, 5	;RP0=0, select bank0
  2550  0A1A  1303               	bcf	status, 6	;RP1=0, select bank0
  2551  0A1B  1585               	bsf	(43/8),(43)&7
  2552                           	line	29
  2553                           	
  2554  0A1C                     l1470:	
  2555  0A1C  0008               	return
  2556                           	opt stack 0
  2557                           GLOBAL	__end_of_LCD1602_WriteCommand
  2558  0A1D                     	__end_of_LCD1602_WriteCommand:
  2559 ;; =============== function _LCD1602_WriteCommand ends ============
  2560                           
  2561                           	signat	_LCD1602_WriteCommand,4216
  2562                           	global	_printf
  2563                           psect	text1026,local,class=CODE,delta=2
  2564                           global __ptext1026
  2565  0520                     __ptext1026:
  2566                           
  2567 ;; *************** function _printf *****************
  2568 ;; Defined at:
  2569 ;;		line 461 in file "C:\Program Files (x86)\HI-TECH Software\PICC\9.82\lib\doprnt.c"
  2570 ;; Parameters:    Size  Location     Type
  2571 ;;  f               1    wreg     PTR const unsigned char 
  2572 ;;		 -> STR_5(3), STR_4(11), STR_3(18), 
  2573 ;; Auto vars:     Size  Location     Type
  2574 ;;  f               1   20[BANK1 ] PTR const unsigned char 
  2575 ;;		 -> STR_5(3), STR_4(11), STR_3(18), 
  2576 ;;  _val            4   23[BANK1 ] struct .
  2577 ;;  c               1   27[BANK1 ] char 
  2578 ;;  ap              1   22[BANK1 ] PTR void [1]
  2579 ;;		 -> ?_printf(2), 
  2580 ;;  prec            1   21[BANK1 ] char 
  2581 ;;  flag            1   19[BANK1 ] unsigned char 
  2582 ;; Return value:  Size  Location     Type
  2583 ;;                  2   14[BANK1 ] int 
  2584 ;; Registers used:
  2585 ;;		wreg, fsr0l, fsr0h, status,2, status,0, btemp+1, pclath, cstack
  2586 ;; Tracked objects:
  2587 ;;		On entry : 0/0
  2588 ;;		On exit  : 0/0
  2589 ;;		Unchanged: 0/0
  2590 ;; Data sizes:     COMMON   BANK0   BANK1   BANK3   BANK2
  2591 ;;      Params:         0       0       2       0       0
  2592 ;;      Locals:         0       0       9       0       0
  2593 ;;      Temps:          0       0       3       0       0
  2594 ;;      Totals:         0       0      14       0       0
  2595 ;;Total ram usage:       14 bytes
  2596 ;; Hardware stack levels used:    1
  2597 ;; Hardware stack levels required when called:    5
  2598 ;; This function calls:
  2599 ;;		_putch
  2600 ;;		___lwdiv
  2601 ;;		___lwmod
  2602 ;; This function is called by:
  2603 ;;		_main
  2604 ;;		_Serial_PrintString
  2605 ;; This function uses a non-reentrant model
  2606 ;;
  2607                           psect	text1026
  2608                           	file	"C:\Program Files (x86)\HI-TECH Software\PICC\9.82\sources\doprnt.c"
  2609                           	line	461
  2610                           	global	__size_of_printf
  2611  010B                     	__size_of_printf	equ	__end_of_printf-_printf
  2612                           	
  2613  0520                     _printf:	
  2614                           	opt	stack 2
  2615                           ; Regs used in _printf: [wreg-fsr0h+status,2+status,0+btemp+1+pclath+cstack]
  2616                           ;printf@f stored from wreg
  2617                           	line	537
  2618  0520  1683               	bsf	status, 5	;RP0=1, select bank1
  2619  0521  1303               	bcf	status, 6	;RP1=0, select bank1
  2620  0522  00B4               	movwf	(printf@f)^080h
  2621                           	
  2622  0523                     l13154:	
  2623  0523  30AE               	movlw	(?_printf)&0ffh
  2624  0524  00B0               	movwf	(??_printf+0)^080h+0
  2625  0525  0830               	movf	(??_printf+0)^080h+0,w
  2626  0526  00B6               	movwf	(printf@ap)^080h
  2627                           	line	540
  2628  0527  2E14               	goto	l13206
  2629                           	
  2630  0528                     l9238:	
  2631                           	line	542
  2632                           	
  2633  0528                     l13156:	
  2634  0528  083B               	movf	(printf@c)^080h,w
  2635  0529  3A25               	xorlw	025h
  2636  052A  1903               	skipnz
  2637  052B  2D2D               	goto	u5231
  2638  052C  2D2E               	goto	u5230
  2639  052D                     u5231:
  2640  052D  2D35               	goto	l9239
  2641  052E                     u5230:
  2642                           	line	545
  2643                           	
  2644  052E                     l13158:	
  2645  052E  083B               	movf	(printf@c)^080h,w
  2646  052F  120A  158A  21FA   	fcall	_putch
              120A  118A         
  2647                           	line	546
  2648  0534  2E14               	goto	l13206
  2649                           	line	547
  2650                           	
  2651  0535                     l9239:	
  2652                           	line	552
  2653  0535  01B3               	clrf	(printf@flag)^080h
  2654                           	line	638
  2655  0536  2D4E               	goto	l13168
  2656                           	line	640
  2657                           	
  2658  0537                     l9241:	
  2659                           	line	641
  2660  0537  2E2A               	goto	l9257
  2661                           	line	700
  2662                           	
  2663  0538                     l9243:	
  2664  0538  2D68               	goto	l13170
  2665                           	line	701
  2666                           	
  2667  0539                     l9244:	
  2668                           	line	702
  2669  0539  2D68               	goto	l13170
  2670                           	line	787
  2671                           	
  2672  053A                     l9246:	
  2673                           	line	802
  2674                           	
  2675  053A                     l13160:	
  2676  053A  0836               	movf	(printf@ap)^080h,w
  2677  053B  0084               	movwf	fsr0
  2678  053C  1383               	bcf	status, 7	;select IRP bank0
  2679  053D  0800               	movf	indf,w
  2680  053E  00B0               	movwf	(??_printf+0)^080h+0
  2681  053F  0830               	movf	(??_printf+0)^080h+0,w
  2682  0540  00BB               	movwf	(printf@c)^080h
  2683                           	
  2684  0541                     l13162:	
  2685  0541  3002               	movlw	(02h)
  2686  0542  00B0               	movwf	(??_printf+0)^080h+0
  2687  0543  0830               	movf	(??_printf+0)^080h+0,w
  2688  0544  07B6               	addwf	(printf@ap)^080h,f
  2689  0545  2D46               	goto	l13164
  2690                           	line	805
  2691                           	
  2692  0546                     l9247:	
  2693                           	line	812
  2694                           	
  2695  0546                     l13164:	
  2696  0546  083B               	movf	(printf@c)^080h,w
  2697  0547  120A  158A  21FA   	fcall	_putch
              120A  118A         
  2698                           	line	813
  2699  054C  2E14               	goto	l13206
  2700                           	line	825
  2701                           	
  2702  054D                     l13166:	
  2703  054D  2D68               	goto	l13170
  2704                           	line	638
  2705                           	
  2706  054E                     l9240:	
  2707                           	
  2708  054E                     l13168:	
  2709  054E  3001               	movlw	01h
  2710  054F  1683               	bsf	status, 5	;RP0=1, select bank1
  2711  0550  1303               	bcf	status, 6	;RP1=0, select bank1
  2712  0551  07B4               	addwf	(printf@f)^080h,f
  2713  0552  30FF               	movlw	-01h
  2714  0553  0734               	addwf	(printf@f)^080h,w
  2715  0554  0084               	movwf	fsr0
  2716  0555  120A  158A  2000   	fcall	stringdir
              120A  118A         
  2717  055A  00BB               	movwf	(printf@c)^080h
  2718                           	; Switch size 1, requested type "space"
  2719                           ; Number of cases is 4, Range of values is 0 to 105
  2720                           ; switch strategies available:
  2721                           ; Name         Instructions Cycles
  2722                           ; simple_byte           13     7 (average)
  2723                           ; jumptable            260     6 (fixed)
  2724                           ; rangetable           110     6 (fixed)
  2725                           ; spacedrange          218     9 (fixed)
  2726                           ; locatedrange         106     3 (fixed)
  2727                           ;	Chosen strategy is simple_byte
  2728                           
  2729                           	opt asmopt_off
  2730  055B  3A00               	xorlw	0^0	; case 0
  2731  055C  1903               	skipnz
  2732  055D  2E2A               	goto	l9257
  2733  055E  3A63               	xorlw	99^0	; case 99
  2734  055F  1903               	skipnz
  2735  0560  2D3A               	goto	l13160
  2736  0561  3A07               	xorlw	100^99	; case 100
  2737  0562  1903               	skipnz
  2738  0563  2D68               	goto	l13170
  2739  0564  3A0D               	xorlw	105^100	; case 105
  2740  0565  1903               	skipnz
  2741  0566  2D68               	goto	l13170
  2742  0567  2D46               	goto	l13164
  2743                           	opt asmopt_on
  2744                           
  2745                           	line	825
  2746                           	
  2747  0568                     l9245:	
  2748                           	line	1254
  2749                           	
  2750  0568                     l13170:	
  2751  0568  1683               	bsf	status, 5	;RP0=1, select bank1
  2752  0569  1303               	bcf	status, 6	;RP1=0, select bank1
  2753  056A  0836               	movf	(printf@ap)^080h,w
  2754  056B  0084               	movwf	fsr0
  2755  056C  1383               	bcf	status, 7	;select IRP bank0
  2756  056D  0800               	movf	indf,w
  2757  056E  00B7               	movwf	(printf@_val)^080h
  2758  056F  0A84               	incf	fsr0,f
  2759  0570  0800               	movf	indf,w
  2760  0571  00B8               	movwf	(printf@_val+1)^080h
  2761                           	
  2762  0572                     l13172:	
  2763  0572  3002               	movlw	(02h)
  2764  0573  00B0               	movwf	(??_printf+0)^080h+0
  2765  0574  0830               	movf	(??_printf+0)^080h+0,w
  2766  0575  07B6               	addwf	(printf@ap)^080h,f
  2767                           	line	1256
  2768                           	
  2769  0576                     l13174:	
  2770  0576  1FB8               	btfss	(printf@_val+1)^080h,7
  2771  0577  2D79               	goto	u5241
  2772  0578  2D7A               	goto	u5240
  2773  0579                     u5241:
  2774  0579  2D84               	goto	l13180
  2775  057A                     u5240:
  2776                           	line	1257
  2777                           	
  2778  057A                     l13176:	
  2779  057A  3003               	movlw	(03h)
  2780  057B  00B0               	movwf	(??_printf+0)^080h+0
  2781  057C  0830               	movf	(??_printf+0)^080h+0,w
  2782  057D  04B3               	iorwf	(printf@flag)^080h,f
  2783                           	line	1258
  2784                           	
  2785  057E                     l13178:	
  2786  057E  09B7               	comf	(printf@_val)^080h,f
  2787  057F  09B8               	comf	(printf@_val+1)^080h,f
  2788  0580  0AB7               	incf	(printf@_val)^080h,f
  2789  0581  1903               	skipnz
  2790  0582  0AB8               	incf	(printf@_val+1)^080h,f
  2791  0583  2D84               	goto	l13180
  2792                           	line	1259
  2793                           	
  2794  0584                     l9248:	
  2795                           	line	1300
  2796                           	
  2797  0584                     l13180:	
  2798  0584  01BB               	clrf	(printf@c)^080h
  2799  0585  1403               	bsf	status,0
  2800  0586  0DBB               	rlf	(printf@c)^080h,f
  2801                           	
  2802  0587                     l13182:	
  2803  0587  083B               	movf	(printf@c)^080h,w
  2804  0588  3A05               	xorlw	05h
  2805  0589  1D03               	skipz
  2806  058A  2D8C               	goto	u5251
  2807  058B  2D8D               	goto	u5250
  2808  058C                     u5251:
  2809  058C  2D8F               	goto	l13186
  2810  058D                     u5250:
  2811  058D  2DB7               	goto	l13194
  2812                           	
  2813  058E                     l13184:	
  2814  058E  2DB7               	goto	l13194
  2815                           	line	1301
  2816                           	
  2817  058F                     l9249:	
  2818                           	
  2819  058F                     l13186:	
  2820  058F  083B               	movf	(printf@c)^080h,w
  2821  0590  00B0               	movwf	(??_printf+0)^080h+0
  2822  0591  0730               	addwf	(??_printf+0)^080h+0,w
  2823  0592  3E01               	addlw	low((_dpowers-__stringbase))
  2824  0593  0084               	movwf	fsr0
  2825  0594  120A  158A  2000   	fcall	stringdir
              120A  118A         
  2826  0599  00B1               	movwf	(??_printf+1)^080h+0
  2827  059A  120A  158A  2000   	fcall	stringdir
              120A  118A         
  2828  059F  00B2               	movwf	(??_printf+1)^080h+0+1
  2829  05A0  0832               	movf	1+(??_printf+1)^080h+0,w
  2830  05A1  0238               	subwf	(printf@_val+1)^080h,w
  2831  05A2  1D03               	skipz
  2832  05A3  2DA6               	goto	u5265
  2833  05A4  0831               	movf	0+(??_printf+1)^080h+0,w
  2834  05A5  0237               	subwf	(printf@_val)^080h,w
  2835  05A6                     u5265:
  2836  05A6  1803               	skipnc
  2837  05A7  2DA9               	goto	u5261
  2838  05A8  2DAA               	goto	u5260
  2839  05A9                     u5261:
  2840  05A9  2DAC               	goto	l13190
  2841  05AA                     u5260:
  2842  05AA  2DB7               	goto	l13194
  2843                           	line	1302
  2844                           	
  2845  05AB                     l13188:	
  2846  05AB  2DB7               	goto	l13194
  2847                           	
  2848  05AC                     l9251:	
  2849                           	line	1300
  2850                           	
  2851  05AC                     l13190:	
  2852  05AC  3001               	movlw	(01h)
  2853  05AD  00B0               	movwf	(??_printf+0)^080h+0
  2854  05AE  0830               	movf	(??_printf+0)^080h+0,w
  2855  05AF  07BB               	addwf	(printf@c)^080h,f
  2856                           	
  2857  05B0                     l13192:	
  2858  05B0  083B               	movf	(printf@c)^080h,w
  2859  05B1  3A05               	xorlw	05h
  2860  05B2  1D03               	skipz
  2861  05B3  2DB5               	goto	u5271
  2862  05B4  2DB6               	goto	u5270
  2863  05B5                     u5271:
  2864  05B5  2D8F               	goto	l13186
  2865  05B6                     u5270:
  2866  05B6  2DB7               	goto	l13194
  2867                           	
  2868  05B7                     l9250:	
  2869                           	line	1433
  2870                           	
  2871  05B7                     l13194:	
  2872  05B7  0833               	movf	(printf@flag)^080h,w
  2873  05B8  3903               	andlw	03h
  2874  05B9  1903               	btfsc	status,2
  2875  05BA  2DBC               	goto	u5281
  2876  05BB  2DBD               	goto	u5280
  2877  05BC                     u5281:
  2878  05BC  2DC4               	goto	l13198
  2879  05BD                     u5280:
  2880                           	line	1434
  2881                           	
  2882  05BD                     l13196:	
  2883  05BD  302D               	movlw	(02Dh)
  2884  05BE  120A  158A  21FA   	fcall	_putch
              120A  118A         
  2885  05C3  2DC4               	goto	l13198
  2886                           	
  2887  05C4                     l9252:	
  2888                           	line	1467
  2889                           	
  2890  05C4                     l13198:	
  2891  05C4  1683               	bsf	status, 5	;RP0=1, select bank1
  2892  05C5  1303               	bcf	status, 6	;RP1=0, select bank1
  2893  05C6  083B               	movf	(printf@c)^080h,w
  2894  05C7  00B0               	movwf	(??_printf+0)^080h+0
  2895  05C8  0830               	movf	(??_printf+0)^080h+0,w
  2896  05C9  00B5               	movwf	(printf@prec)^080h
  2897                           	line	1469
  2898  05CA  2E06               	goto	l13204
  2899                           	
  2900  05CB                     l9254:	
  2901                           	line	1484
  2902                           	
  2903  05CB                     l13200:	
  2904  05CB  300A               	movlw	low(0Ah)
  2905  05CC  00A8               	movwf	(?___lwmod)^080h
  2906  05CD  3000               	movlw	high(0Ah)
  2907  05CE  00A9               	movwf	((?___lwmod)^080h)+1
  2908  05CF  0835               	movf	(printf@prec)^080h,w
  2909  05D0  00B0               	movwf	(??_printf+0)^080h+0
  2910  05D1  0730               	addwf	(??_printf+0)^080h+0,w
  2911  05D2  3E01               	addlw	low((_dpowers-__stringbase))
  2912  05D3  0084               	movwf	fsr0
  2913  05D4  120A  158A  2000   	fcall	stringdir
              120A  118A         
  2914  05D9  00A0               	movwf	(?___lwdiv)^080h
  2915  05DA  120A  158A  2000   	fcall	stringdir
              120A  118A         
  2916  05DF  00A1               	movwf	(?___lwdiv+1)^080h
  2917  05E0  0838               	movf	(printf@_val+1)^080h,w
  2918  05E1  01A3               	clrf	1+(?___lwdiv)^080h+02h
  2919  05E2  07A3               	addwf	1+(?___lwdiv)^080h+02h
  2920  05E3  0837               	movf	(printf@_val)^080h,w
  2921  05E4  01A2               	clrf	0+(?___lwdiv)^080h+02h
  2922  05E5  07A2               	addwf	0+(?___lwdiv)^080h+02h
  2923                           
  2924  05E6  120A  158A  2586   	fcall	___lwdiv
              120A  118A         
  2925  05EB  1683               	bsf	status, 5	;RP0=1, select bank1
  2926  05EC  1303               	bcf	status, 6	;RP1=0, select bank1
  2927  05ED  0821               	movf	(1+(?___lwdiv))^080h,w
  2928  05EE  01AB               	clrf	1+(?___lwmod)^080h+02h
  2929  05EF  07AB               	addwf	1+(?___lwmod)^080h+02h
  2930  05F0  0820               	movf	(0+(?___lwdiv))^080h,w
  2931  05F1  01AA               	clrf	0+(?___lwmod)^080h+02h
  2932  05F2  07AA               	addwf	0+(?___lwmod)^080h+02h
  2933                           
  2934  05F3  120A  158A  2418   	fcall	___lwmod
              120A  118A         
  2935  05F8  1683               	bsf	status, 5	;RP0=1, select bank1
  2936  05F9  1303               	bcf	status, 6	;RP1=0, select bank1
  2937  05FA  0828               	movf	(0+(?___lwmod))^080h,w
  2938  05FB  3E30               	addlw	030h
  2939  05FC  00B1               	movwf	(??_printf+1)^080h+0
  2940  05FD  0831               	movf	(??_printf+1)^080h+0,w
  2941  05FE  00BB               	movwf	(printf@c)^080h
  2942                           	line	1516
  2943                           	
  2944  05FF                     l13202:	
  2945  05FF  083B               	movf	(printf@c)^080h,w
  2946  0600  120A  158A  21FA   	fcall	_putch
              120A  118A         
  2947  0605  2E06               	goto	l13204
  2948                           	line	1517
  2949                           	
  2950  0606                     l9253:	
  2951                           	line	1469
  2952                           	
  2953  0606                     l13204:	
  2954  0606  30FF               	movlw	(-1)
  2955  0607  1683               	bsf	status, 5	;RP0=1, select bank1
  2956  0608  1303               	bcf	status, 6	;RP1=0, select bank1
  2957  0609  00B0               	movwf	(??_printf+0)^080h+0
  2958  060A  0830               	movf	(??_printf+0)^080h+0,w
  2959  060B  07B5               	addwf	(printf@prec)^080h,f
  2960  060C  0835               	movf	((printf@prec)^080h),w
  2961  060D  3AFF               	xorlw	-1
  2962  060E  1D03               	skipz
  2963  060F  2E11               	goto	u5291
  2964  0610  2E12               	goto	u5290
  2965  0611                     u5291:
  2966  0611  2DCB               	goto	l13200
  2967  0612                     u5290:
  2968  0612  2E14               	goto	l13206
  2969                           	
  2970  0613                     l9255:	
  2971  0613  2E14               	goto	l13206
  2972                           	line	1525
  2973                           	
  2974  0614                     l9237:	
  2975                           	line	540
  2976                           	
  2977  0614                     l13206:	
  2978  0614  3001               	movlw	01h
  2979  0615  1683               	bsf	status, 5	;RP0=1, select bank1
  2980  0616  1303               	bcf	status, 6	;RP1=0, select bank1
  2981  0617  07B4               	addwf	(printf@f)^080h,f
  2982  0618  30FF               	movlw	-01h
  2983  0619  0734               	addwf	(printf@f)^080h,w
  2984  061A  0084               	movwf	fsr0
  2985  061B  120A  158A  2000   	fcall	stringdir
              120A  118A         
  2986  0620  00B0               	movwf	(??_printf+0)^080h+0
  2987  0621  0830               	movf	(??_printf+0)^080h+0,w
  2988  0622  00BB               	movwf	(printf@c)^080h
  2989  0623  08BB               	movf	((printf@c)^080h),f
  2990  0624  1D03               	skipz
  2991  0625  2E27               	goto	u5301
  2992  0626  2E28               	goto	u5300
  2993  0627                     u5301:
  2994  0627  2D28               	goto	l13156
  2995  0628                     u5300:
  2996  0628  2E2A               	goto	l9257
  2997                           	
  2998  0629                     l9256:	
  2999  0629  2E2A               	goto	l9257
  3000                           	line	1527
  3001                           	
  3002  062A                     l9242:	
  3003                           	line	1533
  3004                           ;	Return value of _printf is never used
  3005                           	
  3006  062A                     l9257:	
  3007  062A  0008               	return
  3008                           	opt stack 0
  3009                           GLOBAL	__end_of_printf
  3010  062B                     	__end_of_printf:
  3011 ;; =============== function _printf ends ============
  3012                           
  3013                           	signat	_printf,602
  3014                           	global	_Delay_ms
  3015                           psect	text1027,local,class=CODE,delta=2
  3016                           global __ptext1027
  3017  0A84                     __ptext1027:
  3018                           
  3019 ;; *************** function _Delay_ms *****************
  3020 ;; Defined at:
  3021 ;;		line 4 in file "D:\6_pic_project\00_Design_Flow_Car\System\Delay.c"
  3022 ;; Parameters:    Size  Location     Type
  3023 ;;  x               2    0[BANK1 ] unsigned int 
  3024 ;; Auto vars:     Size  Location     Type
  3025 ;;		None
  3026 ;; Return value:  Size  Location     Type
  3027 ;;		None               void
  3028 ;; Registers used:
  3029 ;;		wreg
  3030 ;; Tracked objects:
  3031 ;;		On entry : 0/0
  3032 ;;		On exit  : 0/0
  3033 ;;		Unchanged: 0/0
  3034 ;; Data sizes:     COMMON   BANK0   BANK1   BANK3   BANK2
  3035 ;;      Params:         0       0       2       0       0
  3036 ;;      Locals:         0       0       0       0       0
  3037 ;;      Temps:          0       0       0       0       0
  3038 ;;      Totals:         0       0       2       0       0
  3039 ;;Total ram usage:        2 bytes
  3040 ;; Hardware stack levels used:    1
  3041 ;; Hardware stack levels required when called:    4
  3042 ;; This function calls:
  3043 ;;		Nothing
  3044 ;; This function is called by:
  3045 ;;		_main
  3046 ;; This function uses a non-reentrant model
  3047 ;;
  3048                           psect	text1027
  3049                           	file	"D:\6_pic_project\00_Design_Flow_Car\System\Delay.c"
  3050                           	line	4
  3051                           	global	__size_of_Delay_ms
  3052  0017                     	__size_of_Delay_ms	equ	__end_of_Delay_ms-_Delay_ms
  3053                           	
  3054  0A84                     _Delay_ms:	
  3055                           	opt	stack 3
  3056                           ; Regs used in _Delay_ms: [wreg]
  3057                           	line	5
  3058                           	
  3059  0A84                     l13150:	
  3060                           ;Delay.c: 5: while(x--)
  3061  0A84  2A87               	goto	l13152
  3062                           	
  3063  0A85                     l6457:	
  3064                           	line	7
  3065                           ;Delay.c: 6: {
  3066                           ;Delay.c: 7: _nop();
  3067  0A85  0000               	nop
  3068  0A86  2A87               	goto	l13152
  3069                           	line	8
  3070                           	
  3071  0A87                     l6456:	
  3072                           	line	5
  3073                           	
  3074  0A87                     l13152:	
  3075  0A87  3001               	movlw	low(01h)
  3076  0A88  1683               	bsf	status, 5	;RP0=1, select bank1
  3077  0A89  1303               	bcf	status, 6	;RP1=0, select bank1
  3078  0A8A  02A0               	subwf	(Delay_ms@x)^080h,f
  3079  0A8B  3000               	movlw	high(01h)
  3080  0A8C  1C03               	skipc
  3081  0A8D  03A1               	decf	(Delay_ms@x+1)^080h,f
  3082  0A8E  02A1               	subwf	(Delay_ms@x+1)^080h,f
  3083  0A8F  30FF               	movlw	high(0FFFFh)
  3084  0A90  0621               	xorwf	((Delay_ms@x+1)^080h),w
  3085  0A91  1D03               	skipz
  3086  0A92  2A95               	goto	u5225
  3087  0A93  30FF               	movlw	low(0FFFFh)
  3088  0A94  0620               	xorwf	((Delay_ms@x)^080h),w
  3089  0A95                     u5225:
  3090                           
  3091  0A95  1D03               	skipz
  3092  0A96  2A98               	goto	u5221
  3093  0A97  2A99               	goto	u5220
  3094  0A98                     u5221:
  3095  0A98  2A85               	goto	l6457
  3096  0A99                     u5220:
  3097  0A99  2A9A               	goto	l6459
  3098                           	
  3099  0A9A                     l6458:	
  3100                           	line	9
  3101                           	
  3102  0A9A                     l6459:	
  3103  0A9A  0008               	return
  3104                           	opt stack 0
  3105                           GLOBAL	__end_of_Delay_ms
  3106  0A9B                     	__end_of_Delay_ms:
  3107 ;; =============== function _Delay_ms ends ============
  3108                           
  3109                           	signat	_Delay_ms,4216
  3110                           	global	___aldiv
  3111                           psect	text1028,local,class=CODE,delta=2
  3112                           global __ptext1028
  3113  0719                     __ptext1028:
  3114                           
  3115 ;; *************** function ___aldiv *****************
  3116 ;; Defined at:
  3117 ;;		line 5 in file "C:\Program Files (x86)\HI-TECH Software\PICC\9.82\sources\aldiv.c"
  3118 ;; Parameters:    Size  Location     Type
  3119 ;;  divisor         4   13[BANK1 ] long 
  3120 ;;  dividend        4   17[BANK1 ] long 
  3121 ;; Auto vars:     Size  Location     Type
  3122 ;;  quotient        4   24[BANK1 ] long 
  3123 ;;  sign            1   23[BANK1 ] unsigned char 
  3124 ;;  counter         1   22[BANK1 ] unsigned char 
  3125 ;; Return value:  Size  Location     Type
  3126 ;;                  4   13[BANK1 ] long 
  3127 ;; Registers used:
  3128 ;;		wreg, status,2, status,0
  3129 ;; Tracked objects:
  3130 ;;		On entry : 0/0
  3131 ;;		On exit  : 0/0
  3132 ;;		Unchanged: 0/0
  3133 ;; Data sizes:     COMMON   BANK0   BANK1   BANK3   BANK2
  3134 ;;      Params:         0       0       8       0       0
  3135 ;;      Locals:         0       0       6       0       0
  3136 ;;      Temps:          0       0       1       0       0
  3137 ;;      Totals:         0       0      15       0       0
  3138 ;;Total ram usage:       15 bytes
  3139 ;; Hardware stack levels used:    1
  3140 ;; Hardware stack levels required when called:    4
  3141 ;; This function calls:
  3142 ;;		Nothing
  3143 ;; This function is called by:
  3144 ;;		_LCD1602_WriteNum
  3145 ;;		_LCD1602_WriteLongNum
  3146 ;; This function uses a non-reentrant model
  3147 ;;
  3148                           psect	text1028
  3149                           	file	"C:\Program Files (x86)\HI-TECH Software\PICC\9.82\sources\aldiv.c"
  3150                           	line	5
  3151                           	global	__size_of___aldiv
  3152  00A8                     	__size_of___aldiv	equ	__end_of___aldiv-___aldiv
  3153                           	
  3154  0719                     ___aldiv:	
  3155                           	opt	stack 2
  3156                           ; Regs used in ___aldiv: [wreg+status,2+status,0]
  3157                           	line	9
  3158                           	
  3159  0719                     l13046:	
  3160  0719  1683               	bsf	status, 5	;RP0=1, select bank1
  3161  071A  1303               	bcf	status, 6	;RP1=0, select bank1
  3162  071B  01B7               	clrf	(___aldiv@sign)^080h
  3163                           	line	10
  3164  071C  1FB0               	btfss	(___aldiv@divisor+3)^080h,7
  3165  071D  2F1F               	goto	u5041
  3166  071E  2F20               	goto	u5040
  3167  071F                     u5041:
  3168  071F  2F2F               	goto	l13052
  3169  0720                     u5040:
  3170                           	line	11
  3171                           	
  3172  0720                     l13048:	
  3173  0720  09AD               	comf	(___aldiv@divisor)^080h,f
  3174  0721  09AE               	comf	(___aldiv@divisor+1)^080h,f
  3175  0722  09AF               	comf	(___aldiv@divisor+2)^080h,f
  3176  0723  09B0               	comf	(___aldiv@divisor+3)^080h,f
  3177  0724  0AAD               	incf	(___aldiv@divisor)^080h,f
  3178  0725  1903               	skipnz
  3179  0726  0AAE               	incf	(___aldiv@divisor+1)^080h,f
  3180  0727  1903               	skipnz
  3181  0728  0AAF               	incf	(___aldiv@divisor+2)^080h,f
  3182  0729  1903               	skipnz
  3183  072A  0AB0               	incf	(___aldiv@divisor+3)^080h,f
  3184                           	line	12
  3185                           	
  3186  072B                     l13050:	
  3187  072B  01B7               	clrf	(___aldiv@sign)^080h
  3188  072C  1403               	bsf	status,0
  3189  072D  0DB7               	rlf	(___aldiv@sign)^080h,f
  3190  072E  2F2F               	goto	l13052
  3191                           	line	13
  3192                           	
  3193  072F                     l10135:	
  3194                           	line	14
  3195                           	
  3196  072F                     l13052:	
  3197  072F  1FB4               	btfss	(___aldiv@dividend+3)^080h,7
  3198  0730  2F32               	goto	u5051
  3199  0731  2F33               	goto	u5050
  3200  0732                     u5051:
  3201  0732  2F43               	goto	l13058
  3202  0733                     u5050:
  3203                           	line	15
  3204                           	
  3205  0733                     l13054:	
  3206  0733  09B1               	comf	(___aldiv@dividend)^080h,f
  3207  0734  09B2               	comf	(___aldiv@dividend+1)^080h,f
  3208  0735  09B3               	comf	(___aldiv@dividend+2)^080h,f
  3209  0736  09B4               	comf	(___aldiv@dividend+3)^080h,f
  3210  0737  0AB1               	incf	(___aldiv@dividend)^080h,f
  3211  0738  1903               	skipnz
  3212  0739  0AB2               	incf	(___aldiv@dividend+1)^080h,f
  3213  073A  1903               	skipnz
  3214  073B  0AB3               	incf	(___aldiv@dividend+2)^080h,f
  3215  073C  1903               	skipnz
  3216  073D  0AB4               	incf	(___aldiv@dividend+3)^080h,f
  3217                           	line	16
  3218                           	
  3219  073E                     l13056:	
  3220  073E  3001               	movlw	(01h)
  3221  073F  00B5               	movwf	(??___aldiv+0)^080h+0
  3222  0740  0835               	movf	(??___aldiv+0)^080h+0,w
  3223  0741  06B7               	xorwf	(___aldiv@sign)^080h,f
  3224  0742  2F43               	goto	l13058
  3225                           	line	17
  3226                           	
  3227  0743                     l10136:	
  3228                           	line	18
  3229                           	
  3230  0743                     l13058:	
  3231  0743  3000               	movlw	0
  3232  0744  00BB               	movwf	(___aldiv@quotient+3)^080h
  3233  0745  3000               	movlw	0
  3234  0746  00BA               	movwf	(___aldiv@quotient+2)^080h
  3235  0747  3000               	movlw	0
  3236  0748  00B9               	movwf	(___aldiv@quotient+1)^080h
  3237  0749  3000               	movlw	0
  3238  074A  00B8               	movwf	(___aldiv@quotient)^080h
  3239                           
  3240                           	line	19
  3241                           	
  3242  074B                     l13060:	
  3243  074B  0830               	movf	(___aldiv@divisor+3)^080h,w
  3244  074C  042F               	iorwf	(___aldiv@divisor+2)^080h,w
  3245  074D  042E               	iorwf	(___aldiv@divisor+1)^080h,w
  3246  074E  042D               	iorwf	(___aldiv@divisor)^080h,w
  3247  074F  1903               	skipnz
  3248  0750  2F52               	goto	u5061
  3249  0751  2F53               	goto	u5060
  3250  0752                     u5061:
  3251  0752  2FA7               	goto	l13080
  3252  0753                     u5060:
  3253                           	line	20
  3254                           	
  3255  0753                     l13062:	
  3256  0753  01B6               	clrf	(___aldiv@counter)^080h
  3257  0754  1403               	bsf	status,0
  3258  0755  0DB6               	rlf	(___aldiv@counter)^080h,f
  3259                           	line	21
  3260  0756  2F65               	goto	l13066
  3261                           	
  3262  0757                     l10139:	
  3263                           	line	22
  3264                           	
  3265  0757                     l13064:	
  3266  0757  3001               	movlw	01h
  3267  0758  00B5               	movwf	(??___aldiv+0)^080h+0
  3268  0759                     u5075:
  3269  0759  1003               	clrc
  3270  075A  0DAD               	rlf	(___aldiv@divisor)^080h,f
  3271  075B  0DAE               	rlf	(___aldiv@divisor+1)^080h,f
  3272  075C  0DAF               	rlf	(___aldiv@divisor+2)^080h,f
  3273  075D  0DB0               	rlf	(___aldiv@divisor+3)^080h,f
  3274  075E  0BB5               	decfsz	(??___aldiv+0)^080h+0
  3275  075F  2F59               	goto	u5075
  3276                           	line	23
  3277  0760  3001               	movlw	(01h)
  3278  0761  00B5               	movwf	(??___aldiv+0)^080h+0
  3279  0762  0835               	movf	(??___aldiv+0)^080h+0,w
  3280  0763  07B6               	addwf	(___aldiv@counter)^080h,f
  3281  0764  2F65               	goto	l13066
  3282                           	line	24
  3283                           	
  3284  0765                     l10138:	
  3285                           	line	21
  3286                           	
  3287  0765                     l13066:	
  3288  0765  1FB0               	btfss	(___aldiv@divisor+3)^080h,(31)&7
  3289  0766  2F68               	goto	u5081
  3290  0767  2F69               	goto	u5080
  3291  0768                     u5081:
  3292  0768  2F57               	goto	l13064
  3293  0769                     u5080:
  3294  0769  2F6B               	goto	l13068
  3295                           	
  3296  076A                     l10140:	
  3297  076A  2F6B               	goto	l13068
  3298                           	line	25
  3299                           	
  3300  076B                     l10141:	
  3301                           	line	26
  3302                           	
  3303  076B                     l13068:	
  3304  076B  3001               	movlw	01h
  3305  076C  00B5               	movwf	(??___aldiv+0)^080h+0
  3306  076D                     u5095:
  3307  076D  1003               	clrc
  3308  076E  0DB8               	rlf	(___aldiv@quotient)^080h,f
  3309  076F  0DB9               	rlf	(___aldiv@quotient+1)^080h,f
  3310  0770  0DBA               	rlf	(___aldiv@quotient+2)^080h,f
  3311  0771  0DBB               	rlf	(___aldiv@quotient+3)^080h,f
  3312  0772  0BB5               	decfsz	(??___aldiv+0)^080h+0
  3313  0773  2F6D               	goto	u5095
  3314                           	line	27
  3315                           	
  3316  0774                     l13070:	
  3317  0774  0830               	movf	(___aldiv@divisor+3)^080h,w
  3318  0775  0234               	subwf	(___aldiv@dividend+3)^080h,w
  3319  0776  1D03               	skipz
  3320  0777  2F82               	goto	u5105
  3321  0778  082F               	movf	(___aldiv@divisor+2)^080h,w
  3322  0779  0233               	subwf	(___aldiv@dividend+2)^080h,w
  3323  077A  1D03               	skipz
  3324  077B  2F82               	goto	u5105
  3325  077C  082E               	movf	(___aldiv@divisor+1)^080h,w
  3326  077D  0232               	subwf	(___aldiv@dividend+1)^080h,w
  3327  077E  1D03               	skipz
  3328  077F  2F82               	goto	u5105
  3329  0780  082D               	movf	(___aldiv@divisor)^080h,w
  3330  0781  0231               	subwf	(___aldiv@dividend)^080h,w
  3331  0782                     u5105:
  3332  0782  1C03               	skipc
  3333  0783  2F85               	goto	u5101
  3334  0784  2F86               	goto	u5100
  3335  0785                     u5101:
  3336  0785  2F96               	goto	l13076
  3337  0786                     u5100:
  3338                           	line	28
  3339                           	
  3340  0786                     l13072:	
  3341  0786  082D               	movf	(___aldiv@divisor)^080h,w
  3342  0787  02B1               	subwf	(___aldiv@dividend)^080h,f
  3343  0788  082E               	movf	(___aldiv@divisor+1)^080h,w
  3344  0789  1C03               	skipc
  3345  078A  0F2E               	incfsz	(___aldiv@divisor+1)^080h,w
  3346  078B  02B2               	subwf	(___aldiv@dividend+1)^080h,f
  3347  078C  082F               	movf	(___aldiv@divisor+2)^080h,w
  3348  078D  1C03               	skipc
  3349  078E  0F2F               	incfsz	(___aldiv@divisor+2)^080h,w
  3350  078F  02B3               	subwf	(___aldiv@dividend+2)^080h,f
  3351  0790  0830               	movf	(___aldiv@divisor+3)^080h,w
  3352  0791  1C03               	skipc
  3353  0792  0F30               	incfsz	(___aldiv@divisor+3)^080h,w
  3354  0793  02B4               	subwf	(___aldiv@dividend+3)^080h,f
  3355                           	line	29
  3356                           	
  3357  0794                     l13074:	
  3358  0794  1438               	bsf	(___aldiv@quotient)^080h+(0/8),(0)&7
  3359  0795  2F96               	goto	l13076
  3360                           	line	30
  3361                           	
  3362  0796                     l10142:	
  3363                           	line	31
  3364                           	
  3365  0796                     l13076:	
  3366  0796  3001               	movlw	01h
  3367  0797                     u5115:
  3368  0797  1003               	clrc
  3369  0798  0CB0               	rrf	(___aldiv@divisor+3)^080h,f
  3370  0799  0CAF               	rrf	(___aldiv@divisor+2)^080h,f
  3371  079A  0CAE               	rrf	(___aldiv@divisor+1)^080h,f
  3372  079B  0CAD               	rrf	(___aldiv@divisor)^080h,f
  3373  079C  3EFF               	addlw	-1
  3374  079D  1D03               	skipz
  3375  079E  2F97               	goto	u5115
  3376                           
  3377                           	line	32
  3378                           	
  3379  079F                     l13078:	
  3380  079F  3001               	movlw	low(01h)
  3381  07A0  02B6               	subwf	(___aldiv@counter)^080h,f
  3382  07A1  1D03               	btfss	status,2
  3383  07A2  2FA4               	goto	u5121
  3384  07A3  2FA5               	goto	u5120
  3385  07A4                     u5121:
  3386  07A4  2F6B               	goto	l13068
  3387  07A5                     u5120:
  3388  07A5  2FA7               	goto	l13080
  3389                           	
  3390  07A6                     l10143:	
  3391  07A6  2FA7               	goto	l13080
  3392                           	line	33
  3393                           	
  3394  07A7                     l10137:	
  3395                           	line	34
  3396                           	
  3397  07A7                     l13080:	
  3398  07A7  0837               	movf	(___aldiv@sign)^080h,w
  3399  07A8  1D03               	skipz
  3400  07A9  2FAB               	goto	u5130
  3401  07AA  2FB7               	goto	l13084
  3402  07AB                     u5130:
  3403                           	line	35
  3404                           	
  3405  07AB                     l13082:	
  3406  07AB  09B8               	comf	(___aldiv@quotient)^080h,f
  3407  07AC  09B9               	comf	(___aldiv@quotient+1)^080h,f
  3408  07AD  09BA               	comf	(___aldiv@quotient+2)^080h,f
  3409  07AE  09BB               	comf	(___aldiv@quotient+3)^080h,f
  3410  07AF  0AB8               	incf	(___aldiv@quotient)^080h,f
  3411  07B0  1903               	skipnz
  3412  07B1  0AB9               	incf	(___aldiv@quotient+1)^080h,f
  3413  07B2  1903               	skipnz
  3414  07B3  0ABA               	incf	(___aldiv@quotient+2)^080h,f
  3415  07B4  1903               	skipnz
  3416  07B5  0ABB               	incf	(___aldiv@quotient+3)^080h,f
  3417  07B6  2FB7               	goto	l13084
  3418                           	
  3419  07B7                     l10144:	
  3420                           	line	36
  3421                           	
  3422  07B7                     l13084:	
  3423  07B7  083B               	movf	(___aldiv@quotient+3)^080h,w
  3424  07B8  00B0               	movwf	(?___aldiv+3)^080h
  3425  07B9  083A               	movf	(___aldiv@quotient+2)^080h,w
  3426  07BA  00AF               	movwf	(?___aldiv+2)^080h
  3427  07BB  0839               	movf	(___aldiv@quotient+1)^080h,w
  3428  07BC  00AE               	movwf	(?___aldiv+1)^080h
  3429  07BD  0838               	movf	(___aldiv@quotient)^080h,w
  3430  07BE  00AD               	movwf	(?___aldiv)^080h
  3431                           
  3432  07BF  2FC0               	goto	l10145
  3433                           	
  3434  07C0                     l13086:	
  3435                           	line	37
  3436                           	
  3437  07C0                     l10145:	
  3438  07C0  0008               	return
  3439                           	opt stack 0
  3440                           GLOBAL	__end_of___aldiv
  3441  07C1                     	__end_of___aldiv:
  3442 ;; =============== function ___aldiv ends ============
  3443                           
  3444                           	signat	___aldiv,8316
  3445                           	global	___almod
  3446                           psect	text1029,local,class=CODE,delta=2
  3447                           global __ptext1029
  3448  0EC8                     __ptext1029:
  3449                           
  3450 ;; *************** function ___almod *****************
  3451 ;; Defined at:
  3452 ;;		line 5 in file "C:\Program Files (x86)\HI-TECH Software\PICC\9.82\sources\almod.c"
  3453 ;; Parameters:    Size  Location     Type
  3454 ;;  divisor         4   28[BANK1 ] long 
  3455 ;;  dividend        4   32[BANK1 ] long 
  3456 ;; Auto vars:     Size  Location     Type
  3457 ;;  sign            1   38[BANK1 ] unsigned char 
  3458 ;;  counter         1   37[BANK1 ] unsigned char 
  3459 ;; Return value:  Size  Location     Type
  3460 ;;                  4   28[BANK1 ] long 
  3461 ;; Registers used:
  3462 ;;		wreg, status,2, status,0
  3463 ;; Tracked objects:
  3464 ;;		On entry : 0/0
  3465 ;;		On exit  : 0/0
  3466 ;;		Unchanged: 0/0
  3467 ;; Data sizes:     COMMON   BANK0   BANK1   BANK3   BANK2
  3468 ;;      Params:         0       0       8       0       0
  3469 ;;      Locals:         0       0       2       0       0
  3470 ;;      Temps:          0       0       1       0       0
  3471 ;;      Totals:         0       0      11       0       0
  3472 ;;Total ram usage:       11 bytes
  3473 ;; Hardware stack levels used:    1
  3474 ;; Hardware stack levels required when called:    4
  3475 ;; This function calls:
  3476 ;;		Nothing
  3477 ;; This function is called by:
  3478 ;;		_LCD1602_WriteNum
  3479 ;;		_LCD1602_WriteLongNum
  3480 ;; This function uses a non-reentrant model
  3481 ;;
  3482                           psect	text1029
  3483                           	file	"C:\Program Files (x86)\HI-TECH Software\PICC\9.82\sources\almod.c"
  3484                           	line	5
  3485                           	global	__size_of___almod
  3486  0092                     	__size_of___almod	equ	__end_of___almod-___almod
  3487                           	
  3488  0EC8                     ___almod:	
  3489                           	opt	stack 2
  3490                           ; Regs used in ___almod: [wreg+status,2+status,0]
  3491                           	line	8
  3492                           	
  3493  0EC8                     l13012:	
  3494  0EC8  1683               	bsf	status, 5	;RP0=1, select bank1
  3495  0EC9  1303               	bcf	status, 6	;RP1=0, select bank1
  3496  0ECA  01C6               	clrf	(___almod@sign)^080h
  3497                           	line	9
  3498  0ECB  1FC3               	btfss	(___almod@dividend+3)^080h,7
  3499  0ECC  2ECE               	goto	u4951
  3500  0ECD  2ECF               	goto	u4950
  3501  0ECE                     u4951:
  3502  0ECE  2EDE               	goto	l13018
  3503  0ECF                     u4950:
  3504                           	line	10
  3505                           	
  3506  0ECF                     l13014:	
  3507  0ECF  09C0               	comf	(___almod@dividend)^080h,f
  3508  0ED0  09C1               	comf	(___almod@dividend+1)^080h,f
  3509  0ED1  09C2               	comf	(___almod@dividend+2)^080h,f
  3510  0ED2  09C3               	comf	(___almod@dividend+3)^080h,f
  3511  0ED3  0AC0               	incf	(___almod@dividend)^080h,f
  3512  0ED4  1903               	skipnz
  3513  0ED5  0AC1               	incf	(___almod@dividend+1)^080h,f
  3514  0ED6  1903               	skipnz
  3515  0ED7  0AC2               	incf	(___almod@dividend+2)^080h,f
  3516  0ED8  1903               	skipnz
  3517  0ED9  0AC3               	incf	(___almod@dividend+3)^080h,f
  3518                           	line	11
  3519                           	
  3520  0EDA                     l13016:	
  3521  0EDA  01C6               	clrf	(___almod@sign)^080h
  3522  0EDB  1403               	bsf	status,0
  3523  0EDC  0DC6               	rlf	(___almod@sign)^080h,f
  3524  0EDD  2EDE               	goto	l13018
  3525                           	line	12
  3526                           	
  3527  0EDE                     l10122:	
  3528                           	line	13
  3529                           	
  3530  0EDE                     l13018:	
  3531  0EDE  1FBF               	btfss	(___almod@divisor+3)^080h,7
  3532  0EDF  2EE1               	goto	u4961
  3533  0EE0  2EE2               	goto	u4960
  3534  0EE1                     u4961:
  3535  0EE1  2EEE               	goto	l13022
  3536  0EE2                     u4960:
  3537                           	line	14
  3538                           	
  3539  0EE2                     l13020:	
  3540  0EE2  09BC               	comf	(___almod@divisor)^080h,f
  3541  0EE3  09BD               	comf	(___almod@divisor+1)^080h,f
  3542  0EE4  09BE               	comf	(___almod@divisor+2)^080h,f
  3543  0EE5  09BF               	comf	(___almod@divisor+3)^080h,f
  3544  0EE6  0ABC               	incf	(___almod@divisor)^080h,f
  3545  0EE7  1903               	skipnz
  3546  0EE8  0ABD               	incf	(___almod@divisor+1)^080h,f
  3547  0EE9  1903               	skipnz
  3548  0EEA  0ABE               	incf	(___almod@divisor+2)^080h,f
  3549  0EEB  1903               	skipnz
  3550  0EEC  0ABF               	incf	(___almod@divisor+3)^080h,f
  3551  0EED  2EEE               	goto	l13022
  3552                           	
  3553  0EEE                     l10123:	
  3554                           	line	15
  3555                           	
  3556  0EEE                     l13022:	
  3557  0EEE  083F               	movf	(___almod@divisor+3)^080h,w
  3558  0EEF  043E               	iorwf	(___almod@divisor+2)^080h,w
  3559  0EF0  043D               	iorwf	(___almod@divisor+1)^080h,w
  3560  0EF1  043C               	iorwf	(___almod@divisor)^080h,w
  3561  0EF2  1903               	skipnz
  3562  0EF3  2EF5               	goto	u4971
  3563  0EF4  2EF6               	goto	u4970
  3564  0EF5                     u4971:
  3565  0EF5  2F40               	goto	l13038
  3566  0EF6                     u4970:
  3567                           	line	16
  3568                           	
  3569  0EF6                     l13024:	
  3570  0EF6  01C5               	clrf	(___almod@counter)^080h
  3571  0EF7  1403               	bsf	status,0
  3572  0EF8  0DC5               	rlf	(___almod@counter)^080h,f
  3573                           	line	17
  3574  0EF9  2F08               	goto	l13028
  3575                           	
  3576  0EFA                     l10126:	
  3577                           	line	18
  3578                           	
  3579  0EFA                     l13026:	
  3580  0EFA  3001               	movlw	01h
  3581  0EFB  00C4               	movwf	(??___almod+0)^080h+0
  3582  0EFC                     u4985:
  3583  0EFC  1003               	clrc
  3584  0EFD  0DBC               	rlf	(___almod@divisor)^080h,f
  3585  0EFE  0DBD               	rlf	(___almod@divisor+1)^080h,f
  3586  0EFF  0DBE               	rlf	(___almod@divisor+2)^080h,f
  3587  0F00  0DBF               	rlf	(___almod@divisor+3)^080h,f
  3588  0F01  0BC4               	decfsz	(??___almod+0)^080h+0
  3589  0F02  2EFC               	goto	u4985
  3590                           	line	19
  3591  0F03  3001               	movlw	(01h)
  3592  0F04  00C4               	movwf	(??___almod+0)^080h+0
  3593  0F05  0844               	movf	(??___almod+0)^080h+0,w
  3594  0F06  07C5               	addwf	(___almod@counter)^080h,f
  3595  0F07  2F08               	goto	l13028
  3596                           	line	20
  3597                           	
  3598  0F08                     l10125:	
  3599                           	line	17
  3600                           	
  3601  0F08                     l13028:	
  3602  0F08  1FBF               	btfss	(___almod@divisor+3)^080h,(31)&7
  3603  0F09  2F0B               	goto	u4991
  3604  0F0A  2F0C               	goto	u4990
  3605  0F0B                     u4991:
  3606  0F0B  2EFA               	goto	l13026
  3607  0F0C                     u4990:
  3608  0F0C  2F0E               	goto	l13030
  3609                           	
  3610  0F0D                     l10127:	
  3611  0F0D  2F0E               	goto	l13030
  3612                           	line	21
  3613                           	
  3614  0F0E                     l10128:	
  3615                           	line	22
  3616                           	
  3617  0F0E                     l13030:	
  3618  0F0E  083F               	movf	(___almod@divisor+3)^080h,w
  3619  0F0F  0243               	subwf	(___almod@dividend+3)^080h,w
  3620  0F10  1D03               	skipz
  3621  0F11  2F1C               	goto	u5005
  3622  0F12  083E               	movf	(___almod@divisor+2)^080h,w
  3623  0F13  0242               	subwf	(___almod@dividend+2)^080h,w
  3624  0F14  1D03               	skipz
  3625  0F15  2F1C               	goto	u5005
  3626  0F16  083D               	movf	(___almod@divisor+1)^080h,w
  3627  0F17  0241               	subwf	(___almod@dividend+1)^080h,w
  3628  0F18  1D03               	skipz
  3629  0F19  2F1C               	goto	u5005
  3630  0F1A  083C               	movf	(___almod@divisor)^080h,w
  3631  0F1B  0240               	subwf	(___almod@dividend)^080h,w
  3632  0F1C                     u5005:
  3633  0F1C  1C03               	skipc
  3634  0F1D  2F1F               	goto	u5001
  3635  0F1E  2F20               	goto	u5000
  3636  0F1F                     u5001:
  3637  0F1F  2F2F               	goto	l13034
  3638  0F20                     u5000:
  3639                           	line	23
  3640                           	
  3641  0F20                     l13032:	
  3642  0F20  083C               	movf	(___almod@divisor)^080h,w
  3643  0F21  02C0               	subwf	(___almod@dividend)^080h,f
  3644  0F22  083D               	movf	(___almod@divisor+1)^080h,w
  3645  0F23  1C03               	skipc
  3646  0F24  0F3D               	incfsz	(___almod@divisor+1)^080h,w
  3647  0F25  02C1               	subwf	(___almod@dividend+1)^080h,f
  3648  0F26  083E               	movf	(___almod@divisor+2)^080h,w
  3649  0F27  1C03               	skipc
  3650  0F28  0F3E               	incfsz	(___almod@divisor+2)^080h,w
  3651  0F29  02C2               	subwf	(___almod@dividend+2)^080h,f
  3652  0F2A  083F               	movf	(___almod@divisor+3)^080h,w
  3653  0F2B  1C03               	skipc
  3654  0F2C  0F3F               	incfsz	(___almod@divisor+3)^080h,w
  3655  0F2D  02C3               	subwf	(___almod@dividend+3)^080h,f
  3656  0F2E  2F2F               	goto	l13034
  3657                           	
  3658  0F2F                     l10129:	
  3659                           	line	24
  3660                           	
  3661  0F2F                     l13034:	
  3662  0F2F  3001               	movlw	01h
  3663  0F30                     u5015:
  3664  0F30  1003               	clrc
  3665  0F31  0CBF               	rrf	(___almod@divisor+3)^080h,f
  3666  0F32  0CBE               	rrf	(___almod@divisor+2)^080h,f
  3667  0F33  0CBD               	rrf	(___almod@divisor+1)^080h,f
  3668  0F34  0CBC               	rrf	(___almod@divisor)^080h,f
  3669  0F35  3EFF               	addlw	-1
  3670  0F36  1D03               	skipz
  3671  0F37  2F30               	goto	u5015
  3672                           
  3673                           	line	25
  3674                           	
  3675  0F38                     l13036:	
  3676  0F38  3001               	movlw	low(01h)
  3677  0F39  02C5               	subwf	(___almod@counter)^080h,f
  3678  0F3A  1D03               	btfss	status,2
  3679  0F3B  2F3D               	goto	u5021
  3680  0F3C  2F3E               	goto	u5020
  3681  0F3D                     u5021:
  3682  0F3D  2F0E               	goto	l13030
  3683  0F3E                     u5020:
  3684  0F3E  2F40               	goto	l13038
  3685                           	
  3686  0F3F                     l10130:	
  3687  0F3F  2F40               	goto	l13038
  3688                           	line	26
  3689                           	
  3690  0F40                     l10124:	
  3691                           	line	27
  3692                           	
  3693  0F40                     l13038:	
  3694  0F40  0846               	movf	(___almod@sign)^080h,w
  3695  0F41  1D03               	skipz
  3696  0F42  2F44               	goto	u5030
  3697  0F43  2F50               	goto	l13042
  3698  0F44                     u5030:
  3699                           	line	28
  3700                           	
  3701  0F44                     l13040:	
  3702  0F44  09C0               	comf	(___almod@dividend)^080h,f
  3703  0F45  09C1               	comf	(___almod@dividend+1)^080h,f
  3704  0F46  09C2               	comf	(___almod@dividend+2)^080h,f
  3705  0F47  09C3               	comf	(___almod@dividend+3)^080h,f
  3706  0F48  0AC0               	incf	(___almod@dividend)^080h,f
  3707  0F49  1903               	skipnz
  3708  0F4A  0AC1               	incf	(___almod@dividend+1)^080h,f
  3709  0F4B  1903               	skipnz
  3710  0F4C  0AC2               	incf	(___almod@dividend+2)^080h,f
  3711  0F4D  1903               	skipnz
  3712  0F4E  0AC3               	incf	(___almod@dividend+3)^080h,f
  3713  0F4F  2F50               	goto	l13042
  3714                           	
  3715  0F50                     l10131:	
  3716                           	line	29
  3717                           	
  3718  0F50                     l13042:	
  3719  0F50  0843               	movf	(___almod@dividend+3)^080h,w
  3720  0F51  00BF               	movwf	(?___almod+3)^080h
  3721  0F52  0842               	movf	(___almod@dividend+2)^080h,w
  3722  0F53  00BE               	movwf	(?___almod+2)^080h
  3723  0F54  0841               	movf	(___almod@dividend+1)^080h,w
  3724  0F55  00BD               	movwf	(?___almod+1)^080h
  3725  0F56  0840               	movf	(___almod@dividend)^080h,w
  3726  0F57  00BC               	movwf	(?___almod)^080h
  3727                           
  3728  0F58  2F59               	goto	l10132
  3729                           	
  3730  0F59                     l13044:	
  3731                           	line	30
  3732                           	
  3733  0F59                     l10132:	
  3734  0F59  0008               	return
  3735                           	opt stack 0
  3736                           GLOBAL	__end_of___almod
  3737  0F5A                     	__end_of___almod:
  3738 ;; =============== function ___almod ends ============
  3739                           
  3740                           	signat	___almod,8316
  3741                           	global	___lmul
  3742                           psect	text1030,local,class=CODE,delta=2
  3743                           global __ptext1030
  3744  0CED                     __ptext1030:
  3745                           
  3746 ;; *************** function ___lmul *****************
  3747 ;; Defined at:
  3748 ;;		line 3 in file "C:\Program Files (x86)\HI-TECH Software\PICC\9.82\sources\lmul.c"
  3749 ;; Parameters:    Size  Location     Type
  3750 ;;  multiplier      4    0[BANK1 ] unsigned long 
  3751 ;;  multiplicand    4    4[BANK1 ] unsigned long 
  3752 ;; Auto vars:     Size  Location     Type
  3753 ;;  product         4    9[BANK1 ] unsigned long 
  3754 ;; Return value:  Size  Location     Type
  3755 ;;                  4    0[BANK1 ] unsigned long 
  3756 ;; Registers used:
  3757 ;;		wreg, status,2, status,0
  3758 ;; Tracked objects:
  3759 ;;		On entry : 0/0
  3760 ;;		On exit  : 0/0
  3761 ;;		Unchanged: 0/0
  3762 ;; Data sizes:     COMMON   BANK0   BANK1   BANK3   BANK2
  3763 ;;      Params:         0       0       8       0       0
  3764 ;;      Locals:         0       0       4       0       0
  3765 ;;      Temps:          0       0       1       0       0
  3766 ;;      Totals:         0       0      13       0       0
  3767 ;;Total ram usage:       13 bytes
  3768 ;; Hardware stack levels used:    1
  3769 ;; Hardware stack levels required when called:    4
  3770 ;; This function calls:
  3771 ;;		Nothing
  3772 ;; This function is called by:
  3773 ;;		_LCD1602_Pow
  3774 ;; This function uses a non-reentrant model
  3775 ;;
  3776                           psect	text1030
  3777                           	file	"C:\Program Files (x86)\HI-TECH Software\PICC\9.82\sources\lmul.c"
  3778                           	line	3
  3779                           	global	__size_of___lmul
  3780  004C                     	__size_of___lmul	equ	__end_of___lmul-___lmul
  3781                           	
  3782  0CED                     ___lmul:	
  3783                           	opt	stack 1
  3784                           ; Regs used in ___lmul: [wreg+status,2+status,0]
  3785                           	line	4
  3786                           	
  3787  0CED                     l12832:	
  3788  0CED  3000               	movlw	0
  3789  0CEE  1683               	bsf	status, 5	;RP0=1, select bank1
  3790  0CEF  1303               	bcf	status, 6	;RP1=0, select bank1
  3791  0CF0  00AC               	movwf	(___lmul@product+3)^080h
  3792  0CF1  3000               	movlw	0
  3793  0CF2  00AB               	movwf	(___lmul@product+2)^080h
  3794  0CF3  3000               	movlw	0
  3795  0CF4  00AA               	movwf	(___lmul@product+1)^080h
  3796  0CF5  3000               	movlw	0
  3797  0CF6  00A9               	movwf	(___lmul@product)^080h
  3798                           
  3799  0CF7  2CF8               	goto	l12834
  3800                           	line	6
  3801                           	
  3802  0CF8                     l10015:	
  3803                           	line	7
  3804                           	
  3805  0CF8                     l12834:	
  3806  0CF8  1C20               	btfss	(___lmul@multiplier)^080h,(0)&7
  3807  0CF9  2CFB               	goto	u4551
  3808  0CFA  2CFC               	goto	u4550
  3809  0CFB                     u4551:
  3810  0CFB  2D14               	goto	l12838
  3811  0CFC                     u4550:
  3812                           	line	8
  3813                           	
  3814  0CFC                     l12836:	
  3815  0CFC  0824               	movf	(___lmul@multiplicand)^080h,w
  3816  0CFD  07A9               	addwf	(___lmul@product)^080h,f
  3817  0CFE  0825               	movf	(___lmul@multiplicand+1)^080h,w
  3818  0CFF  1103               	clrz
  3819  0D00  1803               	skipnc
  3820  0D01  3E01               	addlw	1
  3821  0D02  1903               	skipnz
  3822  0D03  2D05               	goto	u4561
  3823  0D04  07AA               	addwf	(___lmul@product+1)^080h,f
  3824  0D05                     u4561:
  3825  0D05  0826               	movf	(___lmul@multiplicand+2)^080h,w
  3826  0D06  1103               	clrz
  3827  0D07  1803               	skipnc
  3828  0D08  3E01               	addlw	1
  3829  0D09  1903               	skipnz
  3830  0D0A  2D0C               	goto	u4562
  3831  0D0B  07AB               	addwf	(___lmul@product+2)^080h,f
  3832  0D0C                     u4562:
  3833  0D0C  0827               	movf	(___lmul@multiplicand+3)^080h,w
  3834  0D0D  1103               	clrz
  3835  0D0E  1803               	skipnc
  3836  0D0F  3E01               	addlw	1
  3837  0D10  1903               	skipnz
  3838  0D11  2D13               	goto	u4563
  3839  0D12  07AC               	addwf	(___lmul@product+3)^080h,f
  3840  0D13                     u4563:
  3841                           
  3842  0D13  2D14               	goto	l12838
  3843                           	
  3844  0D14                     l10016:	
  3845                           	line	9
  3846                           	
  3847  0D14                     l12838:	
  3848  0D14  3001               	movlw	01h
  3849  0D15  00A8               	movwf	(??___lmul+0)^080h+0
  3850  0D16                     u4575:
  3851  0D16  1003               	clrc
  3852  0D17  0DA4               	rlf	(___lmul@multiplicand)^080h,f
  3853  0D18  0DA5               	rlf	(___lmul@multiplicand+1)^080h,f
  3854  0D19  0DA6               	rlf	(___lmul@multiplicand+2)^080h,f
  3855  0D1A  0DA7               	rlf	(___lmul@multiplicand+3)^080h,f
  3856  0D1B  0BA8               	decfsz	(??___lmul+0)^080h+0
  3857  0D1C  2D16               	goto	u4575
  3858                           	line	10
  3859                           	
  3860  0D1D                     l12840:	
  3861  0D1D  3001               	movlw	01h
  3862  0D1E                     u4585:
  3863  0D1E  1003               	clrc
  3864  0D1F  0CA3               	rrf	(___lmul@multiplier+3)^080h,f
  3865  0D20  0CA2               	rrf	(___lmul@multiplier+2)^080h,f
  3866  0D21  0CA1               	rrf	(___lmul@multiplier+1)^080h,f
  3867  0D22  0CA0               	rrf	(___lmul@multiplier)^080h,f
  3868  0D23  3EFF               	addlw	-1
  3869  0D24  1D03               	skipz
  3870  0D25  2D1E               	goto	u4585
  3871                           
  3872                           	line	11
  3873  0D26  0823               	movf	(___lmul@multiplier+3)^080h,w
  3874  0D27  0422               	iorwf	(___lmul@multiplier+2)^080h,w
  3875  0D28  0421               	iorwf	(___lmul@multiplier+1)^080h,w
  3876  0D29  0420               	iorwf	(___lmul@multiplier)^080h,w
  3877  0D2A  1D03               	skipz
  3878  0D2B  2D2D               	goto	u4591
  3879  0D2C  2D2E               	goto	u4590
  3880  0D2D                     u4591:
  3881  0D2D  2CF8               	goto	l12834
  3882  0D2E                     u4590:
  3883  0D2E  2D2F               	goto	l12842
  3884                           	
  3885  0D2F                     l10017:	
  3886                           	line	12
  3887                           	
  3888  0D2F                     l12842:	
  3889  0D2F  082C               	movf	(___lmul@product+3)^080h,w
  3890  0D30  00A3               	movwf	(?___lmul+3)^080h
  3891  0D31  082B               	movf	(___lmul@product+2)^080h,w
  3892  0D32  00A2               	movwf	(?___lmul+2)^080h
  3893  0D33  082A               	movf	(___lmul@product+1)^080h,w
  3894  0D34  00A1               	movwf	(?___lmul+1)^080h
  3895  0D35  0829               	movf	(___lmul@product)^080h,w
  3896  0D36  00A0               	movwf	(?___lmul)^080h
  3897                           
  3898  0D37  2D38               	goto	l10018
  3899                           	
  3900  0D38                     l12844:	
  3901                           	line	13
  3902                           	
  3903  0D38                     l10018:	
  3904  0D38  0008               	return
  3905                           	opt stack 0
  3906                           GLOBAL	__end_of___lmul
  3907  0D39                     	__end_of___lmul:
  3908 ;; =============== function ___lmul ends ============
  3909                           
  3910                           	signat	___lmul,8316
  3911                           	global	___lwmod
  3912                           psect	text1031,local,class=CODE,delta=2
  3913                           global __ptext1031
  3914  0C18                     __ptext1031:
  3915                           
  3916 ;; *************** function ___lwmod *****************
  3917 ;; Defined at:
  3918 ;;		line 5 in file "C:\Program Files (x86)\HI-TECH Software\PICC\9.82\sources\lwmod.c"
  3919 ;; Parameters:    Size  Location     Type
  3920 ;;  divisor         2    8[BANK1 ] unsigned int 
  3921 ;;  dividend        2   10[BANK1 ] unsigned int 
  3922 ;; Auto vars:     Size  Location     Type
  3923 ;;  counter         1   13[BANK1 ] unsigned char 
  3924 ;; Return value:  Size  Location     Type
  3925 ;;                  2    8[BANK1 ] unsigned int 
  3926 ;; Registers used:
  3927 ;;		wreg, status,2, status,0
  3928 ;; Tracked objects:
  3929 ;;		On entry : 0/0
  3930 ;;		On exit  : 0/0
  3931 ;;		Unchanged: 0/0
  3932 ;; Data sizes:     COMMON   BANK0   BANK1   BANK3   BANK2
  3933 ;;      Params:         0       0       4       0       0
  3934 ;;      Locals:         0       0       1       0       0
  3935 ;;      Temps:          0       0       1       0       0
  3936 ;;      Totals:         0       0       6       0       0
  3937 ;;Total ram usage:        6 bytes
  3938 ;; Hardware stack levels used:    1
  3939 ;; Hardware stack levels required when called:    4
  3940 ;; This function calls:
  3941 ;;		Nothing
  3942 ;; This function is called by:
  3943 ;;		_printf
  3944 ;; This function uses a non-reentrant model
  3945 ;;
  3946                           psect	text1031
  3947                           	file	"C:\Program Files (x86)\HI-TECH Software\PICC\9.82\sources\lwmod.c"
  3948                           	line	5
  3949                           	global	__size_of___lwmod
  3950  0046                     	__size_of___lwmod	equ	__end_of___lwmod-___lwmod
  3951                           	
  3952  0C18                     ___lwmod:	
  3953                           	opt	stack 2
  3954                           ; Regs used in ___lwmod: [wreg+status,2+status,0]
  3955                           	line	8
  3956                           	
  3957  0C18                     l12710:	
  3958  0C18  1683               	bsf	status, 5	;RP0=1, select bank1
  3959  0C19  1303               	bcf	status, 6	;RP1=0, select bank1
  3960  0C1A  0829               	movf	(___lwmod@divisor+1)^080h,w
  3961  0C1B  0428               	iorwf	(___lwmod@divisor)^080h,w
  3962  0C1C  1903               	skipnz
  3963  0C1D  2C1F               	goto	u4141
  3964  0C1E  2C20               	goto	u4140
  3965  0C1F                     u4141:
  3966  0C1F  2C56               	goto	l12728
  3967  0C20                     u4140:
  3968                           	line	9
  3969                           	
  3970  0C20                     l12712:	
  3971  0C20  01AD               	clrf	(___lwmod@counter)^080h
  3972  0C21  1403               	bsf	status,0
  3973  0C22  0DAD               	rlf	(___lwmod@counter)^080h,f
  3974                           	line	10
  3975  0C23  2C30               	goto	l12718
  3976                           	
  3977  0C24                     l9958:	
  3978                           	line	11
  3979                           	
  3980  0C24                     l12714:	
  3981  0C24  3001               	movlw	01h
  3982                           	
  3983  0C25                     u4155:
  3984  0C25  1003               	clrc
  3985  0C26  0DA8               	rlf	(___lwmod@divisor)^080h,f
  3986  0C27  0DA9               	rlf	(___lwmod@divisor+1)^080h,f
  3987  0C28  3EFF               	addlw	-1
  3988  0C29  1D03               	skipz
  3989  0C2A  2C25               	goto	u4155
  3990                           	line	12
  3991                           	
  3992  0C2B                     l12716:	
  3993  0C2B  3001               	movlw	(01h)
  3994  0C2C  00AC               	movwf	(??___lwmod+0)^080h+0
  3995  0C2D  082C               	movf	(??___lwmod+0)^080h+0,w
  3996  0C2E  07AD               	addwf	(___lwmod@counter)^080h,f
  3997  0C2F  2C30               	goto	l12718
  3998                           	line	13
  3999                           	
  4000  0C30                     l9957:	
  4001                           	line	10
  4002                           	
  4003  0C30                     l12718:	
  4004  0C30  1FA9               	btfss	(___lwmod@divisor+1)^080h,(15)&7
  4005  0C31  2C33               	goto	u4161
  4006  0C32  2C34               	goto	u4160
  4007  0C33                     u4161:
  4008  0C33  2C24               	goto	l12714
  4009  0C34                     u4160:
  4010  0C34  2C36               	goto	l12720
  4011                           	
  4012  0C35                     l9959:	
  4013  0C35  2C36               	goto	l12720
  4014                           	line	14
  4015                           	
  4016  0C36                     l9960:	
  4017                           	line	15
  4018                           	
  4019  0C36                     l12720:	
  4020  0C36  0829               	movf	(___lwmod@divisor+1)^080h,w
  4021  0C37  022B               	subwf	(___lwmod@dividend+1)^080h,w
  4022  0C38  1D03               	skipz
  4023  0C39  2C3C               	goto	u4175
  4024  0C3A  0828               	movf	(___lwmod@divisor)^080h,w
  4025  0C3B  022A               	subwf	(___lwmod@dividend)^080h,w
  4026  0C3C                     u4175:
  4027  0C3C  1C03               	skipc
  4028  0C3D  2C3F               	goto	u4171
  4029  0C3E  2C40               	goto	u4170
  4030  0C3F                     u4171:
  4031  0C3F  2C47               	goto	l12724
  4032  0C40                     u4170:
  4033                           	line	16
  4034                           	
  4035  0C40                     l12722:	
  4036  0C40  0828               	movf	(___lwmod@divisor)^080h,w
  4037  0C41  02AA               	subwf	(___lwmod@dividend)^080h,f
  4038  0C42  0829               	movf	(___lwmod@divisor+1)^080h,w
  4039  0C43  1C03               	skipc
  4040  0C44  03AB               	decf	(___lwmod@dividend+1)^080h,f
  4041  0C45  02AB               	subwf	(___lwmod@dividend+1)^080h,f
  4042  0C46  2C47               	goto	l12724
  4043                           	
  4044  0C47                     l9961:	
  4045                           	line	17
  4046                           	
  4047  0C47                     l12724:	
  4048  0C47  3001               	movlw	01h
  4049                           	
  4050  0C48                     u4185:
  4051  0C48  1003               	clrc
  4052  0C49  0CA9               	rrf	(___lwmod@divisor+1)^080h,f
  4053  0C4A  0CA8               	rrf	(___lwmod@divisor)^080h,f
  4054  0C4B  3EFF               	addlw	-1
  4055  0C4C  1D03               	skipz
  4056  0C4D  2C48               	goto	u4185
  4057                           	line	18
  4058                           	
  4059  0C4E                     l12726:	
  4060  0C4E  3001               	movlw	low(01h)
  4061  0C4F  02AD               	subwf	(___lwmod@counter)^080h,f
  4062  0C50  1D03               	btfss	status,2
  4063  0C51  2C53               	goto	u4191
  4064  0C52  2C54               	goto	u4190
  4065  0C53                     u4191:
  4066  0C53  2C36               	goto	l12720
  4067  0C54                     u4190:
  4068  0C54  2C56               	goto	l12728
  4069                           	
  4070  0C55                     l9962:	
  4071  0C55  2C56               	goto	l12728
  4072                           	line	19
  4073                           	
  4074  0C56                     l9956:	
  4075                           	line	20
  4076                           	
  4077  0C56                     l12728:	
  4078  0C56  082B               	movf	(___lwmod@dividend+1)^080h,w
  4079  0C57  01A9               	clrf	(?___lwmod+1)^080h
  4080  0C58  07A9               	addwf	(?___lwmod+1)^080h
  4081  0C59  082A               	movf	(___lwmod@dividend)^080h,w
  4082  0C5A  01A8               	clrf	(?___lwmod)^080h
  4083  0C5B  07A8               	addwf	(?___lwmod)^080h
  4084                           
  4085  0C5C  2C5D               	goto	l9963
  4086                           	
  4087  0C5D                     l12730:	
  4088                           	line	21
  4089                           	
  4090  0C5D                     l9963:	
  4091  0C5D  0008               	return
  4092                           	opt stack 0
  4093                           GLOBAL	__end_of___lwmod
  4094  0C5E                     	__end_of___lwmod:
  4095 ;; =============== function ___lwmod ends ============
  4096                           
  4097                           	signat	___lwmod,8314
  4098                           	global	___lwdiv
  4099                           psect	text1032,local,class=CODE,delta=2
  4100                           global __ptext1032
  4101  0D86                     __ptext1032:
  4102                           
  4103 ;; *************** function ___lwdiv *****************
  4104 ;; Defined at:
  4105 ;;		line 5 in file "C:\Program Files (x86)\HI-TECH Software\PICC\9.82\sources\lwdiv.c"
  4106 ;; Parameters:    Size  Location     Type
  4107 ;;  divisor         2    0[BANK1 ] unsigned int 
  4108 ;;  dividend        2    2[BANK1 ] unsigned int 
  4109 ;; Auto vars:     Size  Location     Type
  4110 ;;  quotient        2    5[BANK1 ] unsigned int 
  4111 ;;  counter         1    7[BANK1 ] unsigned char 
  4112 ;; Return value:  Size  Location     Type
  4113 ;;                  2    0[BANK1 ] unsigned int 
  4114 ;; Registers used:
  4115 ;;		wreg, status,2, status,0
  4116 ;; Tracked objects:
  4117 ;;		On entry : 0/0
  4118 ;;		On exit  : 0/0
  4119 ;;		Unchanged: 0/0
  4120 ;; Data sizes:     COMMON   BANK0   BANK1   BANK3   BANK2
  4121 ;;      Params:         0       0       4       0       0
  4122 ;;      Locals:         0       0       3       0       0
  4123 ;;      Temps:          0       0       1       0       0
  4124 ;;      Totals:         0       0       8       0       0
  4125 ;;Total ram usage:        8 bytes
  4126 ;; Hardware stack levels used:    1
  4127 ;; Hardware stack levels required when called:    4
  4128 ;; This function calls:
  4129 ;;		Nothing
  4130 ;; This function is called by:
  4131 ;;		_printf
  4132 ;; This function uses a non-reentrant model
  4133 ;;
  4134                           psect	text1032
  4135                           	file	"C:\Program Files (x86)\HI-TECH Software\PICC\9.82\sources\lwdiv.c"
  4136                           	line	5
  4137                           	global	__size_of___lwdiv
  4138  0050                     	__size_of___lwdiv	equ	__end_of___lwdiv-___lwdiv
  4139                           	
  4140  0D86                     ___lwdiv:	
  4141                           	opt	stack 2
  4142                           ; Regs used in ___lwdiv: [wreg+status,2+status,0]
  4143                           	line	9
  4144                           	
  4145  0D86                     l12684:	
  4146  0D86  1683               	bsf	status, 5	;RP0=1, select bank1
  4147  0D87  1303               	bcf	status, 6	;RP1=0, select bank1
  4148  0D88  01A5               	clrf	(___lwdiv@quotient)^080h
  4149  0D89  01A6               	clrf	(___lwdiv@quotient+1)^080h
  4150                           	line	10
  4151                           	
  4152  0D8A                     l12686:	
  4153  0D8A  0821               	movf	(___lwdiv@divisor+1)^080h,w
  4154  0D8B  0420               	iorwf	(___lwdiv@divisor)^080h,w
  4155  0D8C  1903               	skipnz
  4156  0D8D  2D8F               	goto	u4071
  4157  0D8E  2D90               	goto	u4070
  4158  0D8F                     u4071:
  4159  0D8F  2DCE               	goto	l12706
  4160  0D90                     u4070:
  4161                           	line	11
  4162                           	
  4163  0D90                     l12688:	
  4164  0D90  01A7               	clrf	(___lwdiv@counter)^080h
  4165  0D91  1403               	bsf	status,0
  4166  0D92  0DA7               	rlf	(___lwdiv@counter)^080h,f
  4167                           	line	12
  4168  0D93  2DA0               	goto	l12694
  4169                           	
  4170  0D94                     l9948:	
  4171                           	line	13
  4172                           	
  4173  0D94                     l12690:	
  4174  0D94  3001               	movlw	01h
  4175                           	
  4176  0D95                     u4085:
  4177  0D95  1003               	clrc
  4178  0D96  0DA0               	rlf	(___lwdiv@divisor)^080h,f
  4179  0D97  0DA1               	rlf	(___lwdiv@divisor+1)^080h,f
  4180  0D98  3EFF               	addlw	-1
  4181  0D99  1D03               	skipz
  4182  0D9A  2D95               	goto	u4085
  4183                           	line	14
  4184                           	
  4185  0D9B                     l12692:	
  4186  0D9B  3001               	movlw	(01h)
  4187  0D9C  00A4               	movwf	(??___lwdiv+0)^080h+0
  4188  0D9D  0824               	movf	(??___lwdiv+0)^080h+0,w
  4189  0D9E  07A7               	addwf	(___lwdiv@counter)^080h,f
  4190  0D9F  2DA0               	goto	l12694
  4191                           	line	15
  4192                           	
  4193  0DA0                     l9947:	
  4194                           	line	12
  4195                           	
  4196  0DA0                     l12694:	
  4197  0DA0  1FA1               	btfss	(___lwdiv@divisor+1)^080h,(15)&7
  4198  0DA1  2DA3               	goto	u4091
  4199  0DA2  2DA4               	goto	u4090
  4200  0DA3                     u4091:
  4201  0DA3  2D94               	goto	l12690
  4202  0DA4                     u4090:
  4203  0DA4  2DA6               	goto	l12696
  4204                           	
  4205  0DA5                     l9949:	
  4206  0DA5  2DA6               	goto	l12696
  4207                           	line	16
  4208                           	
  4209  0DA6                     l9950:	
  4210                           	line	17
  4211                           	
  4212  0DA6                     l12696:	
  4213  0DA6  3001               	movlw	01h
  4214                           	
  4215  0DA7                     u4105:
  4216  0DA7  1003               	clrc
  4217  0DA8  0DA5               	rlf	(___lwdiv@quotient)^080h,f
  4218  0DA9  0DA6               	rlf	(___lwdiv@quotient+1)^080h,f
  4219  0DAA  3EFF               	addlw	-1
  4220  0DAB  1D03               	skipz
  4221  0DAC  2DA7               	goto	u4105
  4222                           	line	18
  4223  0DAD  0821               	movf	(___lwdiv@divisor+1)^080h,w
  4224  0DAE  0223               	subwf	(___lwdiv@dividend+1)^080h,w
  4225  0DAF  1D03               	skipz
  4226  0DB0  2DB3               	goto	u4115
  4227  0DB1  0820               	movf	(___lwdiv@divisor)^080h,w
  4228  0DB2  0222               	subwf	(___lwdiv@dividend)^080h,w
  4229  0DB3                     u4115:
  4230  0DB3  1C03               	skipc
  4231  0DB4  2DB6               	goto	u4111
  4232  0DB5  2DB7               	goto	u4110
  4233  0DB6                     u4111:
  4234  0DB6  2DBF               	goto	l12702
  4235  0DB7                     u4110:
  4236                           	line	19
  4237                           	
  4238  0DB7                     l12698:	
  4239  0DB7  0820               	movf	(___lwdiv@divisor)^080h,w
  4240  0DB8  02A2               	subwf	(___lwdiv@dividend)^080h,f
  4241  0DB9  0821               	movf	(___lwdiv@divisor+1)^080h,w
  4242  0DBA  1C03               	skipc
  4243  0DBB  03A3               	decf	(___lwdiv@dividend+1)^080h,f
  4244  0DBC  02A3               	subwf	(___lwdiv@dividend+1)^080h,f
  4245                           	line	20
  4246                           	
  4247  0DBD                     l12700:	
  4248  0DBD  1425               	bsf	(___lwdiv@quotient)^080h+(0/8),(0)&7
  4249  0DBE  2DBF               	goto	l12702
  4250                           	line	21
  4251                           	
  4252  0DBF                     l9951:	
  4253                           	line	22
  4254                           	
  4255  0DBF                     l12702:	
  4256  0DBF  3001               	movlw	01h
  4257                           	
  4258  0DC0                     u4125:
  4259  0DC0  1003               	clrc
  4260  0DC1  0CA1               	rrf	(___lwdiv@divisor+1)^080h,f
  4261  0DC2  0CA0               	rrf	(___lwdiv@divisor)^080h,f
  4262  0DC3  3EFF               	addlw	-1
  4263  0DC4  1D03               	skipz
  4264  0DC5  2DC0               	goto	u4125
  4265                           	line	23
  4266                           	
  4267  0DC6                     l12704:	
  4268  0DC6  3001               	movlw	low(01h)
  4269  0DC7  02A7               	subwf	(___lwdiv@counter)^080h,f
  4270  0DC8  1D03               	btfss	status,2
  4271  0DC9  2DCB               	goto	u4131
  4272  0DCA  2DCC               	goto	u4130
  4273  0DCB                     u4131:
  4274  0DCB  2DA6               	goto	l12696
  4275  0DCC                     u4130:
  4276  0DCC  2DCE               	goto	l12706
  4277                           	
  4278  0DCD                     l9952:	
  4279  0DCD  2DCE               	goto	l12706
  4280                           	line	24
  4281                           	
  4282  0DCE                     l9946:	
  4283                           	line	25
  4284                           	
  4285  0DCE                     l12706:	
  4286  0DCE  0826               	movf	(___lwdiv@quotient+1)^080h,w
  4287  0DCF  01A1               	clrf	(?___lwdiv+1)^080h
  4288  0DD0  07A1               	addwf	(?___lwdiv+1)^080h
  4289  0DD1  0825               	movf	(___lwdiv@quotient)^080h,w
  4290  0DD2  01A0               	clrf	(?___lwdiv)^080h
  4291  0DD3  07A0               	addwf	(?___lwdiv)^080h
  4292                           
  4293  0DD4  2DD5               	goto	l9953
  4294                           	
  4295  0DD5                     l12708:	
  4296                           	line	26
  4297                           	
  4298  0DD5                     l9953:	
  4299  0DD5  0008               	return
  4300                           	opt stack 0
  4301                           GLOBAL	__end_of___lwdiv
  4302  0DD6                     	__end_of___lwdiv:
  4303 ;; =============== function ___lwdiv ends ============
  4304                           
  4305                           	signat	___lwdiv,8314
  4306                           	global	_putch
  4307                           psect	text1033,local,class=CODE,delta=2
  4308                           global __ptext1033
  4309  09FA                     __ptext1033:
  4310                           
  4311 ;; *************** function _putch *****************
  4312 ;; Defined at:
  4313 ;;		line 13 in file "D:\6_pic_project\00_Design_Flow_Car\Driver\Usart.c"
  4314 ;; Parameters:    Size  Location     Type
  4315 ;;  ch              1    wreg     unsigned char 
  4316 ;; Auto vars:     Size  Location     Type
  4317 ;;  ch              1    0[BANK1 ] unsigned char 
  4318 ;; Return value:  Size  Location     Type
  4319 ;;		None               void
  4320 ;; Registers used:
  4321 ;;		wreg
  4322 ;; Tracked objects:
  4323 ;;		On entry : 0/0
  4324 ;;		On exit  : 0/0
  4325 ;;		Unchanged: 0/0
  4326 ;; Data sizes:     COMMON   BANK0   BANK1   BANK3   BANK2
  4327 ;;      Params:         0       0       0       0       0
  4328 ;;      Locals:         0       0       1       0       0
  4329 ;;      Temps:          0       0       0       0       0
  4330 ;;      Totals:         0       0       1       0       0
  4331 ;;Total ram usage:        1 bytes
  4332 ;; Hardware stack levels used:    1
  4333 ;; Hardware stack levels required when called:    4
  4334 ;; This function calls:
  4335 ;;		Nothing
  4336 ;; This function is called by:
  4337 ;;		_printf
  4338 ;; This function uses a non-reentrant model
  4339 ;;
  4340                           psect	text1033
  4341                           	file	"D:\6_pic_project\00_Design_Flow_Car\Driver\Usart.c"
  4342                           	line	13
  4343                           	global	__size_of_putch
  4344  0010                     	__size_of_putch	equ	__end_of_putch-_putch
  4345                           	
  4346  09FA                     _putch:	
  4347                           	opt	stack 2
  4348                           ; Regs used in _putch: [wreg]
  4349                           ;putch@ch stored from wreg
  4350  09FA  1683               	bsf	status, 5	;RP0=1, select bank1
  4351  09FB  1303               	bcf	status, 6	;RP1=0, select bank1
  4352  09FC  00A0               	movwf	(putch@ch)^080h
  4353                           	line	14
  4354                           	
  4355  09FD                     l12666:	
  4356                           ;Usart.c: 14: TXREG=ch;
  4357  09FD  0820               	movf	(putch@ch)^080h,w
  4358  09FE  1283               	bcf	status, 5	;RP0=0, select bank0
  4359  09FF  1303               	bcf	status, 6	;RP1=0, select bank0
  4360  0A00  0099               	movwf	(25)	;volatile
  4361                           	line	15
  4362                           ;Usart.c: 15: while(TRMT==0);
  4363  0A01  2A02               	goto	l5754
  4364                           	
  4365  0A02                     l5755:	
  4366                           	
  4367  0A02                     l5754:	
  4368  0A02  1683               	bsf	status, 5	;RP0=1, select bank1
  4369  0A03  1303               	bcf	status, 6	;RP1=0, select bank1
  4370  0A04  1C98               	btfss	(1217/8)^080h,(1217)&7
  4371  0A05  2A07               	goto	u4031
  4372  0A06  2A08               	goto	u4030
  4373  0A07                     u4031:
  4374  0A07  2A02               	goto	l5754
  4375  0A08                     u4030:
  4376  0A08  2A09               	goto	l5757
  4377                           	
  4378  0A09                     l5756:	
  4379                           	line	16
  4380                           	
  4381  0A09                     l5757:	
  4382  0A09  0008               	return
  4383                           	opt stack 0
  4384                           GLOBAL	__end_of_putch
  4385  0A0A                     	__end_of_putch:
  4386 ;; =============== function _putch ends ============
  4387                           
  4388                           	signat	_putch,4216
  4389                           	global	_LCD1602_Delay
  4390                           psect	text1034,local,class=CODE,delta=2
  4391                           global __ptext1034
  4392  0AD0                     __ptext1034:
  4393                           
  4394 ;; *************** function _LCD1602_Delay *****************
  4395 ;; Defined at:
  4396 ;;		line 11 in file "D:\6_pic_project\00_Design_Flow_Car\Driver\LCD1602.c"
  4397 ;; Parameters:    Size  Location     Type
  4398 ;;		None
  4399 ;; Auto vars:     Size  Location     Type
  4400 ;;  i               2    0[BANK1 ] unsigned int 
  4401 ;; Return value:  Size  Location     Type
  4402 ;;		None               void
  4403 ;; Registers used:
  4404 ;;		wreg, status,2, status,0
  4405 ;; Tracked objects:
  4406 ;;		On entry : 0/0
  4407 ;;		On exit  : 0/0
  4408 ;;		Unchanged: 0/0
  4409 ;; Data sizes:     COMMON   BANK0   BANK1   BANK3   BANK2
  4410 ;;      Params:         0       0       0       0       0
  4411 ;;      Locals:         0       0       2       0       0
  4412 ;;      Temps:          0       0       0       0       0
  4413 ;;      Totals:         0       0       2       0       0
  4414 ;;Total ram usage:        2 bytes
  4415 ;; Hardware stack levels used:    1
  4416 ;; Hardware stack levels required when called:    4
  4417 ;; This function calls:
  4418 ;;		Nothing
  4419 ;; This function is called by:
  4420 ;;		_LCD1602_WriteCommand
  4421 ;;		_LCD1602_WriteData
  4422 ;;		_LCD1602_Init
  4423 ;; This function uses a non-reentrant model
  4424 ;;
  4425                           psect	text1034
  4426                           	file	"D:\6_pic_project\00_Design_Flow_Car\Driver\LCD1602.c"
  4427                           	line	11
  4428                           	global	__size_of_LCD1602_Delay
  4429  001C                     	__size_of_LCD1602_Delay	equ	__end_of_LCD1602_Delay-_LCD1602_Delay
  4430                           	
  4431  0AD0                     _LCD1602_Delay:	
  4432                           	opt	stack 1
  4433                           ; Regs used in _LCD1602_Delay: [wreg+status,2+status,0]
  4434                           	line	13
  4435                           	
  4436  0AD0                     l12400:	
  4437                           ;LCD1602.c: 12: unsigned int i;
  4438                           ;LCD1602.c: 13: for(i=999;i>0;i--);
  4439  0AD0  30E7               	movlw	low(03E7h)
  4440  0AD1  1683               	bsf	status, 5	;RP0=1, select bank1
  4441  0AD2  1303               	bcf	status, 6	;RP1=0, select bank1
  4442  0AD3  00A0               	movwf	(LCD1602_Delay@i)^080h
  4443  0AD4  3003               	movlw	high(03E7h)
  4444  0AD5  00A1               	movwf	((LCD1602_Delay@i)^080h)+1
  4445                           	
  4446  0AD6                     l12402:	
  4447  0AD6  0821               	movf	((LCD1602_Delay@i+1)^080h),w
  4448  0AD7  0420               	iorwf	((LCD1602_Delay@i)^080h),w
  4449  0AD8  1D03               	skipz
  4450  0AD9  2ADB               	goto	u3481
  4451  0ADA  2ADC               	goto	u3480
  4452  0ADB                     u3481:
  4453  0ADB  2ADE               	goto	l12406
  4454  0ADC                     u3480:
  4455  0ADC  2AEB               	goto	l1467
  4456                           	
  4457  0ADD                     l12404:	
  4458  0ADD  2AEB               	goto	l1467
  4459                           	
  4460  0ADE                     l1465:	
  4461                           	
  4462  0ADE                     l12406:	
  4463  0ADE  3001               	movlw	low(01h)
  4464  0ADF  02A0               	subwf	(LCD1602_Delay@i)^080h,f
  4465  0AE0  3000               	movlw	high(01h)
  4466  0AE1  1C03               	skipc
  4467  0AE2  03A1               	decf	(LCD1602_Delay@i+1)^080h,f
  4468  0AE3  02A1               	subwf	(LCD1602_Delay@i+1)^080h,f
  4469                           	
  4470  0AE4                     l12408:	
  4471  0AE4  0821               	movf	((LCD1602_Delay@i+1)^080h),w
  4472  0AE5  0420               	iorwf	((LCD1602_Delay@i)^080h),w
  4473  0AE6  1D03               	skipz
  4474  0AE7  2AE9               	goto	u3491
  4475  0AE8  2AEA               	goto	u3490
  4476  0AE9                     u3491:
  4477  0AE9  2ADE               	goto	l12406
  4478  0AEA                     u3490:
  4479  0AEA  2AEB               	goto	l1467
  4480                           	
  4481  0AEB                     l1466:	
  4482                           	line	14
  4483                           	
  4484  0AEB                     l1467:	
  4485  0AEB  0008               	return
  4486                           	opt stack 0
  4487                           GLOBAL	__end_of_LCD1602_Delay
  4488  0AEC                     	__end_of_LCD1602_Delay:
  4489 ;; =============== function _LCD1602_Delay ends ============
  4490                           
  4491                           	signat	_LCD1602_Delay,88
  4492                           	global	_Velociy_PID_Init
  4493                           psect	text1035,local,class=CODE,delta=2
  4494                           global __ptext1035
  4495  0A58                     __ptext1035:
  4496                           
  4497 ;; *************** function _Velociy_PID_Init *****************
  4498 ;; Defined at:
  4499 ;;		line 22 in file "D:\6_pic_project\00_Design_Flow_Car\Driver\pid.c"
  4500 ;; Parameters:    Size  Location     Type
  4501 ;;		None
  4502 ;; Auto vars:     Size  Location     Type
  4503 ;;		None
  4504 ;; Return value:  Size  Location     Type
  4505 ;;		None               void
  4506 ;; Registers used:
  4507 ;;		wreg
  4508 ;; Tracked objects:
  4509 ;;		On entry : 0/0
  4510 ;;		On exit  : 0/0
  4511 ;;		Unchanged: 0/0
  4512 ;; Data sizes:     COMMON   BANK0   BANK1   BANK3   BANK2
  4513 ;;      Params:         0       0       0       0       0
  4514 ;;      Locals:         0       0       0       0       0
  4515 ;;      Temps:          0       0       0       0       0
  4516 ;;      Totals:         0       0       0       0       0
  4517 ;;Total ram usage:        0 bytes
  4518 ;; Hardware stack levels used:    1
  4519 ;; Hardware stack levels required when called:    4
  4520 ;; This function calls:
  4521 ;;		Nothing
  4522 ;; This function is called by:
  4523 ;;		_main
  4524 ;; This function uses a non-reentrant model
  4525 ;;
  4526                           psect	text1035
  4527                           	file	"D:\6_pic_project\00_Design_Flow_Car\Driver\pid.c"
  4528                           	line	22
  4529                           	global	__size_of_Velociy_PID_Init
  4530  0015                     	__size_of_Velociy_PID_Init	equ	__end_of_Velociy_PID_Init-_Velociy_PID_Init
  4531                           	
  4532  0A58                     _Velociy_PID_Init:	
  4533                           	opt	stack 3
  4534                           ; Regs used in _Velociy_PID_Init: [wreg]
  4535                           	line	23
  4536                           	
  4537  0A58                     l12398:	
  4538                           ;pid.c: 23: Velocity.Kp=5.8;
  4539  0A58  309A               	movlw	0x9a
  4540  0A59  1683               	bsf	status, 5	;RP0=1, select bank3
  4541  0A5A  1703               	bsf	status, 6	;RP1=1, select bank3
  4542  0A5B  0090               	movwf	(_Velocity)^0180h
  4543  0A5C  30B9               	movlw	0xb9
  4544  0A5D  0091               	movwf	(_Velocity+1)^0180h
  4545  0A5E  3040               	movlw	0x40
  4546  0A5F  0092               	movwf	(_Velocity+2)^0180h
  4547                           	line	24
  4548                           ;pid.c: 24: Velocity.Ki=0.06;
  4549  0A60  30C3               	movlw	0xc3
  4550  0A61  0093               	movwf	0+(_Velocity)^0180h+03h
  4551  0A62  3075               	movlw	0x75
  4552  0A63  0094               	movwf	1+(_Velocity)^0180h+03h
  4553  0A64  303D               	movlw	0x3d
  4554  0A65  0095               	movwf	2+(_Velocity)^0180h+03h
  4555                           	line	25
  4556                           ;pid.c: 25: Velocity.Kd=0;
  4557  0A66  3000               	movlw	0x0
  4558  0A67  0096               	movwf	0+(_Velocity)^0180h+06h
  4559  0A68  3000               	movlw	0x0
  4560  0A69  0097               	movwf	1+(_Velocity)^0180h+06h
  4561  0A6A  3000               	movlw	0x0
  4562  0A6B  0098               	movwf	2+(_Velocity)^0180h+06h
  4563                           	line	26
  4564                           	
  4565  0A6C                     l9217:	
  4566  0A6C  0008               	return
  4567                           	opt stack 0
  4568                           GLOBAL	__end_of_Velociy_PID_Init
  4569  0A6D                     	__end_of_Velociy_PID_Init:
  4570 ;; =============== function _Velociy_PID_Init ends ============
  4571                           
  4572                           	signat	_Velociy_PID_Init,88
  4573                           	global	_Encoder_Init
  4574                           psect	text1036,local,class=CODE,delta=2
  4575                           global __ptext1036
  4576  09DC                     __ptext1036:
  4577                           
  4578 ;; *************** function _Encoder_Init *****************
  4579 ;; Defined at:
  4580 ;;		line 4 in file "D:\6_pic_project\00_Design_Flow_Car\Driver\Encoder.c"
  4581 ;; Parameters:    Size  Location     Type
  4582 ;;		None
  4583 ;; Auto vars:     Size  Location     Type
  4584 ;;		None
  4585 ;; Return value:  Size  Location     Type
  4586 ;;		None               void
  4587 ;; Registers used:
  4588 ;;		wreg, status,2
  4589 ;; Tracked objects:
  4590 ;;		On entry : 0/0
  4591 ;;		On exit  : 0/0
  4592 ;;		Unchanged: 0/0
  4593 ;; Data sizes:     COMMON   BANK0   BANK1   BANK3   BANK2
  4594 ;;      Params:         0       0       0       0       0
  4595 ;;      Locals:         0       0       0       0       0
  4596 ;;      Temps:          0       0       0       0       0
  4597 ;;      Totals:         0       0       0       0       0
  4598 ;;Total ram usage:        0 bytes
  4599 ;; Hardware stack levels used:    1
  4600 ;; Hardware stack levels required when called:    4
  4601 ;; This function calls:
  4602 ;;		Nothing
  4603 ;; This function is called by:
  4604 ;;		_main
  4605 ;; This function uses a non-reentrant model
  4606 ;;
  4607                           psect	text1036
  4608                           	file	"D:\6_pic_project\00_Design_Flow_Car\Driver\Encoder.c"
  4609                           	line	4
  4610                           	global	__size_of_Encoder_Init
  4611  000E                     	__size_of_Encoder_Init	equ	__end_of_Encoder_Init-_Encoder_Init
  4612                           	
  4613  09DC                     _Encoder_Init:	
  4614                           	opt	stack 3
  4615                           ; Regs used in _Encoder_Init: [wreg+status,2]
  4616                           	line	5
  4617                           	
  4618  09DC                     l12388:	
  4619                           ;Encoder.c: 5: TRISB0=1;
  4620  09DC  1683               	bsf	status, 5	;RP0=1, select bank1
  4621  09DD  1303               	bcf	status, 6	;RP1=0, select bank1
  4622  09DE  1406               	bsf	(1072/8)^080h,(1072)&7
  4623                           	line	8
  4624                           ;Encoder.c: 8: GIE=1;
  4625  09DF  178B               	bsf	(95/8),(95)&7
  4626                           	line	9
  4627                           ;Encoder.c: 9: INTE=1;
  4628  09E0  160B               	bsf	(92/8),(92)&7
  4629                           	line	10
  4630                           ;Encoder.c: 10: INTF=0;
  4631  09E1  108B               	bcf	(89/8),(89)&7
  4632                           	line	12
  4633                           	
  4634  09E2                     l12390:	
  4635                           ;Encoder.c: 12: OPTION_REG=0B01000111;
  4636  09E2  3047               	movlw	(047h)
  4637  09E3  0081               	movwf	(129)^080h	;volatile
  4638                           	line	15
  4639                           	
  4640  09E4                     l12392:	
  4641                           ;Encoder.c: 15: T0IE=1;
  4642  09E4  168B               	bsf	(93/8),(93)&7
  4643                           	line	16
  4644                           	
  4645  09E5                     l12394:	
  4646                           ;Encoder.c: 16: T0IF=0;
  4647  09E5  110B               	bcf	(90/8),(90)&7
  4648                           	line	17
  4649                           	
  4650  09E6                     l12396:	
  4651                           ;Encoder.c: 17: TMR0=0;
  4652  09E6  1283               	bcf	status, 5	;RP0=0, select bank0
  4653  09E7  1303               	bcf	status, 6	;RP1=0, select bank0
  4654  09E8  0181               	clrf	(1)	;volatile
  4655                           	line	18
  4656                           	
  4657  09E9                     l8526:	
  4658  09E9  0008               	return
  4659                           	opt stack 0
  4660                           GLOBAL	__end_of_Encoder_Init
  4661  09EA                     	__end_of_Encoder_Init:
  4662 ;; =============== function _Encoder_Init ends ============
  4663                           
  4664                           	signat	_Encoder_Init,88
  4665                           	global	_Motor_CCP_PWM_Init
  4666                           psect	text1037,local,class=CODE,delta=2
  4667                           global __ptext1037
  4668  0A44                     __ptext1037:
  4669                           
  4670 ;; *************** function _Motor_CCP_PWM_Init *****************
  4671 ;; Defined at:
  4672 ;;		line 31 in file "D:\6_pic_project\00_Design_Flow_Car\Driver\Motor.c"
  4673 ;; Parameters:    Size  Location     Type
  4674 ;;		None
  4675 ;; Auto vars:     Size  Location     Type
  4676 ;;		None
  4677 ;; Return value:  Size  Location     Type
  4678 ;;		None               void
  4679 ;; Registers used:
  4680 ;;		wreg, status,2
  4681 ;; Tracked objects:
  4682 ;;		On entry : 0/0
  4683 ;;		On exit  : 0/0
  4684 ;;		Unchanged: 0/0
  4685 ;; Data sizes:     COMMON   BANK0   BANK1   BANK3   BANK2
  4686 ;;      Params:         0       0       0       0       0
  4687 ;;      Locals:         0       0       0       0       0
  4688 ;;      Temps:          0       0       0       0       0
  4689 ;;      Totals:         0       0       0       0       0
  4690 ;;Total ram usage:        0 bytes
  4691 ;; Hardware stack levels used:    1
  4692 ;; Hardware stack levels required when called:    4
  4693 ;; This function calls:
  4694 ;;		Nothing
  4695 ;; This function is called by:
  4696 ;;		_main
  4697 ;; This function uses a non-reentrant model
  4698 ;;
  4699                           psect	text1037
  4700                           	file	"D:\6_pic_project\00_Design_Flow_Car\Driver\Motor.c"
  4701                           	line	31
  4702                           	global	__size_of_Motor_CCP_PWM_Init
  4703  0014                     	__size_of_Motor_CCP_PWM_Init	equ	__end_of_Motor_CCP_PWM_Init-_Motor_CCP_PWM_Init
  4704                           	
  4705  0A44                     _Motor_CCP_PWM_Init:	
  4706                           	opt	stack 3
  4707                           ; Regs used in _Motor_CCP_PWM_Init: [wreg+status,2]
  4708                           	line	33
  4709                           	
  4710  0A44                     l12380:	
  4711                           ;Motor.c: 33: CCP1CON=0X0C;
  4712  0A44  300C               	movlw	(0Ch)
  4713  0A45  1283               	bcf	status, 5	;RP0=0, select bank0
  4714  0A46  1303               	bcf	status, 6	;RP1=0, select bank0
  4715  0A47  0097               	movwf	(23)	;volatile
  4716                           	line	34
  4717                           ;Motor.c: 34: CCPR1L=50;
  4718  0A48  3032               	movlw	(032h)
  4719  0A49  0095               	movwf	(21)	;volatile
  4720                           	line	35
  4721                           ;Motor.c: 35: PR2=100;
  4722  0A4A  3064               	movlw	(064h)
  4723  0A4B  1683               	bsf	status, 5	;RP0=1, select bank1
  4724  0A4C  1303               	bcf	status, 6	;RP1=0, select bank1
  4725  0A4D  0092               	movwf	(146)^080h	;volatile
  4726                           	line	38
  4727                           ;Motor.c: 38: CCP2CON = 0x0c;
  4728  0A4E  300C               	movlw	(0Ch)
  4729  0A4F  1283               	bcf	status, 5	;RP0=0, select bank0
  4730  0A50  1303               	bcf	status, 6	;RP1=0, select bank0
  4731  0A51  009D               	movwf	(29)	;volatile
  4732                           	line	39
  4733                           ;Motor.c: 39: CCPR2L = 50;
  4734  0A52  3032               	movlw	(032h)
  4735  0A53  009B               	movwf	(27)	;volatile
  4736                           	line	42
  4737                           	
  4738  0A54                     l12382:	
  4739                           ;Motor.c: 42: T2CON=0;
  4740  0A54  0192               	clrf	(18)	;volatile
  4741                           	line	43
  4742                           	
  4743  0A55                     l12384:	
  4744                           ;Motor.c: 43: TMR2=0;
  4745  0A55  0191               	clrf	(17)	;volatile
  4746                           	line	44
  4747                           	
  4748  0A56                     l12386:	
  4749                           ;Motor.c: 44: TMR2ON=1;
  4750  0A56  1512               	bsf	(146/8),(146)&7
  4751                           	line	45
  4752                           	
  4753  0A57                     l4382:	
  4754  0A57  0008               	return
  4755                           	opt stack 0
  4756                           GLOBAL	__end_of_Motor_CCP_PWM_Init
  4757  0A58                     	__end_of_Motor_CCP_PWM_Init:
  4758 ;; =============== function _Motor_CCP_PWM_Init ends ============
  4759                           
  4760                           	signat	_Motor_CCP_PWM_Init,88
  4761                           	global	_Motor_GPIO_Init
  4762                           psect	text1038,local,class=CODE,delta=2
  4763                           global __ptext1038
  4764  09C7                     __ptext1038:
  4765                           
  4766 ;; *************** function _Motor_GPIO_Init *****************
  4767 ;; Defined at:
  4768 ;;		line 21 in file "D:\6_pic_project\00_Design_Flow_Car\Driver\Motor.c"
  4769 ;; Parameters:    Size  Location     Type
  4770 ;;		None
  4771 ;; Auto vars:     Size  Location     Type
  4772 ;;		None
  4773 ;; Return value:  Size  Location     Type
  4774 ;;		None               void
  4775 ;; Registers used:
  4776 ;;		None
  4777 ;; Tracked objects:
  4778 ;;		On entry : 0/0
  4779 ;;		On exit  : 0/0
  4780 ;;		Unchanged: 0/0
  4781 ;; Data sizes:     COMMON   BANK0   BANK1   BANK3   BANK2
  4782 ;;      Params:         0       0       0       0       0
  4783 ;;      Locals:         0       0       0       0       0
  4784 ;;      Temps:          0       0       0       0       0
  4785 ;;      Totals:         0       0       0       0       0
  4786 ;;Total ram usage:        0 bytes
  4787 ;; Hardware stack levels used:    1
  4788 ;; Hardware stack levels required when called:    4
  4789 ;; This function calls:
  4790 ;;		Nothing
  4791 ;; This function is called by:
  4792 ;;		_main
  4793 ;; This function uses a non-reentrant model
  4794 ;;
  4795                           psect	text1038
  4796                           	file	"D:\6_pic_project\00_Design_Flow_Car\Driver\Motor.c"
  4797                           	line	21
  4798                           	global	__size_of_Motor_GPIO_Init
  4799  0009                     	__size_of_Motor_GPIO_Init	equ	__end_of_Motor_GPIO_Init-_Motor_GPIO_Init
  4800                           	
  4801  09C7                     _Motor_GPIO_Init:	
  4802                           	opt	stack 3
  4803                           ; Regs used in _Motor_GPIO_Init: []
  4804                           	line	22
  4805                           	
  4806  09C7                     l12378:	
  4807                           ;Motor.c: 22: TRISB4=0;
  4808  09C7  1683               	bsf	status, 5	;RP0=1, select bank1
  4809  09C8  1303               	bcf	status, 6	;RP1=0, select bank1
  4810  09C9  1206               	bcf	(1076/8)^080h,(1076)&7
  4811                           	line	23
  4812                           ;Motor.c: 23: TRISB5=0;
  4813  09CA  1286               	bcf	(1077/8)^080h,(1077)&7
  4814                           	line	24
  4815                           ;Motor.c: 24: TRISB6=0;
  4816  09CB  1306               	bcf	(1078/8)^080h,(1078)&7
  4817                           	line	25
  4818                           ;Motor.c: 25: TRISB7=0;
  4819  09CC  1386               	bcf	(1079/8)^080h,(1079)&7
  4820                           	line	26
  4821                           ;Motor.c: 26: TRISC1=0;
  4822  09CD  1087               	bcf	(1081/8)^080h,(1081)&7
  4823                           	line	27
  4824                           ;Motor.c: 27: TRISC2=0;
  4825  09CE  1107               	bcf	(1082/8)^080h,(1082)&7
  4826                           	line	28
  4827                           	
  4828  09CF                     l4379:	
  4829  09CF  0008               	return
  4830                           	opt stack 0
  4831                           GLOBAL	__end_of_Motor_GPIO_Init
  4832  09D0                     	__end_of_Motor_GPIO_Init:
  4833 ;; =============== function _Motor_GPIO_Init ends ============
  4834                           
  4835                           	signat	_Motor_GPIO_Init,88
  4836                           	global	_Usart_Init
  4837                           psect	text1039,local,class=CODE,delta=2
  4838                           global __ptext1039
  4839  09EA                     __ptext1039:
  4840                           
  4841 ;; *************** function _Usart_Init *****************
  4842 ;; Defined at:
  4843 ;;		line 39 in file "D:\6_pic_project\00_Design_Flow_Car\Driver\Usart.c"
  4844 ;; Parameters:    Size  Location     Type
  4845 ;;		None
  4846 ;; Auto vars:     Size  Location     Type
  4847 ;;		None
  4848 ;; Return value:  Size  Location     Type
  4849 ;;		None               void
  4850 ;; Registers used:
  4851 ;;		wreg
  4852 ;; Tracked objects:
  4853 ;;		On entry : 0/0
  4854 ;;		On exit  : 0/0
  4855 ;;		Unchanged: 0/0
  4856 ;; Data sizes:     COMMON   BANK0   BANK1   BANK3   BANK2
  4857 ;;      Params:         0       0       0       0       0
  4858 ;;      Locals:         0       0       0       0       0
  4859 ;;      Temps:          0       0       0       0       0
  4860 ;;      Totals:         0       0       0       0       0
  4861 ;;Total ram usage:        0 bytes
  4862 ;; Hardware stack levels used:    1
  4863 ;; Hardware stack levels required when called:    4
  4864 ;; This function calls:
  4865 ;;		Nothing
  4866 ;; This function is called by:
  4867 ;;		_main
  4868 ;; This function uses a non-reentrant model
  4869 ;;
  4870                           psect	text1039
  4871                           	file	"D:\6_pic_project\00_Design_Flow_Car\Driver\Usart.c"
  4872                           	line	39
  4873                           	global	__size_of_Usart_Init
  4874  0010                     	__size_of_Usart_Init	equ	__end_of_Usart_Init-_Usart_Init
  4875                           	
  4876  09EA                     _Usart_Init:	
  4877                           	opt	stack 3
  4878                           ; Regs used in _Usart_Init: [wreg]
  4879                           	line	40
  4880                           	
  4881  09EA                     l12370:	
  4882                           ;Usart.c: 40: TXSTA=0B00100100;
  4883  09EA  3024               	movlw	(024h)
  4884  09EB  1683               	bsf	status, 5	;RP0=1, select bank1
  4885  09EC  1303               	bcf	status, 6	;RP1=0, select bank1
  4886  09ED  0098               	movwf	(152)^080h	;volatile
  4887                           	line	41
  4888                           ;Usart.c: 41: RCSTA=0B10010000;
  4889  09EE  3090               	movlw	(090h)
  4890  09EF  1283               	bcf	status, 5	;RP0=0, select bank0
  4891  09F0  1303               	bcf	status, 6	;RP1=0, select bank0
  4892  09F1  0098               	movwf	(24)	;volatile
  4893                           	line	42
  4894                           ;Usart.c: 42: SPBRG=12;
  4895  09F2  300C               	movlw	(0Ch)
  4896  09F3  1683               	bsf	status, 5	;RP0=1, select bank1
  4897  09F4  1303               	bcf	status, 6	;RP1=0, select bank1
  4898  09F5  0099               	movwf	(153)^080h	;volatile
  4899                           	line	43
  4900                           	
  4901  09F6                     l12372:	
  4902                           ;Usart.c: 43: GIE=1;
  4903  09F6  178B               	bsf	(95/8),(95)&7
  4904                           	line	44
  4905                           	
  4906  09F7                     l12374:	
  4907                           ;Usart.c: 44: PEIE=1;
  4908  09F7  170B               	bsf	(94/8),(94)&7
  4909                           	line	45
  4910                           	
  4911  09F8                     l12376:	
  4912                           ;Usart.c: 45: RCIE=1;
  4913  09F8  168C               	bsf	(1125/8)^080h,(1125)&7
  4914                           	line	46
  4915                           	
  4916  09F9                     l5769:	
  4917  09F9  0008               	return
  4918                           	opt stack 0
  4919                           GLOBAL	__end_of_Usart_Init
  4920  09FA                     	__end_of_Usart_Init:
  4921 ;; =============== function _Usart_Init ends ============
  4922                           
  4923                           	signat	_Usart_Init,88
  4924                           	global	_Usart_GPIO_Init
  4925                           psect	text1040,local,class=CODE,delta=2
  4926                           global __ptext1040
  4927  09B1                     __ptext1040:
  4928                           
  4929 ;; *************** function _Usart_GPIO_Init *****************
  4930 ;; Defined at:
  4931 ;;		line 28 in file "D:\6_pic_project\00_Design_Flow_Car\Driver\Usart.c"
  4932 ;; Parameters:    Size  Location     Type
  4933 ;;		None
  4934 ;; Auto vars:     Size  Location     Type
  4935 ;;		None
  4936 ;; Return value:  Size  Location     Type
  4937 ;;		None               void
  4938 ;; Registers used:
  4939 ;;		None
  4940 ;; Tracked objects:
  4941 ;;		On entry : 0/0
  4942 ;;		On exit  : 0/0
  4943 ;;		Unchanged: 0/0
  4944 ;; Data sizes:     COMMON   BANK0   BANK1   BANK3   BANK2
  4945 ;;      Params:         0       0       0       0       0
  4946 ;;      Locals:         0       0       0       0       0
  4947 ;;      Temps:          0       0       0       0       0
  4948 ;;      Totals:         0       0       0       0       0
  4949 ;;Total ram usage:        0 bytes
  4950 ;; Hardware stack levels used:    1
  4951 ;; Hardware stack levels required when called:    4
  4952 ;; This function calls:
  4953 ;;		Nothing
  4954 ;; This function is called by:
  4955 ;;		_main
  4956 ;; This function uses a non-reentrant model
  4957 ;;
  4958                           psect	text1040
  4959                           	file	"D:\6_pic_project\00_Design_Flow_Car\Driver\Usart.c"
  4960                           	line	28
  4961                           	global	__size_of_Usart_GPIO_Init
  4962  0005                     	__size_of_Usart_GPIO_Init	equ	__end_of_Usart_GPIO_Init-_Usart_GPIO_Init
  4963                           	
  4964  09B1                     _Usart_GPIO_Init:	
  4965                           	opt	stack 3
  4966                           ; Regs used in _Usart_GPIO_Init: []
  4967                           	line	29
  4968                           	
  4969  09B1                     l12368:	
  4970                           ;Usart.c: 29: TRISC6=1;
  4971  09B1  1683               	bsf	status, 5	;RP0=1, select bank1
  4972  09B2  1303               	bcf	status, 6	;RP1=0, select bank1
  4973  09B3  1707               	bsf	(1086/8)^080h,(1086)&7
  4974                           	line	30
  4975                           ;Usart.c: 30: TRISC7=1;
  4976  09B4  1787               	bsf	(1087/8)^080h,(1087)&7
  4977                           	line	31
  4978                           	
  4979  09B5                     l5766:	
  4980  09B5  0008               	return
  4981                           	opt stack 0
  4982                           GLOBAL	__end_of_Usart_GPIO_Init
  4983  09B6                     	__end_of_Usart_GPIO_Init:
  4984 ;; =============== function _Usart_GPIO_Init ends ============
  4985                           
  4986                           	signat	_Usart_GPIO_Init,88
  4987                           	global	_LCD1602_GPIO_Init
  4988                           psect	text1041,local,class=CODE,delta=2
  4989                           global __ptext1041
  4990  09BE                     __ptext1041:
  4991                           
  4992 ;; *************** function _LCD1602_GPIO_Init *****************
  4993 ;; Defined at:
  4994 ;;		line 180 in file "D:\6_pic_project\00_Design_Flow_Car\Driver\LCD1602.c"
  4995 ;; Parameters:    Size  Location     Type
  4996 ;;		None
  4997 ;; Auto vars:     Size  Location     Type
  4998 ;;		None
  4999 ;; Return value:  Size  Location     Type
  5000 ;;		None               void
  5001 ;; Registers used:
  5002 ;;		wreg, status,2
  5003 ;; Tracked objects:
  5004 ;;		On entry : 0/0
  5005 ;;		On exit  : 0/0
  5006 ;;		Unchanged: 0/0
  5007 ;; Data sizes:     COMMON   BANK0   BANK1   BANK3   BANK2
  5008 ;;      Params:         0       0       0       0       0
  5009 ;;      Locals:         0       0       0       0       0
  5010 ;;      Temps:          0       0       0       0       0
  5011 ;;      Totals:         0       0       0       0       0
  5012 ;;Total ram usage:        0 bytes
  5013 ;; Hardware stack levels used:    1
  5014 ;; Hardware stack levels required when called:    4
  5015 ;; This function calls:
  5016 ;;		Nothing
  5017 ;; This function is called by:
  5018 ;;		_main
  5019 ;; This function uses a non-reentrant model
  5020 ;;
  5021                           psect	text1041
  5022                           	file	"D:\6_pic_project\00_Design_Flow_Car\Driver\LCD1602.c"
  5023                           	line	180
  5024                           	global	__size_of_LCD1602_GPIO_Init
  5025  0009                     	__size_of_LCD1602_GPIO_Init	equ	__end_of_LCD1602_GPIO_Init-_LCD1602_GPIO_Init
  5026                           	
  5027  09BE                     _LCD1602_GPIO_Init:	
  5028                           	opt	stack 3
  5029                           ; Regs used in _LCD1602_GPIO_Init: [wreg+status,2]
  5030                           	line	181
  5031                           	
  5032  09BE                     l12362:	
  5033                           ;LCD1602.c: 181: TRISA2=0;
  5034  09BE  1683               	bsf	status, 5	;RP0=1, select bank1
  5035  09BF  1303               	bcf	status, 6	;RP1=0, select bank1
  5036  09C0  1105               	bcf	(1066/8)^080h,(1066)&7
  5037                           	line	182
  5038                           ;LCD1602.c: 182: TRISA5=0;
  5039  09C1  1285               	bcf	(1069/8)^080h,(1069)&7
  5040                           	line	183
  5041                           ;LCD1602.c: 183: TRISA3=0;
  5042  09C2  1185               	bcf	(1067/8)^080h,(1067)&7
  5043                           	line	184
  5044                           	
  5045  09C3                     l12364:	
  5046                           ;LCD1602.c: 184: TRISD=0x00;
  5047  09C3  0188               	clrf	(136)^080h	;volatile
  5048                           	line	185
  5049                           	
  5050  09C4                     l12366:	
  5051                           ;LCD1602.c: 185: ADCON1=0x07;
  5052  09C4  3007               	movlw	(07h)
  5053  09C5  009F               	movwf	(159)^080h	;volatile
  5054                           	line	186
  5055                           	
  5056  09C6                     l1519:	
  5057  09C6  0008               	return
  5058                           	opt stack 0
  5059                           GLOBAL	__end_of_LCD1602_GPIO_Init
  5060  09C7                     	__end_of_LCD1602_GPIO_Init:
  5061 ;; =============== function _LCD1602_GPIO_Init ends ============
  5062                           
  5063                           	signat	_LCD1602_GPIO_Init,88
  5064                           	global	_Motor_Speed_Set
  5065                           psect	text1042,local,class=CODE,delta=2
  5066                           global __ptext1042
  5067  0D39                     __ptext1042:
  5068                           
  5069 ;; *************** function _Motor_Speed_Set *****************
  5070 ;; Defined at:
  5071 ;;		line 71 in file "D:\6_pic_project\00_Design_Flow_Car\User\Car_demo\Car_demo.c"
  5072 ;; Parameters:    Size  Location     Type
  5073 ;;  Speed1          2    0[BANK1 ] int 
  5074 ;;  Speed2          2    2[BANK1 ] int 
  5075 ;; Auto vars:     Size  Location     Type
  5076 ;;		None
  5077 ;; Return value:  Size  Location     Type
  5078 ;;		None               void
  5079 ;; Registers used:
  5080 ;;		wreg, status,2, status,0, btemp+1
  5081 ;; Tracked objects:
  5082 ;;		On entry : 0/0
  5083 ;;		On exit  : 0/0
  5084 ;;		Unchanged: 0/0
  5085 ;; Data sizes:     COMMON   BANK0   BANK1   BANK3   BANK2
  5086 ;;      Params:         0       0       4       0       0
  5087 ;;      Locals:         0       0       0       0       0
  5088 ;;      Temps:          0       0       0       0       0
  5089 ;;      Totals:         0       0       4       0       0
  5090 ;;Total ram usage:        4 bytes
  5091 ;; Hardware stack levels used:    1
  5092 ;; Hardware stack levels required when called:    4
  5093 ;; This function calls:
  5094 ;;		Nothing
  5095 ;; This function is called by:
  5096 ;;		_main
  5097 ;; This function uses a non-reentrant model
  5098 ;;
  5099                           psect	text1042
  5100                           	file	"D:\6_pic_project\00_Design_Flow_Car\User\Car_demo\Car_demo.c"
  5101                           	line	71
  5102                           	global	__size_of_Motor_Speed_Set
  5103  004D                     	__size_of_Motor_Speed_Set	equ	__end_of_Motor_Speed_Set-_Motor_Speed_Set
  5104                           	
  5105  0D39                     _Motor_Speed_Set:	
  5106                           	opt	stack 3
  5107                           ; Regs used in _Motor_Speed_Set: [wreg+status,2+status,0+btemp+1]
  5108                           	line	72
  5109                           	
  5110  0D39                     l12236:	
  5111                           ;Car_demo.c: 72: if(Speed1 > 0 )
  5112  0D39  1683               	bsf	status, 5	;RP0=1, select bank1
  5113  0D3A  1303               	bcf	status, 6	;RP1=0, select bank1
  5114  0D3B  0821               	movf	(Motor_Speed_Set@Speed1+1)^080h,w
  5115  0D3C  3A80               	xorlw	80h
  5116  0D3D  00FF               	movwf	btemp+1
  5117  0D3E  3080               	movlw	(high(01h))^80h
  5118  0D3F  027F               	subwf	btemp+1,w
  5119  0D40  1D03               	skipz
  5120  0D41  2D44               	goto	u3315
  5121  0D42  3001               	movlw	low(01h)
  5122  0D43  0220               	subwf	(Motor_Speed_Set@Speed1)^080h,w
  5123  0D44                     u3315:
  5124                           
  5125  0D44  1C03               	skipc
  5126  0D45  2D47               	goto	u3311
  5127  0D46  2D48               	goto	u3310
  5128  0D47                     u3311:
  5129  0D47  2D53               	goto	l749
  5130  0D48                     u3310:
  5131                           	line	74
  5132                           	
  5133  0D48                     l12238:	
  5134                           ;Car_demo.c: 73: {
  5135                           ;Car_demo.c: 74: RB4 = 1;
  5136  0D48  1283               	bcf	status, 5	;RP0=0, select bank0
  5137  0D49  1303               	bcf	status, 6	;RP1=0, select bank0
  5138  0D4A  1606               	bsf	(52/8),(52)&7
  5139                           	line	75
  5140                           ;Car_demo.c: 75: RB5 = 0;
  5141  0D4B  1286               	bcf	(53/8),(53)&7
  5142                           	line	76
  5143                           	
  5144  0D4C                     l12240:	
  5145                           ;Car_demo.c: 76: CCPR1L=(unsigned char)Speed1;
  5146  0D4C  1683               	bsf	status, 5	;RP0=1, select bank1
  5147  0D4D  1303               	bcf	status, 6	;RP1=0, select bank1
  5148  0D4E  0820               	movf	(Motor_Speed_Set@Speed1)^080h,w
  5149  0D4F  1283               	bcf	status, 5	;RP0=0, select bank0
  5150  0D50  1303               	bcf	status, 6	;RP1=0, select bank0
  5151  0D51  0095               	movwf	(21)	;volatile
  5152                           	line	77
  5153                           ;Car_demo.c: 77: }
  5154  0D52  2D5F               	goto	l12244
  5155                           	line	78
  5156                           	
  5157  0D53                     l749:	
  5158                           	line	80
  5159                           ;Car_demo.c: 78: else
  5160                           ;Car_demo.c: 79: {
  5161                           ;Car_demo.c: 80: RB4 = 0;
  5162  0D53  1283               	bcf	status, 5	;RP0=0, select bank0
  5163  0D54  1303               	bcf	status, 6	;RP1=0, select bank0
  5164  0D55  1206               	bcf	(52/8),(52)&7
  5165                           	line	81
  5166                           ;Car_demo.c: 81: RB5 = 1;
  5167  0D56  1686               	bsf	(53/8),(53)&7
  5168                           	line	82
  5169                           	
  5170  0D57                     l12242:	
  5171                           ;Car_demo.c: 82: CCPR1L=(unsigned char)(-Speed1);
  5172  0D57  1683               	bsf	status, 5	;RP0=1, select bank1
  5173  0D58  1303               	bcf	status, 6	;RP1=0, select bank1
  5174  0D59  0320               	decf	(Motor_Speed_Set@Speed1)^080h,w
  5175  0D5A  3AFF               	xorlw	0ffh
  5176  0D5B  1283               	bcf	status, 5	;RP0=0, select bank0
  5177  0D5C  1303               	bcf	status, 6	;RP1=0, select bank0
  5178  0D5D  0095               	movwf	(21)	;volatile
  5179  0D5E  2D5F               	goto	l12244
  5180                           	line	83
  5181                           	
  5182  0D5F                     l750:	
  5183                           	line	85
  5184                           	
  5185  0D5F                     l12244:	
  5186                           ;Car_demo.c: 83: }
  5187                           ;Car_demo.c: 85: if(Speed2 >0 )
  5188  0D5F  1683               	bsf	status, 5	;RP0=1, select bank1
  5189  0D60  1303               	bcf	status, 6	;RP1=0, select bank1
  5190  0D61  0823               	movf	(Motor_Speed_Set@Speed2+1)^080h,w
  5191  0D62  3A80               	xorlw	80h
  5192  0D63  00FF               	movwf	btemp+1
  5193  0D64  3080               	movlw	(high(01h))^80h
  5194  0D65  027F               	subwf	btemp+1,w
  5195  0D66  1D03               	skipz
  5196  0D67  2D6A               	goto	u3325
  5197  0D68  3001               	movlw	low(01h)
  5198  0D69  0222               	subwf	(Motor_Speed_Set@Speed2)^080h,w
  5199  0D6A                     u3325:
  5200                           
  5201  0D6A  1C03               	skipc
  5202  0D6B  2D6D               	goto	u3321
  5203  0D6C  2D6E               	goto	u3320
  5204  0D6D                     u3321:
  5205  0D6D  2D79               	goto	l751
  5206  0D6E                     u3320:
  5207                           	line	87
  5208                           	
  5209  0D6E                     l12246:	
  5210                           ;Car_demo.c: 86: {
  5211                           ;Car_demo.c: 87: RB6 = 1;
  5212  0D6E  1283               	bcf	status, 5	;RP0=0, select bank0
  5213  0D6F  1303               	bcf	status, 6	;RP1=0, select bank0
  5214  0D70  1706               	bsf	(54/8),(54)&7
  5215                           	line	88
  5216                           ;Car_demo.c: 88: RB7 = 0;
  5217  0D71  1386               	bcf	(55/8),(55)&7
  5218                           	line	89
  5219                           	
  5220  0D72                     l12248:	
  5221                           ;Car_demo.c: 89: CCPR2L=(unsigned char)Speed2;
  5222  0D72  1683               	bsf	status, 5	;RP0=1, select bank1
  5223  0D73  1303               	bcf	status, 6	;RP1=0, select bank1
  5224  0D74  0822               	movf	(Motor_Speed_Set@Speed2)^080h,w
  5225  0D75  1283               	bcf	status, 5	;RP0=0, select bank0
  5226  0D76  1303               	bcf	status, 6	;RP1=0, select bank0
  5227  0D77  009B               	movwf	(27)	;volatile
  5228                           	line	90
  5229                           ;Car_demo.c: 90: }
  5230  0D78  2D85               	goto	l753
  5231                           	line	91
  5232                           	
  5233  0D79                     l751:	
  5234                           	line	93
  5235                           ;Car_demo.c: 91: else
  5236                           ;Car_demo.c: 92: {
  5237                           ;Car_demo.c: 93: RB6 = 0;
  5238  0D79  1283               	bcf	status, 5	;RP0=0, select bank0
  5239  0D7A  1303               	bcf	status, 6	;RP1=0, select bank0
  5240  0D7B  1306               	bcf	(54/8),(54)&7
  5241                           	line	94
  5242                           ;Car_demo.c: 94: RB7 = 1;
  5243  0D7C  1786               	bsf	(55/8),(55)&7
  5244                           	line	95
  5245                           	
  5246  0D7D                     l12250:	
  5247                           ;Car_demo.c: 95: CCPR2L=(unsigned char)(-Speed2);
  5248  0D7D  1683               	bsf	status, 5	;RP0=1, select bank1
  5249  0D7E  1303               	bcf	status, 6	;RP1=0, select bank1
  5250  0D7F  0322               	decf	(Motor_Speed_Set@Speed2)^080h,w
  5251  0D80  3AFF               	xorlw	0ffh
  5252  0D81  1283               	bcf	status, 5	;RP0=0, select bank0
  5253  0D82  1303               	bcf	status, 6	;RP1=0, select bank0
  5254  0D83  009B               	movwf	(27)	;volatile
  5255  0D84  2D85               	goto	l753
  5256                           	line	96
  5257                           	
  5258  0D85                     l752:	
  5259                           	line	97
  5260                           	
  5261  0D85                     l753:	
  5262  0D85  0008               	return
  5263                           	opt stack 0
  5264                           GLOBAL	__end_of_Motor_Speed_Set
  5265  0D86                     	__end_of_Motor_Speed_Set:
  5266 ;; =============== function _Motor_Speed_Set ends ============
  5267                           
  5268                           	signat	_Motor_Speed_Set,8312
  5269                           	global	_Service
  5270                           psect	text1043,local,class=CODE,delta=2
  5271                           global __ptext1043
  5272  0160                     __ptext1043:
  5273                           
  5274 ;; *************** function _Service *****************
  5275 ;; Defined at:
  5276 ;;		line 101 in file "D:\6_pic_project\00_Design_Flow_Car\User\Car_demo\Car_demo.c"
  5277 ;; Parameters:    Size  Location     Type
  5278 ;;		None
  5279 ;; Auto vars:     Size  Location     Type
  5280 ;;		None
  5281 ;; Return value:  Size  Location     Type
  5282 ;;		None               void
  5283 ;; Registers used:
  5284 ;;		wreg, fsr0l, fsr0h, fsr1l, fsr1h, status,2, status,0, btemp+1, pclath, cstack
  5285 ;; Tracked objects:
  5286 ;;		On entry : 0/0
  5287 ;;		On exit  : 0/0
  5288 ;;		Unchanged: 0/0
  5289 ;; Data sizes:     COMMON   BANK0   BANK1   BANK3   BANK2
  5290 ;;      Params:         0       0       0       0       0
  5291 ;;      Locals:         0       0       0       0       0
  5292 ;;      Temps:          0       6       0       0       0
  5293 ;;      Totals:         0       6       0       0       0
  5294 ;;Total ram usage:        6 bytes
  5295 ;; Hardware stack levels used:    1
  5296 ;; Hardware stack levels required when called:    3
  5297 ;; This function calls:
  5298 ;;		_Trace_Proc
  5299 ;;		_Trace_Write_Command
  5300 ;;		i1_Motor_Speed_Set
  5301 ;;		_Velocity_PID
  5302 ;; This function is called by:
  5303 ;;		Interrupt level 1
  5304 ;; This function uses a non-reentrant model
  5305 ;;
  5306                           psect	text1043
  5307                           	file	"D:\6_pic_project\00_Design_Flow_Car\User\Car_demo\Car_demo.c"
  5308                           	line	101
  5309                           	global	__size_of_Service
  5310  0149                     	__size_of_Service	equ	__end_of_Service-_Service
  5311                           	
  5312  0160                     _Service:	
  5313                           	opt	stack 1
  5314                           ; Regs used in _Service: [allreg]
  5315                           psect	intentry,class=CODE,delta=2
  5316                           global __pintentry
  5317  0004                     __pintentry:
  5318                           global interrupt_function
  5319  0004                     interrupt_function:
  5320                           	global saved_w
  5321  007E                     	saved_w	set	btemp+0
  5322  0004  00FE               	movwf	saved_w
  5323  0005  0E03               	swapf	status,w
  5324  0006  1283               	bcf	status, 5	;RP0=0, select bank0
  5325  0007  1303               	bcf	status, 6	;RP1=0, select bank0
  5326  0008  00D2               	movwf	(??_Service+2)
  5327  0009  0804               	movf	fsr0,w
  5328  000A  00D3               	movwf	(??_Service+3)
  5329  000B  080A               	movf	pclath,w
  5330  000C  00D4               	movwf	(??_Service+4)
  5331  000D  087F               	movf	btemp+1,w
  5332  000E  00D5               	movwf	(??_Service+5)
  5333  000F  120A  118A  2960   	ljmp	_Service
  5334                           psect	text1043
  5335                           	line	102
  5336                           	
  5337  0160                     i1l12252:	
  5338                           ;Car_demo.c: 102: Trace_Proc();
  5339  0160  120A  158A  230B   	fcall	_Trace_Proc
              120A  118A         
  5340                           	line	103
  5341                           	
  5342  0165                     i1l12254:	
  5343                           ;Car_demo.c: 103: ack=Trace_Write_Command();
  5344  0165  120A  158A  23AE   	fcall	_Trace_Write_Command
              120A  118A         
  5345  016A  1283               	bcf	status, 5	;RP0=0, select bank0
  5346  016B  1303               	bcf	status, 6	;RP1=0, select bank0
  5347  016C  00D0               	movwf	(??_Service+0)+0
  5348  016D  0850               	movf	(??_Service+0)+0,w
  5349  016E  00E9               	movwf	(_ack)
  5350                           	line	105
  5351                           	
  5352  016F                     i1l12256:	
  5353                           ;Car_demo.c: 105: Trace_Byte = PORTA & 0B00111100;
  5354  016F  0805               	movf	(5),w
  5355  0170  393C               	andlw	03Ch
  5356  0171  00D0               	movwf	(??_Service+0)+0
  5357  0172  0850               	movf	(??_Service+0)+0,w
  5358  0173  00E8               	movwf	(_Trace_Byte)
  5359                           	line	106
  5360                           	
  5361  0174                     i1l12258:	
  5362                           ;Car_demo.c: 106: PORTD = Trace_Byte;
  5363  0174  0868               	movf	(_Trace_Byte),w
  5364  0175  0088               	movwf	(8)	;volatile
  5365                           	line	107
  5366                           	
  5367  0176                     i1l12260:	
  5368                           ;Car_demo.c: 107: if(RCIF==1)
  5369  0176  1E8C               	btfss	(101/8),(101)&7
  5370  0177  2979               	goto	u333_21
  5371  0178  297A               	goto	u333_20
  5372  0179                     u333_21:
  5373  0179  29F0               	goto	i1l756
  5374  017A                     u333_20:
  5375                           	line	109
  5376                           	
  5377  017A                     i1l12262:	
  5378                           ;Car_demo.c: 108: {
  5379                           ;Car_demo.c: 109: bluetooth=RCREG;
  5380  017A  081A               	movf	(26),w	;volatile
  5381  017B  00D0               	movwf	(??_Service+0)+0
  5382  017C  0850               	movf	(??_Service+0)+0,w
  5383  017D  00EA               	movwf	(_bluetooth)
  5384                           	line	110
  5385                           ;Car_demo.c: 110: if(bluetooth == 'W'){Speed_Set=50;Turn=0;Motor_Flag=1;}
  5386  017E  086A               	movf	(_bluetooth),w
  5387  017F  3A57               	xorlw	057h
  5388  0180  1D03               	skipz
  5389  0181  2983               	goto	u334_21
  5390  0182  2984               	goto	u334_20
  5391  0183                     u334_21:
  5392  0183  2992               	goto	i1l12270
  5393  0184                     u334_20:
  5394                           	
  5395  0184                     i1l12264:	
  5396  0184  3032               	movlw	low(032h)
  5397  0185  00E1               	movwf	(_Speed_Set)
  5398  0186  3000               	movlw	high(032h)
  5399  0187  00E2               	movwf	((_Speed_Set))+1
  5400                           	
  5401  0188                     i1l12266:	
  5402  0188  1683               	bsf	status, 5	;RP0=1, select bank1
  5403  0189  1303               	bcf	status, 6	;RP1=0, select bank1
  5404  018A  01E7               	clrf	(_Turn)^080h
  5405  018B  01E8               	clrf	(_Turn+1)^080h
  5406                           	
  5407  018C                     i1l12268:	
  5408  018C  1283               	bcf	status, 5	;RP0=0, select bank0
  5409  018D  1303               	bcf	status, 6	;RP1=0, select bank0
  5410  018E  01E5               	clrf	(_Motor_Flag)
  5411  018F  1403               	bsf	status,0
  5412  0190  0DE5               	rlf	(_Motor_Flag),f
  5413  0191  2992               	goto	i1l12270
  5414                           	
  5415  0192                     i1l757:	
  5416                           	line	111
  5417                           	
  5418  0192                     i1l12270:	
  5419                           ;Car_demo.c: 111: if(bluetooth == 'Q'){Speed_Set=0;Turn=0;Motor_Flag=0;}
  5420  0192  086A               	movf	(_bluetooth),w
  5421  0193  3A51               	xorlw	051h
  5422  0194  1D03               	skipz
  5423  0195  2997               	goto	u335_21
  5424  0196  2998               	goto	u335_20
  5425  0197                     u335_21:
  5426  0197  29A2               	goto	i1l12276
  5427  0198                     u335_20:
  5428                           	
  5429  0198                     i1l12272:	
  5430  0198  01E1               	clrf	(_Speed_Set)
  5431  0199  01E2               	clrf	(_Speed_Set+1)
  5432  019A  1683               	bsf	status, 5	;RP0=1, select bank1
  5433  019B  1303               	bcf	status, 6	;RP1=0, select bank1
  5434  019C  01E7               	clrf	(_Turn)^080h
  5435  019D  01E8               	clrf	(_Turn+1)^080h
  5436                           	
  5437  019E                     i1l12274:	
  5438  019E  1283               	bcf	status, 5	;RP0=0, select bank0
  5439  019F  1303               	bcf	status, 6	;RP1=0, select bank0
  5440  01A0  01E5               	clrf	(_Motor_Flag)
  5441  01A1  29A2               	goto	i1l12276
  5442                           	
  5443  01A2                     i1l758:	
  5444                           	line	112
  5445                           	
  5446  01A2                     i1l12276:	
  5447                           ;Car_demo.c: 112: if(bluetooth == 'S'){Speed_Set=-50;Turn=0;Motor_Flag=1;}
  5448  01A2  086A               	movf	(_bluetooth),w
  5449  01A3  3A53               	xorlw	053h
  5450  01A4  1D03               	skipz
  5451  01A5  29A7               	goto	u336_21
  5452  01A6  29A8               	goto	u336_20
  5453  01A7                     u336_21:
  5454  01A7  29B6               	goto	i1l12284
  5455  01A8                     u336_20:
  5456                           	
  5457  01A8                     i1l12278:	
  5458  01A8  30CE               	movlw	low(-50)
  5459  01A9  00E1               	movwf	(_Speed_Set)
  5460  01AA  30FF               	movlw	high(-50)
  5461  01AB  00E2               	movwf	((_Speed_Set))+1
  5462                           	
  5463  01AC                     i1l12280:	
  5464  01AC  1683               	bsf	status, 5	;RP0=1, select bank1
  5465  01AD  1303               	bcf	status, 6	;RP1=0, select bank1
  5466  01AE  01E7               	clrf	(_Turn)^080h
  5467  01AF  01E8               	clrf	(_Turn+1)^080h
  5468                           	
  5469  01B0                     i1l12282:	
  5470  01B0  1283               	bcf	status, 5	;RP0=0, select bank0
  5471  01B1  1303               	bcf	status, 6	;RP1=0, select bank0
  5472  01B2  01E5               	clrf	(_Motor_Flag)
  5473  01B3  1403               	bsf	status,0
  5474  01B4  0DE5               	rlf	(_Motor_Flag),f
  5475  01B5  29B6               	goto	i1l12284
  5476                           	
  5477  01B6                     i1l759:	
  5478                           	line	113
  5479                           	
  5480  01B6                     i1l12284:	
  5481                           ;Car_demo.c: 113: if(bluetooth == 'A'){Turn=-20;Motor_Flag=2;}
  5482  01B6  086A               	movf	(_bluetooth),w
  5483  01B7  3A41               	xorlw	041h
  5484  01B8  1D03               	skipz
  5485  01B9  29BB               	goto	u337_21
  5486  01BA  29BC               	goto	u337_20
  5487  01BB                     u337_21:
  5488  01BB  29C8               	goto	i1l760
  5489  01BC                     u337_20:
  5490                           	
  5491  01BC                     i1l12286:	
  5492  01BC  30EC               	movlw	low(-20)
  5493  01BD  1683               	bsf	status, 5	;RP0=1, select bank1
  5494  01BE  1303               	bcf	status, 6	;RP1=0, select bank1
  5495  01BF  00E7               	movwf	(_Turn)^080h
  5496  01C0  30FF               	movlw	high(-20)
  5497  01C1  00E8               	movwf	((_Turn)^080h)+1
  5498  01C2  3002               	movlw	(02h)
  5499  01C3  1283               	bcf	status, 5	;RP0=0, select bank0
  5500  01C4  1303               	bcf	status, 6	;RP1=0, select bank0
  5501  01C5  00D0               	movwf	(??_Service+0)+0
  5502  01C6  0850               	movf	(??_Service+0)+0,w
  5503  01C7  00E5               	movwf	(_Motor_Flag)
  5504                           	
  5505  01C8                     i1l760:	
  5506                           	line	114
  5507                           ;Car_demo.c: 114: if(bluetooth == 'D'){Turn=20;Motor_Flag=2;}
  5508  01C8  086A               	movf	(_bluetooth),w
  5509  01C9  3A44               	xorlw	044h
  5510  01CA  1D03               	skipz
  5511  01CB  29CD               	goto	u338_21
  5512  01CC  29CE               	goto	u338_20
  5513  01CD                     u338_21:
  5514  01CD  29DB               	goto	i1l12290
  5515  01CE                     u338_20:
  5516                           	
  5517  01CE                     i1l12288:	
  5518  01CE  3014               	movlw	low(014h)
  5519  01CF  1683               	bsf	status, 5	;RP0=1, select bank1
  5520  01D0  1303               	bcf	status, 6	;RP1=0, select bank1
  5521  01D1  00E7               	movwf	(_Turn)^080h
  5522  01D2  3000               	movlw	high(014h)
  5523  01D3  00E8               	movwf	((_Turn)^080h)+1
  5524  01D4  3002               	movlw	(02h)
  5525  01D5  1283               	bcf	status, 5	;RP0=0, select bank0
  5526  01D6  1303               	bcf	status, 6	;RP1=0, select bank0
  5527  01D7  00D0               	movwf	(??_Service+0)+0
  5528  01D8  0850               	movf	(??_Service+0)+0,w
  5529  01D9  00E5               	movwf	(_Motor_Flag)
  5530  01DA  29DB               	goto	i1l12290
  5531                           	
  5532  01DB                     i1l761:	
  5533                           	line	115
  5534                           	
  5535  01DB                     i1l12290:	
  5536                           ;Car_demo.c: 115: Motor_Speed_Set(PWM1,PWM2);
  5537  01DB  085C               	movf	(_PWM1+1),w
  5538  01DC  01F1               	clrf	(?i1_Motor_Speed_Set+1)
  5539  01DD  07F1               	addwf	(?i1_Motor_Speed_Set+1)
  5540  01DE  085B               	movf	(_PWM1),w
  5541  01DF  01F0               	clrf	(?i1_Motor_Speed_Set)
  5542  01E0  07F0               	addwf	(?i1_Motor_Speed_Set)
  5543                           
  5544  01E1  085E               	movf	(_PWM2+1),w
  5545  01E2  01F3               	clrf	1+(?i1_Motor_Speed_Set)+02h
  5546  01E3  07F3               	addwf	1+(?i1_Motor_Speed_Set)+02h
  5547  01E4  085D               	movf	(_PWM2),w
  5548  01E5  01F2               	clrf	0+(?i1_Motor_Speed_Set)+02h
  5549  01E6  07F2               	addwf	0+(?i1_Motor_Speed_Set)+02h
  5550                           
  5551  01E7  120A  158A  23DF   	fcall	i1_Motor_Speed_Set
              120A  118A         
  5552                           	line	116
  5553                           	
  5554  01EC                     i1l12292:	
  5555                           ;Car_demo.c: 116: RCIF=0;
  5556  01EC  1283               	bcf	status, 5	;RP0=0, select bank0
  5557  01ED  1303               	bcf	status, 6	;RP1=0, select bank0
  5558  01EE  128C               	bcf	(101/8),(101)&7
  5559                           	line	117
  5560                           ;Car_demo.c: 117: }
  5561  01EF  2A9C               	goto	i1l774
  5562                           	line	118
  5563                           	
  5564  01F0                     i1l756:	
  5565                           ;Car_demo.c: 118: else if(T0IF==1)
  5566  01F0  1D0B               	btfss	(90/8),(90)&7
  5567  01F1  29F3               	goto	u339_21
  5568  01F2  29F4               	goto	u339_20
  5569  01F3                     u339_21:
  5570  01F3  2A90               	goto	i1l763
  5571  01F4                     u339_20:
  5572                           	line	120
  5573                           	
  5574  01F4                     i1l12294:	
  5575                           ;Car_demo.c: 119: {
  5576                           ;Car_demo.c: 120: TMR0=60;
  5577  01F4  303C               	movlw	(03Ch)
  5578  01F5  0081               	movwf	(1)	;volatile
  5579                           	line	121
  5580                           	
  5581  01F6                     i1l12296:	
  5582                           ;Car_demo.c: 121: T0IF=0;
  5583  01F6  110B               	bcf	(90/8),(90)&7
  5584                           	line	123
  5585                           ;Car_demo.c: 123: Speed = Encoder_Counter;
  5586  01F7  0863               	movf	(_Encoder_Counter),w
  5587  01F8  00D0               	movwf	(??_Service+0)+0
  5588  01F9  01D1               	clrf	(??_Service+0)+0+1
  5589  01FA  0850               	movf	0+(??_Service+0)+0,w
  5590  01FB  00DF               	movwf	(_Speed)
  5591  01FC  0851               	movf	1+(??_Service+0)+0,w
  5592  01FD  00E0               	movwf	(_Speed+1)
  5593                           	line	124
  5594                           	
  5595  01FE                     i1l12298:	
  5596                           ;Car_demo.c: 124: Encoder_Counter=0;
  5597  01FE  01E3               	clrf	(_Encoder_Counter)
  5598                           	line	126
  5599                           	
  5600  01FF                     i1l12300:	
  5601                           ;Car_demo.c: 126: PWM = Velocity_PID(Speed,Speed_Set);
  5602  01FF  0860               	movf	(_Speed+1),w
  5603  0200  01C8               	clrf	(?_Velocity_PID+1)
  5604  0201  07C8               	addwf	(?_Velocity_PID+1)
  5605  0202  085F               	movf	(_Speed),w
  5606  0203  01C7               	clrf	(?_Velocity_PID)
  5607  0204  07C7               	addwf	(?_Velocity_PID)
  5608                           
  5609  0205  0862               	movf	(_Speed_Set+1),w
  5610  0206  01CA               	clrf	1+(?_Velocity_PID)+02h
  5611  0207  07CA               	addwf	1+(?_Velocity_PID)+02h
  5612  0208  0861               	movf	(_Speed_Set),w
  5613  0209  01C9               	clrf	0+(?_Velocity_PID)+02h
  5614  020A  07C9               	addwf	0+(?_Velocity_PID)+02h
  5615                           
  5616  020B  120A  118A  2015   	fcall	_Velocity_PID
              120A  118A         
  5617  0210  1283               	bcf	status, 5	;RP0=0, select bank0
  5618  0211  1303               	bcf	status, 6	;RP1=0, select bank0
  5619  0212  0848               	movf	(1+(?_Velocity_PID)),w
  5620  0213  01DA               	clrf	(_PWM+1)
  5621  0214  07DA               	addwf	(_PWM+1)
  5622  0215  0847               	movf	(0+(?_Velocity_PID)),w
  5623  0216  01D9               	clrf	(_PWM)
  5624  0217  07D9               	addwf	(_PWM)
  5625                           
  5626                           	line	128
  5627                           	
  5628  0218                     i1l12302:	
  5629                           ;Car_demo.c: 128: PWM1 = PWM;
  5630  0218  085A               	movf	(_PWM+1),w
  5631  0219  01DC               	clrf	(_PWM1+1)
  5632  021A  07DC               	addwf	(_PWM1+1)
  5633  021B  0859               	movf	(_PWM),w
  5634  021C  01DB               	clrf	(_PWM1)
  5635  021D  07DB               	addwf	(_PWM1)
  5636                           
  5637                           	line	129
  5638                           	
  5639  021E                     i1l12304:	
  5640                           ;Car_demo.c: 129: PWM2 = PWM;
  5641  021E  085A               	movf	(_PWM+1),w
  5642  021F  01DE               	clrf	(_PWM2+1)
  5643  0220  07DE               	addwf	(_PWM2+1)
  5644  0221  0859               	movf	(_PWM),w
  5645  0222  01DD               	clrf	(_PWM2)
  5646  0223  07DD               	addwf	(_PWM2)
  5647                           
  5648                           	line	131
  5649                           	
  5650  0224                     i1l12306:	
  5651                           ;Car_demo.c: 131: if(Motor_Flag == 1)
  5652  0224  0865               	movf	(_Motor_Flag),w
  5653  0225  3A01               	xorlw	01h
  5654  0226  1D03               	skipz
  5655  0227  2A29               	goto	u340_21
  5656  0228  2A2A               	goto	u340_20
  5657  0229                     u340_21:
  5658  0229  2A3C               	goto	i1l12310
  5659  022A                     u340_20:
  5660                           	line	133
  5661                           	
  5662  022A                     i1l12308:	
  5663                           ;Car_demo.c: 132: {
  5664                           ;Car_demo.c: 133: Motor_Speed_Set(PWM1,PWM2);
  5665  022A  085C               	movf	(_PWM1+1),w
  5666  022B  01F1               	clrf	(?i1_Motor_Speed_Set+1)
  5667  022C  07F1               	addwf	(?i1_Motor_Speed_Set+1)
  5668  022D  085B               	movf	(_PWM1),w
  5669  022E  01F0               	clrf	(?i1_Motor_Speed_Set)
  5670  022F  07F0               	addwf	(?i1_Motor_Speed_Set)
  5671                           
  5672  0230  085E               	movf	(_PWM2+1),w
  5673  0231  01F3               	clrf	1+(?i1_Motor_Speed_Set)+02h
  5674  0232  07F3               	addwf	1+(?i1_Motor_Speed_Set)+02h
  5675  0233  085D               	movf	(_PWM2),w
  5676  0234  01F2               	clrf	0+(?i1_Motor_Speed_Set)+02h
  5677  0235  07F2               	addwf	0+(?i1_Motor_Speed_Set)+02h
  5678                           
  5679  0236  120A  158A  23DF   	fcall	i1_Motor_Speed_Set
              120A  118A         
  5680                           	line	134
  5681                           ;Car_demo.c: 134: }
  5682  023B  2A9C               	goto	i1l774
  5683                           	line	141
  5684                           	
  5685  023C                     i1l764:	
  5686                           	
  5687  023C                     i1l12310:	
  5688                           ;Car_demo.c: 141: else if(Motor_Flag == 5)
  5689  023C  1283               	bcf	status, 5	;RP0=0, select bank0
  5690  023D  1303               	bcf	status, 6	;RP1=0, select bank0
  5691  023E  0865               	movf	(_Motor_Flag),w
  5692  023F  3A05               	xorlw	05h
  5693  0240  1D03               	skipz
  5694  0241  2A43               	goto	u341_21
  5695  0242  2A44               	goto	u341_20
  5696  0243                     u341_21:
  5697  0243  2A52               	goto	i1l12314
  5698  0244                     u341_20:
  5699                           	line	143
  5700                           	
  5701  0244                     i1l12312:	
  5702                           ;Car_demo.c: 142: {
  5703                           ;Car_demo.c: 143: Motor_Speed_Set(55,55);
  5704  0244  3037               	movlw	low(037h)
  5705  0245  00F0               	movwf	(?i1_Motor_Speed_Set)
  5706  0246  3000               	movlw	high(037h)
  5707  0247  00F1               	movwf	((?i1_Motor_Speed_Set))+1
  5708  0248  3037               	movlw	low(037h)
  5709  0249  00F2               	movwf	0+(?i1_Motor_Speed_Set)+02h
  5710  024A  3000               	movlw	high(037h)
  5711  024B  00F3               	movwf	(0+(?i1_Motor_Speed_Set)+02h)+1
  5712  024C  120A  158A  23DF   	fcall	i1_Motor_Speed_Set
              120A  118A         
  5713                           	line	144
  5714                           ;Car_demo.c: 144: }
  5715  0251  2A9C               	goto	i1l774
  5716                           	line	145
  5717                           	
  5718  0252                     i1l766:	
  5719                           	
  5720  0252                     i1l12314:	
  5721                           ;Car_demo.c: 145: else if(Motor_Flag == 3)
  5722  0252  1283               	bcf	status, 5	;RP0=0, select bank0
  5723  0253  1303               	bcf	status, 6	;RP1=0, select bank0
  5724  0254  0865               	movf	(_Motor_Flag),w
  5725  0255  3A03               	xorlw	03h
  5726  0256  1D03               	skipz
  5727  0257  2A59               	goto	u342_21
  5728  0258  2A5A               	goto	u342_20
  5729  0259                     u342_21:
  5730  0259  2A68               	goto	i1l12318
  5731  025A                     u342_20:
  5732                           	line	147
  5733                           	
  5734  025A                     i1l12316:	
  5735                           ;Car_demo.c: 146: {
  5736                           ;Car_demo.c: 147: Motor_Speed_Set(60,40);
  5737  025A  303C               	movlw	low(03Ch)
  5738  025B  00F0               	movwf	(?i1_Motor_Speed_Set)
  5739  025C  3000               	movlw	high(03Ch)
  5740  025D  00F1               	movwf	((?i1_Motor_Speed_Set))+1
  5741  025E  3028               	movlw	low(028h)
  5742  025F  00F2               	movwf	0+(?i1_Motor_Speed_Set)+02h
  5743  0260  3000               	movlw	high(028h)
  5744  0261  00F3               	movwf	(0+(?i1_Motor_Speed_Set)+02h)+1
  5745  0262  120A  158A  23DF   	fcall	i1_Motor_Speed_Set
              120A  118A         
  5746                           	line	148
  5747                           ;Car_demo.c: 148: }
  5748  0267  2A9C               	goto	i1l774
  5749                           	line	149
  5750                           	
  5751  0268                     i1l768:	
  5752                           	
  5753  0268                     i1l12318:	
  5754                           ;Car_demo.c: 149: else if(Motor_Flag == 4)
  5755  0268  1283               	bcf	status, 5	;RP0=0, select bank0
  5756  0269  1303               	bcf	status, 6	;RP1=0, select bank0
  5757  026A  0865               	movf	(_Motor_Flag),w
  5758  026B  3A04               	xorlw	04h
  5759  026C  1D03               	skipz
  5760  026D  2A6F               	goto	u343_21
  5761  026E  2A70               	goto	u343_20
  5762  026F                     u343_21:
  5763  026F  2A7E               	goto	i1l12322
  5764  0270                     u343_20:
  5765                           	line	151
  5766                           	
  5767  0270                     i1l12320:	
  5768                           ;Car_demo.c: 150: {
  5769                           ;Car_demo.c: 151: Motor_Speed_Set(40,60);
  5770  0270  3028               	movlw	low(028h)
  5771  0271  00F0               	movwf	(?i1_Motor_Speed_Set)
  5772  0272  3000               	movlw	high(028h)
  5773  0273  00F1               	movwf	((?i1_Motor_Speed_Set))+1
  5774  0274  303C               	movlw	low(03Ch)
  5775  0275  00F2               	movwf	0+(?i1_Motor_Speed_Set)+02h
  5776  0276  3000               	movlw	high(03Ch)
  5777  0277  00F3               	movwf	(0+(?i1_Motor_Speed_Set)+02h)+1
  5778  0278  120A  158A  23DF   	fcall	i1_Motor_Speed_Set
              120A  118A         
  5779                           	line	152
  5780                           ;Car_demo.c: 152: }
  5781  027D  2A9C               	goto	i1l774
  5782                           	line	153
  5783                           	
  5784  027E                     i1l770:	
  5785                           	line	155
  5786                           	
  5787  027E                     i1l12322:	
  5788                           ;Car_demo.c: 153: else
  5789                           ;Car_demo.c: 154: {
  5790                           ;Car_demo.c: 155: Motor_Speed_Set(0,0);
  5791  027E  3000               	movlw	low(0)
  5792  027F  00F0               	movwf	(?i1_Motor_Speed_Set)
  5793  0280  3000               	movlw	high(0)
  5794  0281  00F1               	movwf	((?i1_Motor_Speed_Set))+1
  5795  0282  3000               	movlw	low(0)
  5796  0283  00F2               	movwf	0+(?i1_Motor_Speed_Set)+02h
  5797  0284  3000               	movlw	high(0)
  5798  0285  00F3               	movwf	(0+(?i1_Motor_Speed_Set)+02h)+1
  5799  0286  120A  158A  23DF   	fcall	i1_Motor_Speed_Set
              120A  118A         
  5800  028B  2A9C               	goto	i1l774
  5801                           	line	156
  5802                           	
  5803  028C                     i1l771:	
  5804  028C  2A9C               	goto	i1l774
  5805                           	
  5806  028D                     i1l769:	
  5807  028D  2A9C               	goto	i1l774
  5808                           	
  5809  028E                     i1l767:	
  5810  028E  2A9C               	goto	i1l774
  5811                           	
  5812  028F                     i1l765:	
  5813                           	line	157
  5814                           ;Car_demo.c: 156: }
  5815                           ;Car_demo.c: 157: }
  5816  028F  2A9C               	goto	i1l774
  5817                           	line	158
  5818                           	
  5819  0290                     i1l763:	
  5820                           ;Car_demo.c: 158: else if(INTF==1)
  5821  0290  1C8B               	btfss	(89/8),(89)&7
  5822  0291  2A93               	goto	u344_21
  5823  0292  2A94               	goto	u344_20
  5824  0293                     u344_21:
  5825  0293  2A9C               	goto	i1l774
  5826  0294                     u344_20:
  5827                           	line	160
  5828                           	
  5829  0294                     i1l12324:	
  5830                           ;Car_demo.c: 159: {
  5831                           ;Car_demo.c: 160: Encoder_Counter++;
  5832  0294  3001               	movlw	(01h)
  5833  0295  00D0               	movwf	(??_Service+0)+0
  5834  0296  0850               	movf	(??_Service+0)+0,w
  5835  0297  07E3               	addwf	(_Encoder_Counter),f
  5836                           	line	161
  5837                           	
  5838  0298                     i1l12326:	
  5839                           ;Car_demo.c: 161: INTF=0;
  5840  0298  108B               	bcf	(89/8),(89)&7
  5841  0299  2A9C               	goto	i1l774
  5842                           	line	162
  5843                           	
  5844  029A                     i1l773:	
  5845  029A  2A9C               	goto	i1l774
  5846                           	line	163
  5847                           	
  5848  029B                     i1l772:	
  5849  029B  2A9C               	goto	i1l774
  5850                           	
  5851  029C                     i1l762:	
  5852                           	
  5853  029C                     i1l774:	
  5854  029C  1283               	bcf	status, 5	;RP0=0, select bank0
  5855  029D  1303               	bcf	status, 6	;RP1=0, select bank0
  5856  029E  0855               	movf	(??_Service+5),w
  5857  029F  00FF               	movwf	btemp+1
  5858  02A0  0854               	movf	(??_Service+4),w
  5859  02A1  008A               	movwf	pclath
  5860  02A2  0853               	movf	(??_Service+3),w
  5861  02A3  0084               	movwf	fsr0
  5862  02A4  0E52               	swapf	(??_Service+2)^00h,w
  5863  02A5  0083               	movwf	status
  5864  02A6  0EFE               	swapf	saved_w,f
  5865  02A7  0E7E               	swapf	saved_w,w
  5866  02A8  0009               	retfie
  5867                           	opt stack 0
  5868                           GLOBAL	__end_of_Service
  5869  02A9                     	__end_of_Service:
  5870 ;; =============== function _Service ends ============
  5871                           
  5872                           	signat	_Service,88
  5873                           	global	_Trace_Write_Command
  5874                           psect	text1044,local,class=CODE,delta=2
  5875                           global __ptext1044
  5876  0BAE                     __ptext1044:
  5877                           
  5878 ;; *************** function _Trace_Write_Command *****************
  5879 ;; Defined at:
  5880 ;;		line 203 in file "D:\6_pic_project\00_Design_Flow_Car\Driver\iic.c"
  5881 ;; Parameters:    Size  Location     Type
  5882 ;;		None
  5883 ;; Auto vars:     Size  Location     Type
  5884 ;;		None
  5885 ;; Return value:  Size  Location     Type
  5886 ;;                  1    wreg      unsigned char 
  5887 ;; Registers used:
  5888 ;;		wreg, status,2, status,0, pclath, cstack
  5889 ;; Tracked objects:
  5890 ;;		On entry : 0/0
  5891 ;;		On exit  : 0/0
  5892 ;;		Unchanged: 0/0
  5893 ;; Data sizes:     COMMON   BANK0   BANK1   BANK3   BANK2
  5894 ;;      Params:         0       0       0       0       0
  5895 ;;      Locals:         0       0       0       0       0
  5896 ;;      Temps:          0       0       0       0       0
  5897 ;;      Totals:         0       0       0       0       0
  5898 ;;Total ram usage:        0 bytes
  5899 ;; Hardware stack levels used:    1
  5900 ;; Hardware stack levels required when called:    2
  5901 ;; This function calls:
  5902 ;;		_I2CStart
  5903 ;;		_I2CSendByte
  5904 ;;		_I2CWaitAck
  5905 ;;		_I2CStop
  5906 ;; This function is called by:
  5907 ;;		_Service
  5908 ;; This function uses a non-reentrant model
  5909 ;;
  5910                           psect	text1044
  5911                           	file	"D:\6_pic_project\00_Design_Flow_Car\Driver\iic.c"
  5912                           	line	203
  5913                           	global	__size_of_Trace_Write_Command
  5914  0031                     	__size_of_Trace_Write_Command	equ	__end_of_Trace_Write_Command-_Trace_Write_Command
  5915                           	
  5916  0BAE                     _Trace_Write_Command:	
  5917                           	opt	stack 1
  5918                           ; Regs used in _Trace_Write_Command: [wreg+status,2+status,0+pclath+cstack]
  5919                           	line	204
  5920                           	
  5921  0BAE                     i1l12328:	
  5922                           ;iic.c: 204: I2CStart();
  5923  0BAE  120A  158A  226D   	fcall	_I2CStart
              120A  158A         
  5924                           	line	205
  5925                           ;iic.c: 205: I2CSendByte(0x4C<<1);
  5926  0BB3  3098               	movlw	(098h)
  5927  0BB4  120A  118A  27C1   	fcall	_I2CSendByte
              120A  158A         
  5928                           	line	207
  5929                           ;iic.c: 207: if(I2CWaitAck()){return 0xFF;}
  5930  0BB9  120A  158A  22B5   	fcall	_I2CWaitAck
              120A  158A         
  5931  0BBE  3A00               	xorlw	0
  5932  0BBF  1903               	skipnz
  5933  0BC0  2BC2               	goto	u345_21
  5934  0BC1  2BC3               	goto	u345_20
  5935  0BC2                     u345_21:
  5936  0BC2  2BC6               	goto	i1l12334
  5937  0BC3                     u345_20:
  5938                           	
  5939  0BC3                     i1l12330:	
  5940  0BC3  30FF               	movlw	(0FFh)
  5941  0BC4  2BDE               	goto	i1l3003
  5942                           	
  5943  0BC5                     i1l12332:	
  5944  0BC5  2BDE               	goto	i1l3003
  5945                           	
  5946  0BC6                     i1l3002:	
  5947                           	line	209
  5948                           	
  5949  0BC6                     i1l12334:	
  5950                           ;iic.c: 209: I2CSendByte(0xDD);
  5951  0BC6  30DD               	movlw	(0DDh)
  5952  0BC7  120A  118A  27C1   	fcall	_I2CSendByte
              120A  158A         
  5953                           	line	211
  5954                           ;iic.c: 211: if(I2CWaitAck()){return 0xFE;}
  5955  0BCC  120A  158A  22B5   	fcall	_I2CWaitAck
              120A  158A         
  5956  0BD1  3A00               	xorlw	0
  5957  0BD2  1903               	skipnz
  5958  0BD3  2BD5               	goto	u346_21
  5959  0BD4  2BD6               	goto	u346_20
  5960  0BD5                     u346_21:
  5961  0BD5  2BD9               	goto	i1l12340
  5962  0BD6                     u346_20:
  5963                           	
  5964  0BD6                     i1l12336:	
  5965  0BD6  30FE               	movlw	(0FEh)
  5966  0BD7  2BDE               	goto	i1l3003
  5967                           	
  5968  0BD8                     i1l12338:	
  5969  0BD8  2BDE               	goto	i1l3003
  5970                           	
  5971  0BD9                     i1l3004:	
  5972                           	line	212
  5973                           	
  5974  0BD9                     i1l12340:	
  5975                           ;iic.c: 212: I2CStop();
  5976  0BD9  120A  158A  2230   	fcall	_I2CStop
              120A  158A         
  5977                           	line	213
  5978                           	
  5979  0BDE                     i1l3003:	
  5980  0BDE  0008               	return
  5981                           	opt stack 0
  5982                           GLOBAL	__end_of_Trace_Write_Command
  5983  0BDF                     	__end_of_Trace_Write_Command:
  5984 ;; =============== function _Trace_Write_Command ends ============
  5985                           
  5986                           	signat	_Trace_Write_Command,89
  5987                           	global	_I2CWaitAck
  5988                           psect	text1045,local,class=CODE,delta=2
  5989                           global __ptext1045
  5990  0AB5                     __ptext1045:
  5991                           
  5992 ;; *************** function _I2CWaitAck *****************
  5993 ;; Defined at:
  5994 ;;		line 83 in file "D:\6_pic_project\00_Design_Flow_Car\Driver\iic.c"
  5995 ;; Parameters:    Size  Location     Type
  5996 ;;		None
  5997 ;; Auto vars:     Size  Location     Type
  5998 ;;  ackbit          1    2[COMMON] unsigned char 
  5999 ;; Return value:  Size  Location     Type
  6000 ;;                  1    wreg      unsigned char 
  6001 ;; Registers used:
  6002 ;;		wreg, status,2, status,0, pclath, cstack
  6003 ;; Tracked objects:
  6004 ;;		On entry : 0/0
  6005 ;;		On exit  : 0/0
  6006 ;;		Unchanged: 0/0
  6007 ;; Data sizes:     COMMON   BANK0   BANK1   BANK3   BANK2
  6008 ;;      Params:         0       0       0       0       0
  6009 ;;      Locals:         1       0       0       0       0
  6010 ;;      Temps:          1       0       0       0       0
  6011 ;;      Totals:         2       0       0       0       0
  6012 ;;Total ram usage:        2 bytes
  6013 ;; Hardware stack levels used:    1
  6014 ;; Hardware stack levels required when called:    1
  6015 ;; This function calls:
  6016 ;;		_I2C_Delay
  6017 ;; This function is called by:
  6018 ;;		_Trace_Write_Command
  6019 ;;		_DAC_Output
  6020 ;;		_IIC_ReadReg_Byte
  6021 ;;		_IIC_WriteReg_Byte
  6022 ;;		_IIC_WriteReg_Str
  6023 ;;		_IIC_ReadReg_Str
  6024 ;;		_Trace_Read_Data
  6025 ;; This function uses a non-reentrant model
  6026 ;;
  6027                           psect	text1045
  6028                           	file	"D:\6_pic_project\00_Design_Flow_Car\Driver\iic.c"
  6029                           	line	83
  6030                           	global	__size_of_I2CWaitAck
  6031  001B                     	__size_of_I2CWaitAck	equ	__end_of_I2CWaitAck-_I2CWaitAck
  6032                           	
  6033  0AB5                     _I2CWaitAck:	
  6034                           	opt	stack 1
  6035                           ; Regs used in _I2CWaitAck: [wreg+status,2+status,0+pclath+cstack]
  6036                           	line	86
  6037                           	
  6038  0AB5                     i1l12598:	
  6039                           ;iic.c: 84: unsigned char ackbit;
  6040                           ;iic.c: 86: RA1 = 1;
  6041  0AB5  1283               	bcf	status, 5	;RP0=0, select bank0
  6042  0AB6  1303               	bcf	status, 6	;RP1=0, select bank0
  6043  0AB7  1485               	bsf	(41/8),(41)&7
  6044                           	line	87
  6045                           	
  6046  0AB8                     i1l12600:	
  6047                           ;iic.c: 87: I2C_Delay(10);
  6048  0AB8  300A               	movlw	(0Ah)
  6049  0AB9  120A  158A  229B   	fcall	_I2C_Delay
              120A  158A         
  6050                           	line	88
  6051                           	
  6052  0ABE                     i1l12602:	
  6053                           ;iic.c: 88: ackbit = RA0;
  6054  0ABE  3000               	movlw	0
  6055  0ABF  1283               	bcf	status, 5	;RP0=0, select bank0
  6056  0AC0  1303               	bcf	status, 6	;RP1=0, select bank0
  6057  0AC1  1805               	btfsc	(40/8),(40)&7
  6058  0AC2  3001               	movlw	1
  6059  0AC3  00F1               	movwf	(??_I2CWaitAck+0)+0
  6060  0AC4  0871               	movf	(??_I2CWaitAck+0)+0,w
  6061  0AC5  00F2               	movwf	(I2CWaitAck@ackbit)
  6062                           	line	89
  6063                           	
  6064  0AC6                     i1l12604:	
  6065                           ;iic.c: 89: RA1 = 0;
  6066  0AC6  1085               	bcf	(41/8),(41)&7
  6067                           	line	90
  6068                           	
  6069  0AC7                     i1l12606:	
  6070                           ;iic.c: 90: I2C_Delay(10);
  6071  0AC7  300A               	movlw	(0Ah)
  6072  0AC8  120A  158A  229B   	fcall	_I2C_Delay
              120A  158A         
  6073                           	line	92
  6074                           ;iic.c: 92: return ackbit;
  6075  0ACD  0872               	movf	(I2CWaitAck@ackbit),w
  6076  0ACE  2ACF               	goto	i1l2973
  6077                           	
  6078  0ACF                     i1l12608:	
  6079                           	line	93
  6080                           	
  6081  0ACF                     i1l2973:	
  6082  0ACF  0008               	return
  6083                           	opt stack 0
  6084                           GLOBAL	__end_of_I2CWaitAck
  6085  0AD0                     	__end_of_I2CWaitAck:
  6086 ;; =============== function _I2CWaitAck ends ============
  6087                           
  6088                           	signat	_I2CWaitAck,89
  6089                           	global	_I2CSendByte
  6090                           psect	text1046,local,class=CODE,delta=2
  6091                           global __ptext1046
  6092  07C1                     __ptext1046:
  6093                           
  6094 ;; *************** function _I2CSendByte *****************
  6095 ;; Defined at:
  6096 ;;		line 43 in file "D:\6_pic_project\00_Design_Flow_Car\Driver\iic.c"
  6097 ;; Parameters:    Size  Location     Type
  6098 ;;  byt             1    wreg     unsigned char 
  6099 ;; Auto vars:     Size  Location     Type
  6100 ;;  byt             1    2[COMMON] unsigned char 
  6101 ;;  i               1    3[COMMON] unsigned char 
  6102 ;; Return value:  Size  Location     Type
  6103 ;;		None               void
  6104 ;; Registers used:
  6105 ;;		wreg, status,2, status,0, pclath, cstack
  6106 ;; Tracked objects:
  6107 ;;		On entry : 0/0
  6108 ;;		On exit  : 0/0
  6109 ;;		Unchanged: 0/0
  6110 ;; Data sizes:     COMMON   BANK0   BANK1   BANK3   BANK2
  6111 ;;      Params:         0       0       0       0       0
  6112 ;;      Locals:         2       0       0       0       0
  6113 ;;      Temps:          1       0       0       0       0
  6114 ;;      Totals:         3       0       0       0       0
  6115 ;;Total ram usage:        3 bytes
  6116 ;; Hardware stack levels used:    1
  6117 ;; Hardware stack levels required when called:    1
  6118 ;; This function calls:
  6119 ;;		_I2C_Delay
  6120 ;; This function is called by:
  6121 ;;		_Trace_Write_Command
  6122 ;;		_DAC_Output
  6123 ;;		_IIC_ReadReg_Byte
  6124 ;;		_IIC_WriteReg_Byte
  6125 ;;		_IIC_WriteReg_Str
  6126 ;;		_IIC_ReadReg_Str
  6127 ;;		_Trace_Read_Data
  6128 ;; This function uses a non-reentrant model
  6129 ;;
  6130                           psect	text1046
  6131                           	file	"D:\6_pic_project\00_Design_Flow_Car\Driver\iic.c"
  6132                           	line	43
  6133                           	global	__size_of_I2CSendByte
  6134  003E                     	__size_of_I2CSendByte	equ	__end_of_I2CSendByte-_I2CSendByte
  6135                           	
  6136  07C1                     _I2CSendByte:	
  6137                           	opt	stack 1
  6138                           ; Regs used in _I2CSendByte: [wreg+status,2+status,0+pclath+cstack]
  6139                           ;I2CSendByte@byt stored from wreg
  6140                           	line	46
  6141  07C1  00F2               	movwf	(I2CSendByte@byt)
  6142                           	
  6143  07C2                     i1l12550:	
  6144                           ;iic.c: 44: unsigned char i;
  6145                           ;iic.c: 46: for(i=0; i<8; i++){
  6146  07C2  01F3               	clrf	(I2CSendByte@i)
  6147                           	
  6148  07C3                     i1l12552:	
  6149  07C3  3008               	movlw	(08h)
  6150  07C4  0273               	subwf	(I2CSendByte@i),w
  6151  07C5  1C03               	skipc
  6152  07C6  2FC8               	goto	u391_21
  6153  07C7  2FC9               	goto	u391_20
  6154  07C8                     u391_21:
  6155  07C8  2FCB               	goto	i1l2960
  6156  07C9                     u391_20:
  6157  07C9  2FFB               	goto	i1l2961
  6158                           	
  6159  07CA                     i1l12554:	
  6160  07CA  2FFB               	goto	i1l2961
  6161                           	
  6162  07CB                     i1l2960:	
  6163                           	line	47
  6164                           ;iic.c: 47: RA1 = 0;
  6165  07CB  1283               	bcf	status, 5	;RP0=0, select bank0
  6166  07CC  1303               	bcf	status, 6	;RP1=0, select bank0
  6167  07CD  1085               	bcf	(41/8),(41)&7
  6168                           	line	48
  6169                           	
  6170  07CE                     i1l12556:	
  6171                           ;iic.c: 48: I2C_Delay(10);
  6172  07CE  300A               	movlw	(0Ah)
  6173  07CF  120A  158A  229B   	fcall	_I2C_Delay
              120A  118A         
  6174                           	line	49
  6175                           	
  6176  07D4                     i1l12558:	
  6177                           ;iic.c: 49: if(byt & 0x80){
  6178  07D4  1FF2               	btfss	(I2CSendByte@byt),(7)&7
  6179  07D5  2FD7               	goto	u392_21
  6180  07D6  2FD8               	goto	u392_20
  6181  07D7                     u392_21:
  6182  07D7  2FDC               	goto	i1l2962
  6183  07D8                     u392_20:
  6184                           	line	50
  6185                           	
  6186  07D8                     i1l12560:	
  6187                           ;iic.c: 50: RA0 = 1;
  6188  07D8  1283               	bcf	status, 5	;RP0=0, select bank0
  6189  07D9  1303               	bcf	status, 6	;RP1=0, select bank0
  6190  07DA  1405               	bsf	(40/8),(40)&7
  6191                           	line	51
  6192                           ;iic.c: 51: }
  6193  07DB  2FE0               	goto	i1l12562
  6194                           	line	52
  6195                           	
  6196  07DC                     i1l2962:	
  6197                           	line	53
  6198                           ;iic.c: 52: else{
  6199                           ;iic.c: 53: RA0 = 0;
  6200  07DC  1283               	bcf	status, 5	;RP0=0, select bank0
  6201  07DD  1303               	bcf	status, 6	;RP1=0, select bank0
  6202  07DE  1005               	bcf	(40/8),(40)&7
  6203  07DF  2FE0               	goto	i1l12562
  6204                           	line	54
  6205                           	
  6206  07E0                     i1l2963:	
  6207                           	line	55
  6208                           	
  6209  07E0                     i1l12562:	
  6210                           ;iic.c: 54: }
  6211                           ;iic.c: 55: I2C_Delay(10);
  6212  07E0  300A               	movlw	(0Ah)
  6213  07E1  120A  158A  229B   	fcall	_I2C_Delay
              120A  118A         
  6214                           	line	56
  6215                           	
  6216  07E6                     i1l12564:	
  6217                           ;iic.c: 56: RA1 = 1;
  6218  07E6  1283               	bcf	status, 5	;RP0=0, select bank0
  6219  07E7  1303               	bcf	status, 6	;RP1=0, select bank0
  6220  07E8  1485               	bsf	(41/8),(41)&7
  6221                           	line	57
  6222                           	
  6223  07E9                     i1l12566:	
  6224                           ;iic.c: 57: byt <<= 1;
  6225  07E9  1003               	clrc
  6226  07EA  0DF2               	rlf	(I2CSendByte@byt),f
  6227                           
  6228                           	line	58
  6229                           	
  6230  07EB                     i1l12568:	
  6231                           ;iic.c: 58: I2C_Delay(10);
  6232  07EB  300A               	movlw	(0Ah)
  6233  07EC  120A  158A  229B   	fcall	_I2C_Delay
              120A  118A         
  6234                           	line	46
  6235                           	
  6236  07F1                     i1l12570:	
  6237  07F1  3001               	movlw	(01h)
  6238  07F2  00F1               	movwf	(??_I2CSendByte+0)+0
  6239  07F3  0871               	movf	(??_I2CSendByte+0)+0,w
  6240  07F4  07F3               	addwf	(I2CSendByte@i),f
  6241                           	
  6242  07F5                     i1l12572:	
  6243  07F5  3008               	movlw	(08h)
  6244  07F6  0273               	subwf	(I2CSendByte@i),w
  6245  07F7  1C03               	skipc
  6246  07F8  2FFA               	goto	u393_21
  6247  07F9  2FFB               	goto	u393_20
  6248  07FA                     u393_21:
  6249  07FA  2FCB               	goto	i1l2960
  6250  07FB                     u393_20:
  6251                           	
  6252  07FB                     i1l2961:	
  6253                           	line	61
  6254                           ;iic.c: 59: }
  6255                           ;iic.c: 61: RA1 = 0;
  6256  07FB  1283               	bcf	status, 5	;RP0=0, select bank0
  6257  07FC  1303               	bcf	status, 6	;RP1=0, select bank0
  6258  07FD  1085               	bcf	(41/8),(41)&7
  6259                           	line	62
  6260                           	
  6261  07FE                     i1l2964:	
  6262  07FE  0008               	return
  6263                           	opt stack 0
  6264                           GLOBAL	__end_of_I2CSendByte
  6265  07FF                     	__end_of_I2CSendByte:
  6266 ;; =============== function _I2CSendByte ends ============
  6267                           
  6268                           	signat	_I2CSendByte,4216
  6269                           	global	_I2CStop
  6270                           psect	text1047,local,class=CODE,delta=2
  6271                           global __ptext1047
  6272  0A30                     __ptext1047:
  6273                           
  6274 ;; *************** function _I2CStop *****************
  6275 ;; Defined at:
  6276 ;;		line 33 in file "D:\6_pic_project\00_Design_Flow_Car\Driver\iic.c"
  6277 ;; Parameters:    Size  Location     Type
  6278 ;;		None
  6279 ;; Auto vars:     Size  Location     Type
  6280 ;;		None
  6281 ;; Return value:  Size  Location     Type
  6282 ;;		None               void
  6283 ;; Registers used:
  6284 ;;		wreg, status,2, status,0, pclath, cstack
  6285 ;; Tracked objects:
  6286 ;;		On entry : 0/0
  6287 ;;		On exit  : 0/0
  6288 ;;		Unchanged: 0/0
  6289 ;; Data sizes:     COMMON   BANK0   BANK1   BANK3   BANK2
  6290 ;;      Params:         0       0       0       0       0
  6291 ;;      Locals:         0       0       0       0       0
  6292 ;;      Temps:          0       0       0       0       0
  6293 ;;      Totals:         0       0       0       0       0
  6294 ;;Total ram usage:        0 bytes
  6295 ;; Hardware stack levels used:    1
  6296 ;; Hardware stack levels required when called:    1
  6297 ;; This function calls:
  6298 ;;		_I2C_Delay
  6299 ;; This function is called by:
  6300 ;;		_Trace_Write_Command
  6301 ;;		_DAC_Output
  6302 ;;		_IIC_ReadReg_Byte
  6303 ;;		_IIC_WriteReg_Byte
  6304 ;;		_IIC_WriteReg_Str
  6305 ;;		_IIC_ReadReg_Str
  6306 ;;		_Trace_Read_Data
  6307 ;; This function uses a non-reentrant model
  6308 ;;
  6309                           psect	text1047
  6310                           	file	"D:\6_pic_project\00_Design_Flow_Car\Driver\iic.c"
  6311                           	line	33
  6312                           	global	__size_of_I2CStop
  6313  0014                     	__size_of_I2CStop	equ	__end_of_I2CStop-_I2CStop
  6314                           	
  6315  0A30                     _I2CStop:	
  6316                           	opt	stack 1
  6317                           ; Regs used in _I2CStop: [wreg+status,2+status,0+pclath+cstack]
  6318                           	line	34
  6319                           	
  6320  0A30                     i1l12544:	
  6321                           ;iic.c: 34: RA0 = 0;
  6322  0A30  1283               	bcf	status, 5	;RP0=0, select bank0
  6323  0A31  1303               	bcf	status, 6	;RP1=0, select bank0
  6324  0A32  1005               	bcf	(40/8),(40)&7
  6325                           	line	35
  6326                           ;iic.c: 35: RA1 = 1;
  6327  0A33  1485               	bsf	(41/8),(41)&7
  6328                           	line	36
  6329                           	
  6330  0A34                     i1l12546:	
  6331                           ;iic.c: 36: I2C_Delay(10);
  6332  0A34  300A               	movlw	(0Ah)
  6333  0A35  120A  158A  229B   	fcall	_I2C_Delay
              120A  158A         
  6334                           	line	37
  6335                           	
  6336  0A3A                     i1l12548:	
  6337                           ;iic.c: 37: RA0 = 1;
  6338  0A3A  1283               	bcf	status, 5	;RP0=0, select bank0
  6339  0A3B  1303               	bcf	status, 6	;RP1=0, select bank0
  6340  0A3C  1405               	bsf	(40/8),(40)&7
  6341                           	line	38
  6342                           ;iic.c: 38: I2C_Delay(10);
  6343  0A3D  300A               	movlw	(0Ah)
  6344  0A3E  120A  158A  229B   	fcall	_I2C_Delay
              120A  158A         
  6345                           	line	39
  6346                           	
  6347  0A43                     i1l2957:	
  6348  0A43  0008               	return
  6349                           	opt stack 0
  6350                           GLOBAL	__end_of_I2CStop
  6351  0A44                     	__end_of_I2CStop:
  6352 ;; =============== function _I2CStop ends ============
  6353                           
  6354                           	signat	_I2CStop,88
  6355                           	global	_I2CStart
  6356                           psect	text1048,local,class=CODE,delta=2
  6357                           global __ptext1048
  6358  0A6D                     __ptext1048:
  6359                           
  6360 ;; *************** function _I2CStart *****************
  6361 ;; Defined at:
  6362 ;;		line 22 in file "D:\6_pic_project\00_Design_Flow_Car\Driver\iic.c"
  6363 ;; Parameters:    Size  Location     Type
  6364 ;;		None
  6365 ;; Auto vars:     Size  Location     Type
  6366 ;;		None
  6367 ;; Return value:  Size  Location     Type
  6368 ;;		None               void
  6369 ;; Registers used:
  6370 ;;		wreg, status,2, status,0, pclath, cstack
  6371 ;; Tracked objects:
  6372 ;;		On entry : 0/0
  6373 ;;		On exit  : 0/0
  6374 ;;		Unchanged: 0/0
  6375 ;; Data sizes:     COMMON   BANK0   BANK1   BANK3   BANK2
  6376 ;;      Params:         0       0       0       0       0
  6377 ;;      Locals:         0       0       0       0       0
  6378 ;;      Temps:          0       0       0       0       0
  6379 ;;      Totals:         0       0       0       0       0
  6380 ;;Total ram usage:        0 bytes
  6381 ;; Hardware stack levels used:    1
  6382 ;; Hardware stack levels required when called:    1
  6383 ;; This function calls:
  6384 ;;		_I2C_Delay
  6385 ;; This function is called by:
  6386 ;;		_Trace_Write_Command
  6387 ;;		_DAC_Output
  6388 ;;		_IIC_ReadReg_Byte
  6389 ;;		_IIC_WriteReg_Byte
  6390 ;;		_IIC_WriteReg_Str
  6391 ;;		_IIC_ReadReg_Str
  6392 ;;		_Trace_Read_Data
  6393 ;; This function uses a non-reentrant model
  6394 ;;
  6395                           psect	text1048
  6396                           	file	"D:\6_pic_project\00_Design_Flow_Car\Driver\iic.c"
  6397                           	line	22
  6398                           	global	__size_of_I2CStart
  6399  0017                     	__size_of_I2CStart	equ	__end_of_I2CStart-_I2CStart
  6400                           	
  6401  0A6D                     _I2CStart:	
  6402                           	opt	stack 1
  6403                           ; Regs used in _I2CStart: [wreg+status,2+status,0+pclath+cstack]
  6404                           	line	23
  6405                           	
  6406  0A6D                     i1l12536:	
  6407                           ;iic.c: 23: RA0 = 1;
  6408  0A6D  1283               	bcf	status, 5	;RP0=0, select bank0
  6409  0A6E  1303               	bcf	status, 6	;RP1=0, select bank0
  6410  0A6F  1405               	bsf	(40/8),(40)&7
  6411                           	line	24
  6412                           ;iic.c: 24: RA1 = 1;
  6413  0A70  1485               	bsf	(41/8),(41)&7
  6414                           	line	25
  6415                           	
  6416  0A71                     i1l12538:	
  6417                           ;iic.c: 25: I2C_Delay(10);
  6418  0A71  300A               	movlw	(0Ah)
  6419  0A72  120A  158A  229B   	fcall	_I2C_Delay
              120A  158A         
  6420                           	line	26
  6421                           	
  6422  0A77                     i1l12540:	
  6423                           ;iic.c: 26: RA0 = 0;
  6424  0A77  1283               	bcf	status, 5	;RP0=0, select bank0
  6425  0A78  1303               	bcf	status, 6	;RP1=0, select bank0
  6426  0A79  1005               	bcf	(40/8),(40)&7
  6427                           	line	27
  6428                           ;iic.c: 27: I2C_Delay(10);
  6429  0A7A  300A               	movlw	(0Ah)
  6430  0A7B  120A  158A  229B   	fcall	_I2C_Delay
              120A  158A         
  6431                           	line	28
  6432                           	
  6433  0A80                     i1l12542:	
  6434                           ;iic.c: 28: RA1 = 0;
  6435  0A80  1283               	bcf	status, 5	;RP0=0, select bank0
  6436  0A81  1303               	bcf	status, 6	;RP1=0, select bank0
  6437  0A82  1085               	bcf	(41/8),(41)&7
  6438                           	line	29
  6439                           	
  6440  0A83                     i1l2954:	
  6441  0A83  0008               	return
  6442                           	opt stack 0
  6443                           GLOBAL	__end_of_I2CStart
  6444  0A84                     	__end_of_I2CStart:
  6445 ;; =============== function _I2CStart ends ============
  6446                           
  6447                           	signat	_I2CStart,88
  6448                           	global	_Velocity_PID
  6449                           psect	text1049,local,class=CODE,delta=2
  6450                           global __ptext1049
  6451  0015                     __ptext1049:
  6452                           
  6453 ;; *************** function _Velocity_PID *****************
  6454 ;; Defined at:
  6455 ;;		line 44 in file "D:\6_pic_project\00_Design_Flow_Car\Driver\pid.c"
  6456 ;; Parameters:    Size  Location     Type
  6457 ;;  velocity        2   39[BANK0 ] int 
  6458 ;;  velocity_cal    2   41[BANK0 ] int 
  6459 ;; Auto vars:     Size  Location     Type
  6460 ;;  a               3   45[BANK0 ] float 
  6461 ;; Return value:  Size  Location     Type
  6462 ;;                  2   39[BANK0 ] int 
  6463 ;; Registers used:
  6464 ;;		wreg, fsr0l, fsr0h, fsr1l, fsr1h, status,2, status,0, btemp+1, pclath, cstack
  6465 ;; Tracked objects:
  6466 ;;		On entry : 0/0
  6467 ;;		On exit  : 0/0
  6468 ;;		Unchanged: 0/0
  6469 ;; Data sizes:     COMMON   BANK0   BANK1   BANK3   BANK2
  6470 ;;      Params:         0       4       0       0       0
  6471 ;;      Locals:         0       3       0       0       0
  6472 ;;      Temps:          0       2       0       0       0
  6473 ;;      Totals:         0       9       0       0       0
  6474 ;;Total ram usage:        9 bytes
  6475 ;; Hardware stack levels used:    1
  6476 ;; Hardware stack levels required when called:    2
  6477 ;; This function calls:
  6478 ;;		___awtoft
  6479 ;;		___ftneg
  6480 ;;		___ftadd
  6481 ;;		___ftmul
  6482 ;;		_I_amplitude_limiting
  6483 ;;		___fttol
  6484 ;; This function is called by:
  6485 ;;		_Service
  6486 ;; This function uses a non-reentrant model
  6487 ;;
  6488                           psect	text1049
  6489                           	file	"D:\6_pic_project\00_Design_Flow_Car\Driver\pid.c"
  6490                           	line	44
  6491                           	global	__size_of_Velocity_PID
  6492  014B                     	__size_of_Velocity_PID	equ	__end_of_Velocity_PID-_Velocity_PID
  6493                           	
  6494  0015                     _Velocity_PID:	
  6495                           	opt	stack 1
  6496                           ; Regs used in _Velocity_PID: [allreg]
  6497                           	line	45
  6498                           	
  6499  0015                     i1l12342:	
  6500                           ;pid.c: 45: float a = 0.3;
  6501  0015  309A               	movlw	0x9a
  6502  0016  1283               	bcf	status, 5	;RP0=0, select bank0
  6503  0017  1303               	bcf	status, 6	;RP1=0, select bank0
  6504  0018  00CD               	movwf	(Velocity_PID@a)
  6505  0019  3099               	movlw	0x99
  6506  001A  00CE               	movwf	(Velocity_PID@a+1)
  6507  001B  303E               	movlw	0x3e
  6508  001C  00CF               	movwf	(Velocity_PID@a+2)
  6509                           	line	47
  6510                           	
  6511  001D                     i1l12344:	
  6512                           ;pid.c: 47: if(velocity_calcu < 0)
  6513  001D  1FCA               	btfss	(Velocity_PID@velocity_calcu+1),7
  6514  001E  2820               	goto	u347_21
  6515  001F  2821               	goto	u347_20
  6516  0020                     u347_21:
  6517  0020  2827               	goto	i1l12348
  6518  0021                     u347_20:
  6519                           	line	49
  6520                           	
  6521  0021                     i1l12346:	
  6522                           ;pid.c: 48: {
  6523                           ;pid.c: 49: velocity = -velocity;
  6524  0021  09C7               	comf	(Velocity_PID@velocity),f
  6525  0022  09C8               	comf	(Velocity_PID@velocity+1),f
  6526  0023  0AC7               	incf	(Velocity_PID@velocity),f
  6527  0024  1903               	skipnz
  6528  0025  0AC8               	incf	(Velocity_PID@velocity+1),f
  6529  0026  2827               	goto	i1l12348
  6530                           	line	50
  6531                           	
  6532  0027                     i1l9225:	
  6533                           	line	52
  6534                           	
  6535  0027                     i1l12348:	
  6536                           ;pid.c: 50: }
  6537                           ;pid.c: 52: Velocity.error = velocity - velocity_calcu;
  6538  0027  0949               	comf	(Velocity_PID@velocity_calcu),w
  6539  0028  00CB               	movwf	(??_Velocity_PID+0)+0
  6540  0029  094A               	comf	(Velocity_PID@velocity_calcu+1),w
  6541  002A  00CC               	movwf	((??_Velocity_PID+0)+0+1)
  6542  002B  0ACB               	incf	(??_Velocity_PID+0)+0,f
  6543  002C  1903               	skipnz
  6544  002D  0ACC               	incf	((??_Velocity_PID+0)+0+1),f
  6545  002E  0847               	movf	(Velocity_PID@velocity),w
  6546  002F  074B               	addwf	0+(??_Velocity_PID+0)+0,w
  6547  0030  00F8               	movwf	(?___awtoft)
  6548  0031  0848               	movf	(Velocity_PID@velocity+1),w
  6549  0032  1803               	skipnc
  6550  0033  0A48               	incf	(Velocity_PID@velocity+1),w
  6551  0034  074C               	addwf	1+(??_Velocity_PID+0)+0,w
  6552  0035  00F9               	movwf	1+(?___awtoft)
  6553  0036  120A  158A  2356   	fcall	___awtoft
              120A  118A         
  6554  003B  0878               	movf	(0+(?___awtoft)),w
  6555  003C  1683               	bsf	status, 5	;RP0=1, select bank3
  6556  003D  1703               	bsf	status, 6	;RP1=1, select bank3
  6557  003E  0099               	movwf	0+(_Velocity)^0180h+09h
  6558  003F  0879               	movf	(1+(?___awtoft)),w
  6559  0040  009A               	movwf	1+(_Velocity)^0180h+09h
  6560  0041  087A               	movf	(2+(?___awtoft)),w
  6561  0042  009B               	movwf	2+(_Velocity)^0180h+09h
  6562                           	line	53
  6563                           	
  6564  0043                     i1l12350:	
  6565                           ;pid.c: 53: filt_velocity = a*Velocity.error+(1-a)*last_filt_velocity;
  6566  0043  1683               	bsf	status, 5	;RP0=1, select bank1
  6567  0044  1303               	bcf	status, 6	;RP1=0, select bank1
  6568  0045  0860               	movf	(_last_filt_velocity)^080h,w
  6569  0046  1283               	bcf	status, 5	;RP0=0, select bank0
  6570  0047  1303               	bcf	status, 6	;RP1=0, select bank0
  6571  0048  00B7               	movwf	(?___ftmul)
  6572  0049  1683               	bsf	status, 5	;RP0=1, select bank1
  6573  004A  1303               	bcf	status, 6	;RP1=0, select bank1
  6574  004B  0861               	movf	(_last_filt_velocity+1)^080h,w
  6575  004C  1283               	bcf	status, 5	;RP0=0, select bank0
  6576  004D  1303               	bcf	status, 6	;RP1=0, select bank0
  6577  004E  00B8               	movwf	(?___ftmul+1)
  6578  004F  1683               	bsf	status, 5	;RP0=1, select bank1
  6579  0050  1303               	bcf	status, 6	;RP1=0, select bank1
  6580  0051  0862               	movf	(_last_filt_velocity+2)^080h,w
  6581  0052  1283               	bcf	status, 5	;RP0=0, select bank0
  6582  0053  1303               	bcf	status, 6	;RP1=0, select bank0
  6583  0054  00B9               	movwf	(?___ftmul+2)
  6584  0055  3000               	movlw	0x0
  6585  0056  00AA               	movwf	(?___ftadd)
  6586  0057  3080               	movlw	0x80
  6587  0058  00AB               	movwf	(?___ftadd+1)
  6588  0059  303F               	movlw	0x3f
  6589  005A  00AC               	movwf	(?___ftadd+2)
  6590  005B  084D               	movf	(Velocity_PID@a),w
  6591  005C  00F0               	movwf	(?___ftneg)
  6592  005D  084E               	movf	(Velocity_PID@a+1),w
  6593  005E  00F1               	movwf	(?___ftneg+1)
  6594  005F  084F               	movf	(Velocity_PID@a+2),w
  6595  0060  00F2               	movwf	(?___ftneg+2)
  6596  0061  120A  158A  21D0   	fcall	___ftneg
              120A  118A         
  6597  0066  0870               	movf	(0+(?___ftneg)),w
  6598  0067  1283               	bcf	status, 5	;RP0=0, select bank0
  6599  0068  1303               	bcf	status, 6	;RP1=0, select bank0
  6600  0069  00AD               	movwf	0+(?___ftadd)+03h
  6601  006A  0871               	movf	(1+(?___ftneg)),w
  6602  006B  00AE               	movwf	1+(?___ftadd)+03h
  6603  006C  0872               	movf	(2+(?___ftneg)),w
  6604  006D  00AF               	movwf	2+(?___ftadd)+03h
  6605  006E  120A  118A  22A9   	fcall	___ftadd
              120A  118A         
  6606  0073  1283               	bcf	status, 5	;RP0=0, select bank0
  6607  0074  1303               	bcf	status, 6	;RP1=0, select bank0
  6608  0075  082A               	movf	(0+(?___ftadd)),w
  6609  0076  00BA               	movwf	0+(?___ftmul)+03h
  6610  0077  082B               	movf	(1+(?___ftadd)),w
  6611  0078  00BB               	movwf	1+(?___ftmul)+03h
  6612  0079  082C               	movf	(2+(?___ftadd)),w
  6613  007A  00BC               	movwf	2+(?___ftmul)+03h
  6614  007B  120A  118A  262B   	fcall	___ftmul
              120A  118A         
  6615  0080  1283               	bcf	status, 5	;RP0=0, select bank0
  6616  0081  1303               	bcf	status, 6	;RP1=0, select bank0
  6617  0082  0837               	movf	(0+(?___ftmul)),w
  6618  0083  00AA               	movwf	(?___ftadd)
  6619  0084  0838               	movf	(1+(?___ftmul)),w
  6620  0085  00AB               	movwf	(?___ftadd+1)
  6621  0086  0839               	movf	(2+(?___ftmul)),w
  6622  0087  00AC               	movwf	(?___ftadd+2)
  6623  0088  084D               	movf	(Velocity_PID@a),w
  6624  0089  00B7               	movwf	(?___ftmul)
  6625  008A  084E               	movf	(Velocity_PID@a+1),w
  6626  008B  00B8               	movwf	(?___ftmul+1)
  6627  008C  084F               	movf	(Velocity_PID@a+2),w
  6628  008D  00B9               	movwf	(?___ftmul+2)
  6629  008E  3009               	movlw	(09h)
  6630  008F  3E90               	addlw	_Velocity&0ffh
  6631  0090  0084               	movwf	fsr0
  6632  0091  1783               	bsf	status, 7	;select IRP bank3
  6633  0092  0800               	movf	indf,w
  6634  0093  00BA               	movwf	0+(?___ftmul)+03h
  6635  0094  0A84               	incf	fsr0,f
  6636  0095  0800               	movf	indf,w
  6637  0096  00BB               	movwf	1+(?___ftmul)+03h
  6638  0097  0A84               	incf	fsr0,f
  6639  0098  0800               	movf	indf,w
  6640  0099  00BC               	movwf	2+(?___ftmul)+03h
  6641  009A  120A  118A  262B   	fcall	___ftmul
              120A  118A         
  6642  009F  1283               	bcf	status, 5	;RP0=0, select bank0
  6643  00A0  1303               	bcf	status, 6	;RP1=0, select bank0
  6644  00A1  0837               	movf	(0+(?___ftmul)),w
  6645  00A2  00AD               	movwf	0+(?___ftadd)+03h
  6646  00A3  0838               	movf	(1+(?___ftmul)),w
  6647  00A4  00AE               	movwf	1+(?___ftadd)+03h
  6648  00A5  0839               	movf	(2+(?___ftmul)),w
  6649  00A6  00AF               	movwf	2+(?___ftadd)+03h
  6650  00A7  120A  118A  22A9   	fcall	___ftadd
              120A  118A         
  6651  00AC  1283               	bcf	status, 5	;RP0=0, select bank0
  6652  00AD  1303               	bcf	status, 6	;RP1=0, select bank0
  6653  00AE  082A               	movf	(0+(?___ftadd)),w
  6654  00AF  00D6               	movwf	(_filt_velocity)
  6655  00B0  082B               	movf	(1+(?___ftadd)),w
  6656  00B1  00D7               	movwf	(_filt_velocity+1)
  6657  00B2  082C               	movf	(2+(?___ftadd)),w
  6658  00B3  00D8               	movwf	(_filt_velocity+2)
  6659                           	line	54
  6660                           	
  6661  00B4                     i1l12352:	
  6662                           ;pid.c: 54: Velocity.error_sum += filt_velocity ;
  6663  00B4  0856               	movf	(_filt_velocity),w
  6664  00B5  00AA               	movwf	(?___ftadd)
  6665  00B6  0857               	movf	(_filt_velocity+1),w
  6666  00B7  00AB               	movwf	(?___ftadd+1)
  6667  00B8  0858               	movf	(_filt_velocity+2),w
  6668  00B9  00AC               	movwf	(?___ftadd+2)
  6669  00BA  300F               	movlw	(0Fh)
  6670  00BB  3E90               	addlw	_Velocity&0ffh
  6671  00BC  0084               	movwf	fsr0
  6672  00BD  1783               	bsf	status, 7	;select IRP bank3
  6673  00BE  0800               	movf	indf,w
  6674  00BF  00AD               	movwf	0+(?___ftadd)+03h
  6675  00C0  0A84               	incf	fsr0,f
  6676  00C1  0800               	movf	indf,w
  6677  00C2  00AE               	movwf	1+(?___ftadd)+03h
  6678  00C3  0A84               	incf	fsr0,f
  6679  00C4  0800               	movf	indf,w
  6680  00C5  00AF               	movwf	2+(?___ftadd)+03h
  6681  00C6  120A  118A  22A9   	fcall	___ftadd
              120A  118A         
  6682  00CB  1283               	bcf	status, 5	;RP0=0, select bank0
  6683  00CC  1303               	bcf	status, 6	;RP1=0, select bank0
  6684  00CD  082A               	movf	(0+(?___ftadd)),w
  6685  00CE  1683               	bsf	status, 5	;RP0=1, select bank3
  6686  00CF  1703               	bsf	status, 6	;RP1=1, select bank3
  6687  00D0  009F               	movwf	0+(_Velocity)^0180h+0Fh
  6688  00D1  1283               	bcf	status, 5	;RP0=0, select bank0
  6689  00D2  1303               	bcf	status, 6	;RP1=0, select bank0
  6690  00D3  082B               	movf	(1+(?___ftadd)),w
  6691  00D4  1683               	bsf	status, 5	;RP0=1, select bank3
  6692  00D5  1703               	bsf	status, 6	;RP1=1, select bank3
  6693  00D6  00A0               	movwf	1+(_Velocity)^0180h+0Fh
  6694  00D7  1283               	bcf	status, 5	;RP0=0, select bank0
  6695  00D8  1303               	bcf	status, 6	;RP1=0, select bank0
  6696  00D9  082C               	movf	(2+(?___ftadd)),w
  6697  00DA  1683               	bsf	status, 5	;RP0=1, select bank3
  6698  00DB  1703               	bsf	status, 6	;RP1=1, select bank3
  6699  00DC  00A1               	movwf	2+(_Velocity)^0180h+0Fh
  6700                           	line	55
  6701                           	
  6702  00DD                     i1l12354:	
  6703                           ;pid.c: 55: I_amplitude_limiting(20,&Velocity.error_sum);
  6704  00DD  309F               	movlw	(_Velocity+0Fh)&0ffh
  6705  00DE  1283               	bcf	status, 5	;RP0=0, select bank0
  6706  00DF  1303               	bcf	status, 6	;RP1=0, select bank0
  6707  00E0  00CB               	movwf	(??_Velocity_PID+0)+0
  6708  00E1  084B               	movf	(??_Velocity_PID+0)+0,w
  6709  00E2  00F0               	movwf	(?_I_amplitude_limiting)
  6710  00E3  3014               	movlw	(014h)
  6711  00E4  120A  158A  237E   	fcall	_I_amplitude_limiting
              120A  118A         
  6712                           	line	56
  6713                           	
  6714  00E9                     i1l12356:	
  6715                           ;pid.c: 56: last_filt_velocity = filt_velocity;
  6716  00E9  1283               	bcf	status, 5	;RP0=0, select bank0
  6717  00EA  1303               	bcf	status, 6	;RP1=0, select bank0
  6718  00EB  0856               	movf	(_filt_velocity),w
  6719  00EC  1683               	bsf	status, 5	;RP0=1, select bank1
  6720  00ED  1303               	bcf	status, 6	;RP1=0, select bank1
  6721  00EE  00E0               	movwf	(_last_filt_velocity)^080h
  6722  00EF  1283               	bcf	status, 5	;RP0=0, select bank0
  6723  00F0  1303               	bcf	status, 6	;RP1=0, select bank0
  6724  00F1  0857               	movf	(_filt_velocity+1),w
  6725  00F2  1683               	bsf	status, 5	;RP0=1, select bank1
  6726  00F3  1303               	bcf	status, 6	;RP1=0, select bank1
  6727  00F4  00E1               	movwf	(_last_filt_velocity+1)^080h
  6728  00F5  1283               	bcf	status, 5	;RP0=0, select bank0
  6729  00F6  1303               	bcf	status, 6	;RP1=0, select bank0
  6730  00F7  0858               	movf	(_filt_velocity+2),w
  6731  00F8  1683               	bsf	status, 5	;RP0=1, select bank1
  6732  00F9  1303               	bcf	status, 6	;RP1=0, select bank1
  6733  00FA  00E2               	movwf	(_last_filt_velocity+2)^080h
  6734                           	line	58
  6735                           	
  6736  00FB                     i1l12358:	
  6737                           ;pid.c: 58: return ((int)(filt_velocity * Velocity.Kp + Velocity.error_sum * Velocity.Ki
                                 );
  6738  00FB  1683               	bsf	status, 5	;RP0=1, select bank3
  6739  00FC  1703               	bsf	status, 6	;RP1=1, select bank3
  6740  00FD  0810               	movf	(_Velocity)^0180h,w
  6741  00FE  1283               	bcf	status, 5	;RP0=0, select bank0
  6742  00FF  1303               	bcf	status, 6	;RP1=0, select bank0
  6743  0100  00BA               	movwf	0+(?___ftmul)+03h
  6744  0101  1683               	bsf	status, 5	;RP0=1, select bank3
  6745  0102  1703               	bsf	status, 6	;RP1=1, select bank3
  6746  0103  0811               	movf	(_Velocity+1)^0180h,w
  6747  0104  1283               	bcf	status, 5	;RP0=0, select bank0
  6748  0105  1303               	bcf	status, 6	;RP1=0, select bank0
  6749  0106  00BB               	movwf	1+(?___ftmul)+03h
  6750  0107  1683               	bsf	status, 5	;RP0=1, select bank3
  6751  0108  1703               	bsf	status, 6	;RP1=1, select bank3
  6752  0109  0812               	movf	(_Velocity+2)^0180h,w
  6753  010A  1283               	bcf	status, 5	;RP0=0, select bank0
  6754  010B  1303               	bcf	status, 6	;RP1=0, select bank0
  6755  010C  00BC               	movwf	2+(?___ftmul)+03h
  6756  010D  0856               	movf	(_filt_velocity),w
  6757  010E  00B7               	movwf	(?___ftmul)
  6758  010F  0857               	movf	(_filt_velocity+1),w
  6759  0110  00B8               	movwf	(?___ftmul+1)
  6760  0111  0858               	movf	(_filt_velocity+2),w
  6761  0112  00B9               	movwf	(?___ftmul+2)
  6762  0113  120A  118A  262B   	fcall	___ftmul
              120A  118A         
  6763  0118  1283               	bcf	status, 5	;RP0=0, select bank0
  6764  0119  1303               	bcf	status, 6	;RP1=0, select bank0
  6765  011A  0837               	movf	(0+(?___ftmul)),w
  6766  011B  00AD               	movwf	0+(?___ftadd)+03h
  6767  011C  0838               	movf	(1+(?___ftmul)),w
  6768  011D  00AE               	movwf	1+(?___ftadd)+03h
  6769  011E  0839               	movf	(2+(?___ftmul)),w
  6770  011F  00AF               	movwf	2+(?___ftadd)+03h
  6771  0120  300F               	movlw	(0Fh)
  6772  0121  3E90               	addlw	_Velocity&0ffh
  6773  0122  0084               	movwf	fsr0
  6774  0123  1783               	bsf	status, 7	;select IRP bank3
  6775  0124  0800               	movf	indf,w
  6776  0125  00BA               	movwf	0+(?___ftmul)+03h
  6777  0126  0A84               	incf	fsr0,f
  6778  0127  0800               	movf	indf,w
  6779  0128  00BB               	movwf	1+(?___ftmul)+03h
  6780  0129  0A84               	incf	fsr0,f
  6781  012A  0800               	movf	indf,w
  6782  012B  00BC               	movwf	2+(?___ftmul)+03h
  6783  012C  3003               	movlw	(03h)
  6784  012D  3E90               	addlw	_Velocity&0ffh
  6785  012E  0084               	movwf	fsr0
  6786  012F  0800               	movf	indf,w
  6787  0130  00B7               	movwf	(?___ftmul)
  6788  0131  0A84               	incf	fsr0,f
  6789  0132  0800               	movf	indf,w
  6790  0133  00B8               	movwf	(?___ftmul+1)
  6791  0134  0A84               	incf	fsr0,f
  6792  0135  0800               	movf	indf,w
  6793  0136  00B9               	movwf	(?___ftmul+2)
  6794  0137  120A  118A  262B   	fcall	___ftmul
              120A  118A         
  6795  013C  1283               	bcf	status, 5	;RP0=0, select bank0
  6796  013D  1303               	bcf	status, 6	;RP1=0, select bank0
  6797  013E  0837               	movf	(0+(?___ftmul)),w
  6798  013F  00AA               	movwf	(?___ftadd)
  6799  0140  0838               	movf	(1+(?___ftmul)),w
  6800  0141  00AB               	movwf	(?___ftadd+1)
  6801  0142  0839               	movf	(2+(?___ftmul)),w
  6802  0143  00AC               	movwf	(?___ftadd+2)
  6803  0144  120A  118A  22A9   	fcall	___ftadd
              120A  118A         
  6804  0149  1283               	bcf	status, 5	;RP0=0, select bank0
  6805  014A  1303               	bcf	status, 6	;RP1=0, select bank0
  6806  014B  082A               	movf	(0+(?___ftadd)),w
  6807  014C  00F8               	movwf	(?___fttol)
  6808  014D  082B               	movf	(1+(?___ftadd)),w
  6809  014E  00F9               	movwf	(?___fttol+1)
  6810  014F  082C               	movf	(2+(?___ftadd)),w
  6811  0150  00FA               	movwf	(?___fttol+2)
  6812  0151  120A  158A  275A   	fcall	___fttol
              120A  118A         
  6813  0156  0879               	movf	1+(((0+(?___fttol)))),w
  6814  0157  1283               	bcf	status, 5	;RP0=0, select bank0
  6815  0158  1303               	bcf	status, 6	;RP1=0, select bank0
  6816  0159  01C8               	clrf	(?_Velocity_PID+1)
  6817  015A  07C8               	addwf	(?_Velocity_PID+1)
  6818  015B  0878               	movf	0+(((0+(?___fttol)))),w
  6819  015C  01C7               	clrf	(?_Velocity_PID)
  6820  015D  07C7               	addwf	(?_Velocity_PID)
  6821                           
  6822  015E  295F               	goto	i1l9226
  6823                           	
  6824  015F                     i1l12360:	
  6825                           	line	59
  6826                           	
  6827  015F                     i1l9226:	
  6828  015F  0008               	return
  6829                           	opt stack 0
  6830                           GLOBAL	__end_of_Velocity_PID
  6831  0160                     	__end_of_Velocity_PID:
  6832 ;; =============== function _Velocity_PID ends ============
  6833                           
  6834                           	signat	_Velocity_PID,8314
  6835                           	global	___awtoft
  6836                           psect	text1050,local,class=CODE,delta=2
  6837                           global __ptext1050
  6838  0B56                     __ptext1050:
  6839                           
  6840 ;; *************** function ___awtoft *****************
  6841 ;; Defined at:
  6842 ;;		line 33 in file "C:\Program Files (x86)\HI-TECH Software\PICC\9.82\sources\awtoft.c"
  6843 ;; Parameters:    Size  Location     Type
  6844 ;;  c               2    8[COMMON] int 
  6845 ;; Auto vars:     Size  Location     Type
  6846 ;;  sign            1   13[COMMON] unsigned char 
  6847 ;; Return value:  Size  Location     Type
  6848 ;;                  3    8[COMMON] float 
  6849 ;; Registers used:
  6850 ;;		wreg, status,2, status,0, pclath, cstack
  6851 ;; Tracked objects:
  6852 ;;		On entry : 0/0
  6853 ;;		On exit  : 0/0
  6854 ;;		Unchanged: 0/0
  6855 ;; Data sizes:     COMMON   BANK0   BANK1   BANK3   BANK2
  6856 ;;      Params:         3       0       0       0       0
  6857 ;;      Locals:         1       0       0       0       0
  6858 ;;      Temps:          2       0       0       0       0
  6859 ;;      Totals:         6       0       0       0       0
  6860 ;;Total ram usage:        6 bytes
  6861 ;; Hardware stack levels used:    1
  6862 ;; Hardware stack levels required when called:    1
  6863 ;; This function calls:
  6864 ;;		___ftpack
  6865 ;; This function is called by:
  6866 ;;		_Velocity_PID
  6867 ;; This function uses a non-reentrant model
  6868 ;;
  6869                           psect	text1050
  6870                           	file	"C:\Program Files (x86)\HI-TECH Software\PICC\9.82\sources\awtoft.c"
  6871                           	line	33
  6872                           	global	__size_of___awtoft
  6873  0028                     	__size_of___awtoft	equ	__end_of___awtoft-___awtoft
  6874                           	
  6875  0B56                     ___awtoft:	
  6876                           	opt	stack 1
  6877                           ; Regs used in ___awtoft: [wreg+status,2+status,0+pclath+cstack]
  6878                           	line	36
  6879                           	
  6880  0B56                     i1l12996:	
  6881  0B56  01FD               	clrf	(___awtoft@sign)
  6882                           	line	37
  6883  0B57  1FF9               	btfss	(___awtoft@c+1),7
  6884  0B58  2B5A               	goto	u493_21
  6885  0B59  2B5B               	goto	u493_20
  6886  0B5A                     u493_21:
  6887  0B5A  2B64               	goto	i1l13000
  6888  0B5B                     u493_20:
  6889                           	line	38
  6890                           	
  6891  0B5B                     i1l12998:	
  6892  0B5B  09F8               	comf	(___awtoft@c),f
  6893  0B5C  09F9               	comf	(___awtoft@c+1),f
  6894  0B5D  0AF8               	incf	(___awtoft@c),f
  6895  0B5E  1903               	skipnz
  6896  0B5F  0AF9               	incf	(___awtoft@c+1),f
  6897                           	line	39
  6898  0B60  01FD               	clrf	(___awtoft@sign)
  6899  0B61  1403               	bsf	status,0
  6900  0B62  0DFD               	rlf	(___awtoft@sign),f
  6901  0B63  2B64               	goto	i1l13000
  6902                           	line	40
  6903                           	
  6904  0B64                     i1l10076:	
  6905                           	line	41
  6906                           	
  6907  0B64                     i1l13000:	
  6908  0B64  0878               	movf	(___awtoft@c),w
  6909  0B65  00F0               	movwf	(?___ftpack)
  6910  0B66  0879               	movf	(___awtoft@c+1),w
  6911  0B67  00F1               	movwf	(?___ftpack+1)
  6912  0B68  01F2               	clrf	(?___ftpack+2)
  6913  0B69  308E               	movlw	(08Eh)
  6914  0B6A  00FB               	movwf	(??___awtoft+0)+0
  6915  0B6B  087B               	movf	(??___awtoft+0)+0,w
  6916  0B6C  00F3               	movwf	0+(?___ftpack)+03h
  6917  0B6D  087D               	movf	(___awtoft@sign),w
  6918  0B6E  00FC               	movwf	(??___awtoft+1)+0
  6919  0B6F  087C               	movf	(??___awtoft+1)+0,w
  6920  0B70  00F4               	movwf	0+(?___ftpack)+04h
  6921  0B71  120A  158A  264D   	fcall	___ftpack
              120A  158A         
  6922  0B76  0870               	movf	(0+(?___ftpack)),w
  6923  0B77  00F8               	movwf	(?___awtoft)
  6924  0B78  0871               	movf	(1+(?___ftpack)),w
  6925  0B79  00F9               	movwf	(?___awtoft+1)
  6926  0B7A  0872               	movf	(2+(?___ftpack)),w
  6927  0B7B  00FA               	movwf	(?___awtoft+2)
  6928  0B7C  2B7D               	goto	i1l10077
  6929                           	
  6930  0B7D                     i1l13002:	
  6931                           	line	42
  6932                           	
  6933  0B7D                     i1l10077:	
  6934  0B7D  0008               	return
  6935                           	opt stack 0
  6936                           GLOBAL	__end_of___awtoft
  6937  0B7E                     	__end_of___awtoft:
  6938 ;; =============== function ___awtoft ends ============
  6939                           
  6940                           	signat	___awtoft,4219
  6941                           	global	___ftmul
  6942                           psect	text1051,local,class=CODE,delta=2
  6943                           global __ptext1051
  6944  062B                     __ptext1051:
  6945                           
  6946 ;; *************** function ___ftmul *****************
  6947 ;; Defined at:
  6948 ;;		line 52 in file "C:\Program Files (x86)\HI-TECH Software\PICC\9.82\sources\ftmul.c"
  6949 ;; Parameters:    Size  Location     Type
  6950 ;;  f1              3   23[BANK0 ] float 
  6951 ;;  f2              3   26[BANK0 ] float 
  6952 ;; Auto vars:     Size  Location     Type
  6953 ;;  f3_as_produc    3   34[BANK0 ] unsigned um
  6954 ;;  sign            1   38[BANK0 ] unsigned char 
  6955 ;;  cntr            1   37[BANK0 ] unsigned char 
  6956 ;;  exp             1   33[BANK0 ] unsigned char 
  6957 ;; Return value:  Size  Location     Type
  6958 ;;                  3   23[BANK0 ] float 
  6959 ;; Registers used:
  6960 ;;		wreg, status,2, status,0, pclath, cstack
  6961 ;; Tracked objects:
  6962 ;;		On entry : 0/0
  6963 ;;		On exit  : 0/0
  6964 ;;		Unchanged: 0/0
  6965 ;; Data sizes:     COMMON   BANK0   BANK1   BANK3   BANK2
  6966 ;;      Params:         0       6       0       0       0
  6967 ;;      Locals:         0       6       0       0       0
  6968 ;;      Temps:          0       4       0       0       0
  6969 ;;      Totals:         0      16       0       0       0
  6970 ;;Total ram usage:       16 bytes
  6971 ;; Hardware stack levels used:    1
  6972 ;; Hardware stack levels required when called:    1
  6973 ;; This function calls:
  6974 ;;		___ftpack
  6975 ;; This function is called by:
  6976 ;;		_Velocity_PID
  6977 ;; This function uses a non-reentrant model
  6978 ;;
  6979                           psect	text1051
  6980                           	file	"C:\Program Files (x86)\HI-TECH Software\PICC\9.82\sources\ftmul.c"
  6981                           	line	52
  6982                           	global	__size_of___ftmul
  6983  00EE                     	__size_of___ftmul	equ	__end_of___ftmul-___ftmul
  6984                           	
  6985  062B                     ___ftmul:	
  6986                           	opt	stack 1
  6987                           ; Regs used in ___ftmul: [wreg+status,2+status,0+pclath+cstack]
  6988                           	line	56
  6989                           	
  6990  062B                     i1l12890:	
  6991  062B  1283               	bcf	status, 5	;RP0=0, select bank0
  6992  062C  1303               	bcf	status, 6	;RP1=0, select bank0
  6993  062D  0837               	movf	(___ftmul@f1),w
  6994  062E  00BD               	movwf	((??___ftmul+0)+0)
  6995  062F  0838               	movf	(___ftmul@f1+1),w
  6996  0630  00BE               	movwf	((??___ftmul+0)+0+1)
  6997  0631  0839               	movf	(___ftmul@f1+2),w
  6998  0632  00BF               	movwf	((??___ftmul+0)+0+2)
  6999  0633  1003               	clrc
  7000  0634  0D3E               	rlf	(??___ftmul+0)+1,w
  7001  0635  0D3F               	rlf	(??___ftmul+0)+2,w
  7002  0636  00C0               	movwf	(??___ftmul+3)+0
  7003  0637  0840               	movf	(??___ftmul+3)+0,w
  7004  0638  00C1               	movwf	(___ftmul@exp)
  7005  0639  08C1               	movf	((___ftmul@exp)),f
  7006  063A  1D03               	skipz
  7007  063B  2E3D               	goto	u468_21
  7008  063C  2E3E               	goto	u468_20
  7009  063D                     u468_21:
  7010  063D  2E46               	goto	i1l12896
  7011  063E                     u468_20:
  7012                           	line	57
  7013                           	
  7014  063E                     i1l12892:	
  7015  063E  3000               	movlw	0x0
  7016  063F  00B7               	movwf	(?___ftmul)
  7017  0640  3000               	movlw	0x0
  7018  0641  00B8               	movwf	(?___ftmul+1)
  7019  0642  3000               	movlw	0x0
  7020  0643  00B9               	movwf	(?___ftmul+2)
  7021  0644  2F18               	goto	i1l10039
  7022                           	
  7023  0645                     i1l12894:	
  7024  0645  2F18               	goto	i1l10039
  7025                           	
  7026  0646                     i1l10038:	
  7027                           	line	58
  7028                           	
  7029  0646                     i1l12896:	
  7030  0646  083A               	movf	(___ftmul@f2),w
  7031  0647  00BD               	movwf	((??___ftmul+0)+0)
  7032  0648  083B               	movf	(___ftmul@f2+1),w
  7033  0649  00BE               	movwf	((??___ftmul+0)+0+1)
  7034  064A  083C               	movf	(___ftmul@f2+2),w
  7035  064B  00BF               	movwf	((??___ftmul+0)+0+2)
  7036  064C  1003               	clrc
  7037  064D  0D3E               	rlf	(??___ftmul+0)+1,w
  7038  064E  0D3F               	rlf	(??___ftmul+0)+2,w
  7039  064F  00C0               	movwf	(??___ftmul+3)+0
  7040  0650  0840               	movf	(??___ftmul+3)+0,w
  7041  0651  00C6               	movwf	(___ftmul@sign)
  7042  0652  08C6               	movf	((___ftmul@sign)),f
  7043  0653  1D03               	skipz
  7044  0654  2E56               	goto	u469_21
  7045  0655  2E57               	goto	u469_20
  7046  0656                     u469_21:
  7047  0656  2E5F               	goto	i1l12902
  7048  0657                     u469_20:
  7049                           	line	59
  7050                           	
  7051  0657                     i1l12898:	
  7052  0657  3000               	movlw	0x0
  7053  0658  00B7               	movwf	(?___ftmul)
  7054  0659  3000               	movlw	0x0
  7055  065A  00B8               	movwf	(?___ftmul+1)
  7056  065B  3000               	movlw	0x0
  7057  065C  00B9               	movwf	(?___ftmul+2)
  7058  065D  2F18               	goto	i1l10039
  7059                           	
  7060  065E                     i1l12900:	
  7061  065E  2F18               	goto	i1l10039
  7062                           	
  7063  065F                     i1l10040:	
  7064                           	line	60
  7065                           	
  7066  065F                     i1l12902:	
  7067  065F  0846               	movf	(___ftmul@sign),w
  7068  0660  3E7B               	addlw	07Bh
  7069  0661  00BD               	movwf	(??___ftmul+0)+0
  7070  0662  083D               	movf	(??___ftmul+0)+0,w
  7071  0663  07C1               	addwf	(___ftmul@exp),f
  7072                           	line	61
  7073  0664  0837               	movf	(___ftmul@f1),w
  7074  0665  00BD               	movwf	((??___ftmul+0)+0)
  7075  0666  0838               	movf	(___ftmul@f1+1),w
  7076  0667  00BE               	movwf	((??___ftmul+0)+0+1)
  7077  0668  0839               	movf	(___ftmul@f1+2),w
  7078  0669  00BF               	movwf	((??___ftmul+0)+0+2)
  7079  066A  3010               	movlw	010h
  7080  066B                     u470_25:
  7081  066B  1003               	clrc
  7082  066C  0CBF               	rrf	(??___ftmul+0)+2,f
  7083  066D  0CBE               	rrf	(??___ftmul+0)+1,f
  7084  066E  0CBD               	rrf	(??___ftmul+0)+0,f
  7085  066F                     u470_20:
  7086  066F  3EFF               	addlw	-1
  7087  0670  1D03               	skipz
  7088  0671  2E6B               	goto	u470_25
  7089  0672  083D               	movf	0+(??___ftmul+0)+0,w
  7090  0673  00C0               	movwf	(??___ftmul+3)+0
  7091  0674  0840               	movf	(??___ftmul+3)+0,w
  7092  0675  00C6               	movwf	(___ftmul@sign)
  7093                           	line	62
  7094  0676  083A               	movf	(___ftmul@f2),w
  7095  0677  00BD               	movwf	((??___ftmul+0)+0)
  7096  0678  083B               	movf	(___ftmul@f2+1),w
  7097  0679  00BE               	movwf	((??___ftmul+0)+0+1)
  7098  067A  083C               	movf	(___ftmul@f2+2),w
  7099  067B  00BF               	movwf	((??___ftmul+0)+0+2)
  7100  067C  3010               	movlw	010h
  7101  067D                     u471_25:
  7102  067D  1003               	clrc
  7103  067E  0CBF               	rrf	(??___ftmul+0)+2,f
  7104  067F  0CBE               	rrf	(??___ftmul+0)+1,f
  7105  0680  0CBD               	rrf	(??___ftmul+0)+0,f
  7106  0681                     u471_20:
  7107  0681  3EFF               	addlw	-1
  7108  0682  1D03               	skipz
  7109  0683  2E7D               	goto	u471_25
  7110  0684  083D               	movf	0+(??___ftmul+0)+0,w
  7111  0685  00C0               	movwf	(??___ftmul+3)+0
  7112  0686  0840               	movf	(??___ftmul+3)+0,w
  7113  0687  06C6               	xorwf	(___ftmul@sign),f
  7114                           	line	63
  7115  0688  3080               	movlw	(080h)
  7116  0689  00BD               	movwf	(??___ftmul+0)+0
  7117  068A  083D               	movf	(??___ftmul+0)+0,w
  7118  068B  05C6               	andwf	(___ftmul@sign),f
  7119                           	line	64
  7120                           	
  7121  068C                     i1l12904:	
  7122  068C  17B8               	bsf	(___ftmul@f1)+(15/8),(15)&7
  7123                           	line	66
  7124                           	
  7125  068D                     i1l12906:	
  7126  068D  17BB               	bsf	(___ftmul@f2)+(15/8),(15)&7
  7127                           	line	67
  7128                           	
  7129  068E                     i1l12908:	
  7130  068E  30FF               	movlw	0FFh
  7131  068F  05BA               	andwf	(___ftmul@f2),f
  7132  0690  30FF               	movlw	0FFh
  7133  0691  05BB               	andwf	(___ftmul@f2+1),f
  7134  0692  3000               	movlw	0
  7135  0693  05BC               	andwf	(___ftmul@f2+2),f
  7136                           	line	68
  7137                           	
  7138  0694                     i1l12910:	
  7139  0694  3000               	movlw	0
  7140  0695  00C2               	movwf	(___ftmul@f3_as_product)
  7141  0696  3000               	movlw	0
  7142  0697  00C3               	movwf	(___ftmul@f3_as_product+1)
  7143  0698  3000               	movlw	0
  7144  0699  00C4               	movwf	(___ftmul@f3_as_product+2)
  7145                           	line	69
  7146                           	
  7147  069A                     i1l12912:	
  7148  069A  3007               	movlw	(07h)
  7149  069B  00BD               	movwf	(??___ftmul+0)+0
  7150  069C  083D               	movf	(??___ftmul+0)+0,w
  7151  069D  00C5               	movwf	(___ftmul@cntr)
  7152  069E  2E9F               	goto	i1l12914
  7153                           	line	70
  7154                           	
  7155  069F                     i1l10041:	
  7156                           	line	71
  7157                           	
  7158  069F                     i1l12914:	
  7159  069F  1C37               	btfss	(___ftmul@f1),(0)&7
  7160  06A0  2EA2               	goto	u472_21
  7161  06A1  2EA3               	goto	u472_20
  7162  06A2                     u472_21:
  7163  06A2  2EB4               	goto	i1l12918
  7164  06A3                     u472_20:
  7165                           	line	72
  7166                           	
  7167  06A3                     i1l12916:	
  7168  06A3  083A               	movf	(___ftmul@f2),w
  7169  06A4  07C2               	addwf	(___ftmul@f3_as_product),f
  7170  06A5  083B               	movf	(___ftmul@f2+1),w
  7171  06A6  1103               	clrz
  7172  06A7  1803               	skipnc
  7173  06A8  0A3B               	incf	(___ftmul@f2+1),w
  7174  06A9  1903               	skipnz
  7175  06AA  2EAC               	goto	u473_21
  7176  06AB  07C3               	addwf	(___ftmul@f3_as_product+1),f
  7177  06AC                     u473_21:
  7178  06AC  083C               	movf	(___ftmul@f2+2),w
  7179  06AD  1103               	clrz
  7180  06AE  1803               	skipnc
  7181  06AF  0A3C               	incf	(___ftmul@f2+2),w
  7182  06B0  1903               	skipnz
  7183  06B1  2EB3               	goto	u473_22
  7184  06B2  07C4               	addwf	(___ftmul@f3_as_product+2),f
  7185  06B3                     u473_22:
  7186                           
  7187  06B3  2EB4               	goto	i1l12918
  7188                           	
  7189  06B4                     i1l10042:	
  7190                           	line	73
  7191                           	
  7192  06B4                     i1l12918:	
  7193  06B4  3001               	movlw	01h
  7194  06B5                     u474_25:
  7195  06B5  1003               	clrc
  7196  06B6  0CB9               	rrf	(___ftmul@f1+2),f
  7197  06B7  0CB8               	rrf	(___ftmul@f1+1),f
  7198  06B8  0CB7               	rrf	(___ftmul@f1),f
  7199  06B9  3EFF               	addlw	-1
  7200  06BA  1D03               	skipz
  7201  06BB  2EB5               	goto	u474_25
  7202                           
  7203                           	line	74
  7204                           	
  7205  06BC                     i1l12920:	
  7206  06BC  3001               	movlw	01h
  7207  06BD                     u475_25:
  7208  06BD  1003               	clrc
  7209  06BE  0DBA               	rlf	(___ftmul@f2),f
  7210  06BF  0DBB               	rlf	(___ftmul@f2+1),f
  7211  06C0  0DBC               	rlf	(___ftmul@f2+2),f
  7212  06C1  3EFF               	addlw	-1
  7213  06C2  1D03               	skipz
  7214  06C3  2EBD               	goto	u475_25
  7215                           	line	75
  7216                           	
  7217  06C4                     i1l12922:	
  7218  06C4  3001               	movlw	low(01h)
  7219  06C5  02C5               	subwf	(___ftmul@cntr),f
  7220  06C6  1D03               	btfss	status,2
  7221  06C7  2EC9               	goto	u476_21
  7222  06C8  2ECA               	goto	u476_20
  7223  06C9                     u476_21:
  7224  06C9  2E9F               	goto	i1l12914
  7225  06CA                     u476_20:
  7226  06CA  2ECB               	goto	i1l12924
  7227                           	
  7228  06CB                     i1l10043:	
  7229                           	line	76
  7230                           	
  7231  06CB                     i1l12924:	
  7232  06CB  3009               	movlw	(09h)
  7233  06CC  00BD               	movwf	(??___ftmul+0)+0
  7234  06CD  083D               	movf	(??___ftmul+0)+0,w
  7235  06CE  00C5               	movwf	(___ftmul@cntr)
  7236  06CF  2ED0               	goto	i1l12926
  7237                           	line	77
  7238                           	
  7239  06D0                     i1l10044:	
  7240                           	line	78
  7241                           	
  7242  06D0                     i1l12926:	
  7243  06D0  1C37               	btfss	(___ftmul@f1),(0)&7
  7244  06D1  2ED3               	goto	u477_21
  7245  06D2  2ED4               	goto	u477_20
  7246  06D3                     u477_21:
  7247  06D3  2EE5               	goto	i1l12930
  7248  06D4                     u477_20:
  7249                           	line	79
  7250                           	
  7251  06D4                     i1l12928:	
  7252  06D4  083A               	movf	(___ftmul@f2),w
  7253  06D5  07C2               	addwf	(___ftmul@f3_as_product),f
  7254  06D6  083B               	movf	(___ftmul@f2+1),w
  7255  06D7  1103               	clrz
  7256  06D8  1803               	skipnc
  7257  06D9  0A3B               	incf	(___ftmul@f2+1),w
  7258  06DA  1903               	skipnz
  7259  06DB  2EDD               	goto	u478_21
  7260  06DC  07C3               	addwf	(___ftmul@f3_as_product+1),f
  7261  06DD                     u478_21:
  7262  06DD  083C               	movf	(___ftmul@f2+2),w
  7263  06DE  1103               	clrz
  7264  06DF  1803               	skipnc
  7265  06E0  0A3C               	incf	(___ftmul@f2+2),w
  7266  06E1  1903               	skipnz
  7267  06E2  2EE4               	goto	u478_22
  7268  06E3  07C4               	addwf	(___ftmul@f3_as_product+2),f
  7269  06E4                     u478_22:
  7270                           
  7271  06E4  2EE5               	goto	i1l12930
  7272                           	
  7273  06E5                     i1l10045:	
  7274                           	line	80
  7275                           	
  7276  06E5                     i1l12930:	
  7277  06E5  3001               	movlw	01h
  7278  06E6                     u479_25:
  7279  06E6  1003               	clrc
  7280  06E7  0CB9               	rrf	(___ftmul@f1+2),f
  7281  06E8  0CB8               	rrf	(___ftmul@f1+1),f
  7282  06E9  0CB7               	rrf	(___ftmul@f1),f
  7283  06EA  3EFF               	addlw	-1
  7284  06EB  1D03               	skipz
  7285  06EC  2EE6               	goto	u479_25
  7286                           
  7287                           	line	81
  7288                           	
  7289  06ED                     i1l12932:	
  7290  06ED  3001               	movlw	01h
  7291  06EE                     u480_25:
  7292  06EE  1003               	clrc
  7293  06EF  0CC4               	rrf	(___ftmul@f3_as_product+2),f
  7294  06F0  0CC3               	rrf	(___ftmul@f3_as_product+1),f
  7295  06F1  0CC2               	rrf	(___ftmul@f3_as_product),f
  7296  06F2  3EFF               	addlw	-1
  7297  06F3  1D03               	skipz
  7298  06F4  2EEE               	goto	u480_25
  7299                           
  7300                           	line	82
  7301                           	
  7302  06F5                     i1l12934:	
  7303  06F5  3001               	movlw	low(01h)
  7304  06F6  02C5               	subwf	(___ftmul@cntr),f
  7305  06F7  1D03               	btfss	status,2
  7306  06F8  2EFA               	goto	u481_21
  7307  06F9  2EFB               	goto	u481_20
  7308  06FA                     u481_21:
  7309  06FA  2ED0               	goto	i1l12926
  7310  06FB                     u481_20:
  7311  06FB  2EFC               	goto	i1l12936
  7312                           	
  7313  06FC                     i1l10046:	
  7314                           	line	83
  7315                           	
  7316  06FC                     i1l12936:	
  7317  06FC  0842               	movf	(___ftmul@f3_as_product),w
  7318  06FD  00F0               	movwf	(?___ftpack)
  7319  06FE  0843               	movf	(___ftmul@f3_as_product+1),w
  7320  06FF  00F1               	movwf	(?___ftpack+1)
  7321  0700  0844               	movf	(___ftmul@f3_as_product+2),w
  7322  0701  00F2               	movwf	(?___ftpack+2)
  7323  0702  0841               	movf	(___ftmul@exp),w
  7324  0703  00BD               	movwf	(??___ftmul+0)+0
  7325  0704  083D               	movf	(??___ftmul+0)+0,w
  7326  0705  00F3               	movwf	0+(?___ftpack)+03h
  7327  0706  0846               	movf	(___ftmul@sign),w
  7328  0707  00BE               	movwf	(??___ftmul+1)+0
  7329  0708  083E               	movf	(??___ftmul+1)+0,w
  7330  0709  00F4               	movwf	0+(?___ftpack)+04h
  7331  070A  120A  158A  264D   	fcall	___ftpack
              120A  118A         
  7332  070F  0870               	movf	(0+(?___ftpack)),w
  7333  0710  1283               	bcf	status, 5	;RP0=0, select bank0
  7334  0711  1303               	bcf	status, 6	;RP1=0, select bank0
  7335  0712  00B7               	movwf	(?___ftmul)
  7336  0713  0871               	movf	(1+(?___ftpack)),w
  7337  0714  00B8               	movwf	(?___ftmul+1)
  7338  0715  0872               	movf	(2+(?___ftpack)),w
  7339  0716  00B9               	movwf	(?___ftmul+2)
  7340  0717  2F18               	goto	i1l10039
  7341                           	
  7342  0718                     i1l12938:	
  7343                           	line	84
  7344                           	
  7345  0718                     i1l10039:	
  7346  0718  0008               	return
  7347                           	opt stack 0
  7348                           GLOBAL	__end_of___ftmul
  7349  0719                     	__end_of___ftmul:
  7350 ;; =============== function ___ftmul ends ============
  7351                           
  7352                           	signat	___ftmul,8315
  7353                           	global	___ftadd
  7354                           psect	text1052,local,class=CODE,delta=2
  7355                           global __ptext1052
  7356  02A9                     __ptext1052:
  7357                           
  7358 ;; *************** function ___ftadd *****************
  7359 ;; Defined at:
  7360 ;;		line 87 in file "C:\Program Files (x86)\HI-TECH Software\PICC\9.82\sources\ftadd.c"
  7361 ;; Parameters:    Size  Location     Type
  7362 ;;  f1              3   10[BANK0 ] float 
  7363 ;;  f2              3   13[BANK0 ] float 
  7364 ;; Auto vars:     Size  Location     Type
  7365 ;;  exp1            1   22[BANK0 ] unsigned char 
  7366 ;;  exp2            1   21[BANK0 ] unsigned char 
  7367 ;;  sign            1   20[BANK0 ] unsigned char 
  7368 ;; Return value:  Size  Location     Type
  7369 ;;                  3   10[BANK0 ] float 
  7370 ;; Registers used:
  7371 ;;		wreg, status,2, status,0, pclath, cstack
  7372 ;; Tracked objects:
  7373 ;;		On entry : 0/0
  7374 ;;		On exit  : 0/0
  7375 ;;		Unchanged: 0/0
  7376 ;; Data sizes:     COMMON   BANK0   BANK1   BANK3   BANK2
  7377 ;;      Params:         0       6       0       0       0
  7378 ;;      Locals:         0       3       0       0       0
  7379 ;;      Temps:          0       4       0       0       0
  7380 ;;      Totals:         0      13       0       0       0
  7381 ;;Total ram usage:       13 bytes
  7382 ;; Hardware stack levels used:    1
  7383 ;; Hardware stack levels required when called:    1
  7384 ;; This function calls:
  7385 ;;		___ftpack
  7386 ;; This function is called by:
  7387 ;;		_Velocity_PID
  7388 ;;		___ftsub
  7389 ;; This function uses a non-reentrant model
  7390 ;;
  7391                           psect	text1052
  7392                           	file	"C:\Program Files (x86)\HI-TECH Software\PICC\9.82\sources\ftadd.c"
  7393                           	line	87
  7394                           	global	__size_of___ftadd
  7395  0146                     	__size_of___ftadd	equ	__end_of___ftadd-___ftadd
  7396                           	
  7397  02A9                     ___ftadd:	
  7398                           	opt	stack 1
  7399                           ; Regs used in ___ftadd: [wreg+status,2+status,0+pclath+cstack]
  7400                           	line	90
  7401                           	
  7402  02A9                     i1l12732:	
  7403  02A9  1283               	bcf	status, 5	;RP0=0, select bank0
  7404  02AA  1303               	bcf	status, 6	;RP1=0, select bank0
  7405  02AB  082A               	movf	(___ftadd@f1),w
  7406  02AC  00B0               	movwf	((??___ftadd+0)+0)
  7407  02AD  082B               	movf	(___ftadd@f1+1),w
  7408  02AE  00B1               	movwf	((??___ftadd+0)+0+1)
  7409  02AF  082C               	movf	(___ftadd@f1+2),w
  7410  02B0  00B2               	movwf	((??___ftadd+0)+0+2)
  7411  02B1  1003               	clrc
  7412  02B2  0D31               	rlf	(??___ftadd+0)+1,w
  7413  02B3  0D32               	rlf	(??___ftadd+0)+2,w
  7414  02B4  00B3               	movwf	(??___ftadd+3)+0
  7415  02B5  0833               	movf	(??___ftadd+3)+0,w
  7416  02B6  00B6               	movwf	(___ftadd@exp1)
  7417                           	line	91
  7418  02B7  082D               	movf	(___ftadd@f2),w
  7419  02B8  00B0               	movwf	((??___ftadd+0)+0)
  7420  02B9  082E               	movf	(___ftadd@f2+1),w
  7421  02BA  00B1               	movwf	((??___ftadd+0)+0+1)
  7422  02BB  082F               	movf	(___ftadd@f2+2),w
  7423  02BC  00B2               	movwf	((??___ftadd+0)+0+2)
  7424  02BD  1003               	clrc
  7425  02BE  0D31               	rlf	(??___ftadd+0)+1,w
  7426  02BF  0D32               	rlf	(??___ftadd+0)+2,w
  7427  02C0  00B3               	movwf	(??___ftadd+3)+0
  7428  02C1  0833               	movf	(??___ftadd+3)+0,w
  7429  02C2  00B5               	movwf	(___ftadd@exp2)
  7430                           	line	92
  7431                           	
  7432  02C3                     i1l12734:	
  7433  02C3  0836               	movf	(___ftadd@exp1),w
  7434  02C4  1D03               	skipz
  7435  02C5  2AC7               	goto	u420_20
  7436  02C6  2AD8               	goto	i1l12740
  7437  02C7                     u420_20:
  7438                           	
  7439  02C7                     i1l12736:	
  7440  02C7  0835               	movf	(___ftadd@exp2),w
  7441  02C8  0236               	subwf	(___ftadd@exp1),w
  7442  02C9  1803               	skipnc
  7443  02CA  2ACC               	goto	u421_21
  7444  02CB  2ACD               	goto	u421_20
  7445  02CC                     u421_21:
  7446  02CC  2AE0               	goto	i1l12744
  7447  02CD                     u421_20:
  7448                           	
  7449  02CD                     i1l12738:	
  7450  02CD  0336               	decf	(___ftadd@exp1),w
  7451  02CE  3AFF               	xorlw	0ffh
  7452  02CF  0735               	addwf	(___ftadd@exp2),w
  7453  02D0  00B0               	movwf	(??___ftadd+0)+0
  7454  02D1  3019               	movlw	(019h)
  7455  02D2  0230               	subwf	0+(??___ftadd+0)+0,w
  7456  02D3  1C03               	skipc
  7457  02D4  2AD6               	goto	u422_21
  7458  02D5  2AD7               	goto	u422_20
  7459  02D6                     u422_21:
  7460  02D6  2AE0               	goto	i1l12744
  7461  02D7                     u422_20:
  7462  02D7  2AD8               	goto	i1l12740
  7463                           	
  7464  02D8                     i1l9986:	
  7465                           	line	93
  7466                           	
  7467  02D8                     i1l12740:	
  7468  02D8  082D               	movf	(___ftadd@f2),w
  7469  02D9  00AA               	movwf	(?___ftadd)
  7470  02DA  082E               	movf	(___ftadd@f2+1),w
  7471  02DB  00AB               	movwf	(?___ftadd+1)
  7472  02DC  082F               	movf	(___ftadd@f2+2),w
  7473  02DD  00AC               	movwf	(?___ftadd+2)
  7474  02DE  2BEE               	goto	i1l9987
  7475                           	
  7476  02DF                     i1l12742:	
  7477  02DF  2BEE               	goto	i1l9987
  7478                           	
  7479  02E0                     i1l9984:	
  7480                           	line	94
  7481                           	
  7482  02E0                     i1l12744:	
  7483  02E0  0835               	movf	(___ftadd@exp2),w
  7484  02E1  1D03               	skipz
  7485  02E2  2AE4               	goto	u423_20
  7486  02E3  2AF4               	goto	i1l9990
  7487  02E4                     u423_20:
  7488                           	
  7489  02E4                     i1l12746:	
  7490  02E4  0836               	movf	(___ftadd@exp1),w
  7491  02E5  0235               	subwf	(___ftadd@exp2),w
  7492  02E6  1803               	skipnc
  7493  02E7  2AE9               	goto	u424_21
  7494  02E8  2AEA               	goto	u424_20
  7495  02E9                     u424_21:
  7496  02E9  2AF5               	goto	i1l12750
  7497  02EA                     u424_20:
  7498                           	
  7499  02EA                     i1l12748:	
  7500  02EA  0335               	decf	(___ftadd@exp2),w
  7501  02EB  3AFF               	xorlw	0ffh
  7502  02EC  0736               	addwf	(___ftadd@exp1),w
  7503  02ED  00B0               	movwf	(??___ftadd+0)+0
  7504  02EE  3019               	movlw	(019h)
  7505  02EF  0230               	subwf	0+(??___ftadd+0)+0,w
  7506  02F0  1C03               	skipc
  7507  02F1  2AF3               	goto	u425_21
  7508  02F2  2AF4               	goto	u425_20
  7509  02F3                     u425_21:
  7510  02F3  2AF5               	goto	i1l12750
  7511  02F4                     u425_20:
  7512                           	
  7513  02F4                     i1l9990:	
  7514                           	line	95
  7515  02F4  2BEE               	goto	i1l9987
  7516                           	
  7517  02F5                     i1l9988:	
  7518                           	line	96
  7519                           	
  7520  02F5                     i1l12750:	
  7521  02F5  3006               	movlw	(06h)
  7522  02F6  00B0               	movwf	(??___ftadd+0)+0
  7523  02F7  0830               	movf	(??___ftadd+0)+0,w
  7524  02F8  00B4               	movwf	(___ftadd@sign)
  7525                           	line	97
  7526                           	
  7527  02F9                     i1l12752:	
  7528  02F9  1FAC               	btfss	(___ftadd@f1+2),(23)&7
  7529  02FA  2AFC               	goto	u426_21
  7530  02FB  2AFD               	goto	u426_20
  7531  02FC                     u426_21:
  7532  02FC  2AFE               	goto	i1l9991
  7533  02FD                     u426_20:
  7534                           	line	98
  7535                           	
  7536  02FD                     i1l12754:	
  7537  02FD  17B4               	bsf	(___ftadd@sign)+(7/8),(7)&7
  7538                           	
  7539  02FE                     i1l9991:	
  7540                           	line	99
  7541  02FE  1FAF               	btfss	(___ftadd@f2+2),(23)&7
  7542  02FF  2B01               	goto	u427_21
  7543  0300  2B02               	goto	u427_20
  7544  0301                     u427_21:
  7545  0301  2B03               	goto	i1l9992
  7546  0302                     u427_20:
  7547                           	line	100
  7548                           	
  7549  0302                     i1l12756:	
  7550  0302  1734               	bsf	(___ftadd@sign)+(6/8),(6)&7
  7551                           	
  7552  0303                     i1l9992:	
  7553                           	line	101
  7554  0303  17AB               	bsf	(___ftadd@f1)+(15/8),(15)&7
  7555                           	line	102
  7556                           	
  7557  0304                     i1l12758:	
  7558  0304  30FF               	movlw	0FFh
  7559  0305  05AA               	andwf	(___ftadd@f1),f
  7560  0306  30FF               	movlw	0FFh
  7561  0307  05AB               	andwf	(___ftadd@f1+1),f
  7562  0308  3000               	movlw	0
  7563  0309  05AC               	andwf	(___ftadd@f1+2),f
  7564                           	line	103
  7565                           	
  7566  030A                     i1l12760:	
  7567  030A  17AE               	bsf	(___ftadd@f2)+(15/8),(15)&7
  7568                           	line	104
  7569  030B  30FF               	movlw	0FFh
  7570  030C  05AD               	andwf	(___ftadd@f2),f
  7571  030D  30FF               	movlw	0FFh
  7572  030E  05AE               	andwf	(___ftadd@f2+1),f
  7573  030F  3000               	movlw	0
  7574  0310  05AF               	andwf	(___ftadd@f2+2),f
  7575                           	line	106
  7576  0311  0835               	movf	(___ftadd@exp2),w
  7577  0312  0236               	subwf	(___ftadd@exp1),w
  7578  0313  1803               	skipnc
  7579  0314  2B16               	goto	u428_21
  7580  0315  2B17               	goto	u428_20
  7581  0316                     u428_21:
  7582  0316  2B48               	goto	i1l12772
  7583  0317                     u428_20:
  7584  0317  2B18               	goto	i1l12762
  7585                           	line	109
  7586                           	
  7587  0318                     i1l9994:	
  7588                           	line	110
  7589                           	
  7590  0318                     i1l12762:	
  7591  0318  3001               	movlw	01h
  7592  0319                     u429_25:
  7593  0319  1003               	clrc
  7594  031A  0DAD               	rlf	(___ftadd@f2),f
  7595  031B  0DAE               	rlf	(___ftadd@f2+1),f
  7596  031C  0DAF               	rlf	(___ftadd@f2+2),f
  7597  031D  3EFF               	addlw	-1
  7598  031E  1D03               	skipz
  7599  031F  2B19               	goto	u429_25
  7600                           	line	111
  7601  0320  3001               	movlw	low(01h)
  7602  0321  02B5               	subwf	(___ftadd@exp2),f
  7603                           	line	112
  7604                           	
  7605  0322                     i1l12764:	
  7606  0322  0835               	movf	(___ftadd@exp2),w
  7607  0323  0636               	xorwf	(___ftadd@exp1),w
  7608  0324  1903               	skipnz
  7609  0325  2B27               	goto	u430_21
  7610  0326  2B28               	goto	u430_20
  7611  0327                     u430_21:
  7612  0327  2B40               	goto	i1l12770
  7613  0328                     u430_20:
  7614                           	
  7615  0328                     i1l12766:	
  7616  0328  3001               	movlw	low(01h)
  7617  0329  02B4               	subwf	(___ftadd@sign),f
  7618  032A  0834               	movf	((___ftadd@sign)),w
  7619  032B  3907               	andlw	07h
  7620  032C  1D03               	btfss	status,2
  7621  032D  2B2F               	goto	u431_21
  7622  032E  2B30               	goto	u431_20
  7623  032F                     u431_21:
  7624  032F  2B18               	goto	i1l12762
  7625  0330                     u431_20:
  7626  0330  2B40               	goto	i1l12770
  7627                           	
  7628  0331                     i1l9996:	
  7629  0331  2B40               	goto	i1l12770
  7630                           	
  7631  0332                     i1l9997:	
  7632                           	line	113
  7633  0332  2B40               	goto	i1l12770
  7634                           	
  7635  0333                     i1l9999:	
  7636                           	line	114
  7637                           	
  7638  0333                     i1l12768:	
  7639  0333  3001               	movlw	01h
  7640  0334                     u432_25:
  7641  0334  1003               	clrc
  7642  0335  0CAC               	rrf	(___ftadd@f1+2),f
  7643  0336  0CAB               	rrf	(___ftadd@f1+1),f
  7644  0337  0CAA               	rrf	(___ftadd@f1),f
  7645  0338  3EFF               	addlw	-1
  7646  0339  1D03               	skipz
  7647  033A  2B34               	goto	u432_25
  7648                           
  7649                           	line	115
  7650  033B  3001               	movlw	(01h)
  7651  033C  00B0               	movwf	(??___ftadd+0)+0
  7652  033D  0830               	movf	(??___ftadd+0)+0,w
  7653  033E  07B6               	addwf	(___ftadd@exp1),f
  7654  033F  2B40               	goto	i1l12770
  7655                           	line	116
  7656                           	
  7657  0340                     i1l9998:	
  7658                           	line	113
  7659                           	
  7660  0340                     i1l12770:	
  7661  0340  0836               	movf	(___ftadd@exp1),w
  7662  0341  0635               	xorwf	(___ftadd@exp2),w
  7663  0342  1D03               	skipz
  7664  0343  2B45               	goto	u433_21
  7665  0344  2B46               	goto	u433_20
  7666  0345                     u433_21:
  7667  0345  2B33               	goto	i1l12768
  7668  0346                     u433_20:
  7669  0346  2B7F               	goto	i1l10001
  7670                           	
  7671  0347                     i1l10000:	
  7672                           	line	117
  7673  0347  2B7F               	goto	i1l10001
  7674                           	
  7675  0348                     i1l9993:	
  7676                           	
  7677  0348                     i1l12772:	
  7678  0348  0836               	movf	(___ftadd@exp1),w
  7679  0349  0235               	subwf	(___ftadd@exp2),w
  7680  034A  1803               	skipnc
  7681  034B  2B4D               	goto	u434_21
  7682  034C  2B4E               	goto	u434_20
  7683  034D                     u434_21:
  7684  034D  2B7F               	goto	i1l10001
  7685  034E                     u434_20:
  7686  034E  2B4F               	goto	i1l12774
  7687                           	line	120
  7688                           	
  7689  034F                     i1l10003:	
  7690                           	line	121
  7691                           	
  7692  034F                     i1l12774:	
  7693  034F  3001               	movlw	01h
  7694  0350                     u435_25:
  7695  0350  1003               	clrc
  7696  0351  0DAA               	rlf	(___ftadd@f1),f
  7697  0352  0DAB               	rlf	(___ftadd@f1+1),f
  7698  0353  0DAC               	rlf	(___ftadd@f1+2),f
  7699  0354  3EFF               	addlw	-1
  7700  0355  1D03               	skipz
  7701  0356  2B50               	goto	u435_25
  7702                           	line	122
  7703  0357  3001               	movlw	low(01h)
  7704  0358  02B6               	subwf	(___ftadd@exp1),f
  7705                           	line	123
  7706                           	
  7707  0359                     i1l12776:	
  7708  0359  0835               	movf	(___ftadd@exp2),w
  7709  035A  0636               	xorwf	(___ftadd@exp1),w
  7710  035B  1903               	skipnz
  7711  035C  2B5E               	goto	u436_21
  7712  035D  2B5F               	goto	u436_20
  7713  035E                     u436_21:
  7714  035E  2B77               	goto	i1l12782
  7715  035F                     u436_20:
  7716                           	
  7717  035F                     i1l12778:	
  7718  035F  3001               	movlw	low(01h)
  7719  0360  02B4               	subwf	(___ftadd@sign),f
  7720  0361  0834               	movf	((___ftadd@sign)),w
  7721  0362  3907               	andlw	07h
  7722  0363  1D03               	btfss	status,2
  7723  0364  2B66               	goto	u437_21
  7724  0365  2B67               	goto	u437_20
  7725  0366                     u437_21:
  7726  0366  2B4F               	goto	i1l12774
  7727  0367                     u437_20:
  7728  0367  2B77               	goto	i1l12782
  7729                           	
  7730  0368                     i1l10005:	
  7731  0368  2B77               	goto	i1l12782
  7732                           	
  7733  0369                     i1l10006:	
  7734                           	line	124
  7735  0369  2B77               	goto	i1l12782
  7736                           	
  7737  036A                     i1l10008:	
  7738                           	line	125
  7739                           	
  7740  036A                     i1l12780:	
  7741  036A  3001               	movlw	01h
  7742  036B                     u438_25:
  7743  036B  1003               	clrc
  7744  036C  0CAF               	rrf	(___ftadd@f2+2),f
  7745  036D  0CAE               	rrf	(___ftadd@f2+1),f
  7746  036E  0CAD               	rrf	(___ftadd@f2),f
  7747  036F  3EFF               	addlw	-1
  7748  0370  1D03               	skipz
  7749  0371  2B6B               	goto	u438_25
  7750                           
  7751                           	line	126
  7752  0372  3001               	movlw	(01h)
  7753  0373  00B0               	movwf	(??___ftadd+0)+0
  7754  0374  0830               	movf	(??___ftadd+0)+0,w
  7755  0375  07B5               	addwf	(___ftadd@exp2),f
  7756  0376  2B77               	goto	i1l12782
  7757                           	line	127
  7758                           	
  7759  0377                     i1l10007:	
  7760                           	line	124
  7761                           	
  7762  0377                     i1l12782:	
  7763  0377  0836               	movf	(___ftadd@exp1),w
  7764  0378  0635               	xorwf	(___ftadd@exp2),w
  7765  0379  1D03               	skipz
  7766  037A  2B7C               	goto	u439_21
  7767  037B  2B7D               	goto	u439_20
  7768  037C                     u439_21:
  7769  037C  2B6A               	goto	i1l12780
  7770  037D                     u439_20:
  7771  037D  2B7F               	goto	i1l10001
  7772                           	
  7773  037E                     i1l10009:	
  7774  037E  2B7F               	goto	i1l10001
  7775                           	line	128
  7776                           	
  7777  037F                     i1l10002:	
  7778                           	line	129
  7779                           	
  7780  037F                     i1l10001:	
  7781  037F  1FB4               	btfss	(___ftadd@sign),(7)&7
  7782  0380  2B82               	goto	u440_21
  7783  0381  2B83               	goto	u440_20
  7784  0382                     u440_21:
  7785  0382  2B94               	goto	i1l12786
  7786  0383                     u440_20:
  7787                           	line	131
  7788                           	
  7789  0383                     i1l12784:	
  7790  0383  30FF               	movlw	0FFh
  7791  0384  06AA               	xorwf	(___ftadd@f1),f
  7792  0385  30FF               	movlw	0FFh
  7793  0386  06AB               	xorwf	(___ftadd@f1+1),f
  7794  0387  30FF               	movlw	0FFh
  7795  0388  06AC               	xorwf	(___ftadd@f1+2),f
  7796                           	line	132
  7797  0389  3001               	movlw	01h
  7798  038A  07AA               	addwf	(___ftadd@f1),f
  7799  038B  3000               	movlw	0
  7800  038C  1803               	skipnc
  7801  038D  3001               movlw 1
  7802  038E  07AB               	addwf	(___ftadd@f1+1),f
  7803  038F  3000               	movlw	0
  7804  0390  1803               	skipnc
  7805  0391  3001               movlw 1
  7806  0392  07AC               	addwf	(___ftadd@f1+2),f
  7807  0393  2B94               	goto	i1l12786
  7808                           	line	133
  7809                           	
  7810  0394                     i1l10010:	
  7811                           	line	134
  7812                           	
  7813  0394                     i1l12786:	
  7814  0394  1F34               	btfss	(___ftadd@sign),(6)&7
  7815  0395  2B97               	goto	u441_21
  7816  0396  2B98               	goto	u441_20
  7817  0397                     u441_21:
  7818  0397  2BA9               	goto	i1l12790
  7819  0398                     u441_20:
  7820                           	line	136
  7821                           	
  7822  0398                     i1l12788:	
  7823  0398  30FF               	movlw	0FFh
  7824  0399  06AD               	xorwf	(___ftadd@f2),f
  7825  039A  30FF               	movlw	0FFh
  7826  039B  06AE               	xorwf	(___ftadd@f2+1),f
  7827  039C  30FF               	movlw	0FFh
  7828  039D  06AF               	xorwf	(___ftadd@f2+2),f
  7829                           	line	137
  7830  039E  3001               	movlw	01h
  7831  039F  07AD               	addwf	(___ftadd@f2),f
  7832  03A0  3000               	movlw	0
  7833  03A1  1803               	skipnc
  7834  03A2  3001               movlw 1
  7835  03A3  07AE               	addwf	(___ftadd@f2+1),f
  7836  03A4  3000               	movlw	0
  7837  03A5  1803               	skipnc
  7838  03A6  3001               movlw 1
  7839  03A7  07AF               	addwf	(___ftadd@f2+2),f
  7840  03A8  2BA9               	goto	i1l12790
  7841                           	line	138
  7842                           	
  7843  03A9                     i1l10011:	
  7844                           	line	139
  7845                           	
  7846  03A9                     i1l12790:	
  7847  03A9  01B4               	clrf	(___ftadd@sign)
  7848                           	line	140
  7849  03AA  082A               	movf	(___ftadd@f1),w
  7850  03AB  07AD               	addwf	(___ftadd@f2),f
  7851  03AC  082B               	movf	(___ftadd@f1+1),w
  7852  03AD  1103               	clrz
  7853  03AE  1803               	skipnc
  7854  03AF  0A2B               	incf	(___ftadd@f1+1),w
  7855  03B0  1903               	skipnz
  7856  03B1  2BB3               	goto	u442_21
  7857  03B2  07AE               	addwf	(___ftadd@f2+1),f
  7858  03B3                     u442_21:
  7859  03B3  082C               	movf	(___ftadd@f1+2),w
  7860  03B4  1103               	clrz
  7861  03B5  1803               	skipnc
  7862  03B6  0A2C               	incf	(___ftadd@f1+2),w
  7863  03B7  1903               	skipnz
  7864  03B8  2BBA               	goto	u442_22
  7865  03B9  07AF               	addwf	(___ftadd@f2+2),f
  7866  03BA                     u442_22:
  7867                           
  7868                           	line	141
  7869                           	
  7870  03BA                     i1l12792:	
  7871  03BA  1FAF               	btfss	(___ftadd@f2+2),(23)&7
  7872  03BB  2BBD               	goto	u443_21
  7873  03BC  2BBE               	goto	u443_20
  7874  03BD                     u443_21:
  7875  03BD  2BD2               	goto	i1l12798
  7876  03BE                     u443_20:
  7877                           	line	142
  7878                           	
  7879  03BE                     i1l12794:	
  7880  03BE  30FF               	movlw	0FFh
  7881  03BF  06AD               	xorwf	(___ftadd@f2),f
  7882  03C0  30FF               	movlw	0FFh
  7883  03C1  06AE               	xorwf	(___ftadd@f2+1),f
  7884  03C2  30FF               	movlw	0FFh
  7885  03C3  06AF               	xorwf	(___ftadd@f2+2),f
  7886                           	line	143
  7887  03C4  3001               	movlw	01h
  7888  03C5  07AD               	addwf	(___ftadd@f2),f
  7889  03C6  3000               	movlw	0
  7890  03C7  1803               	skipnc
  7891  03C8  3001               movlw 1
  7892  03C9  07AE               	addwf	(___ftadd@f2+1),f
  7893  03CA  3000               	movlw	0
  7894  03CB  1803               	skipnc
  7895  03CC  3001               movlw 1
  7896  03CD  07AF               	addwf	(___ftadd@f2+2),f
  7897                           	line	144
  7898                           	
  7899  03CE                     i1l12796:	
  7900  03CE  01B4               	clrf	(___ftadd@sign)
  7901  03CF  1403               	bsf	status,0
  7902  03D0  0DB4               	rlf	(___ftadd@sign),f
  7903  03D1  2BD2               	goto	i1l12798
  7904                           	line	145
  7905                           	
  7906  03D2                     i1l10012:	
  7907                           	line	146
  7908                           	
  7909  03D2                     i1l12798:	
  7910  03D2  082D               	movf	(___ftadd@f2),w
  7911  03D3  00F0               	movwf	(?___ftpack)
  7912  03D4  082E               	movf	(___ftadd@f2+1),w
  7913  03D5  00F1               	movwf	(?___ftpack+1)
  7914  03D6  082F               	movf	(___ftadd@f2+2),w
  7915  03D7  00F2               	movwf	(?___ftpack+2)
  7916  03D8  0836               	movf	(___ftadd@exp1),w
  7917  03D9  00B0               	movwf	(??___ftadd+0)+0
  7918  03DA  0830               	movf	(??___ftadd+0)+0,w
  7919  03DB  00F3               	movwf	0+(?___ftpack)+03h
  7920  03DC  0834               	movf	(___ftadd@sign),w
  7921  03DD  00B1               	movwf	(??___ftadd+1)+0
  7922  03DE  0831               	movf	(??___ftadd+1)+0,w
  7923  03DF  00F4               	movwf	0+(?___ftpack)+04h
  7924  03E0  120A  158A  264D   	fcall	___ftpack
              120A  118A         
  7925  03E5  0870               	movf	(0+(?___ftpack)),w
  7926  03E6  1283               	bcf	status, 5	;RP0=0, select bank0
  7927  03E7  1303               	bcf	status, 6	;RP1=0, select bank0
  7928  03E8  00AA               	movwf	(?___ftadd)
  7929  03E9  0871               	movf	(1+(?___ftpack)),w
  7930  03EA  00AB               	movwf	(?___ftadd+1)
  7931  03EB  0872               	movf	(2+(?___ftpack)),w
  7932  03EC  00AC               	movwf	(?___ftadd+2)
  7933  03ED  2BEE               	goto	i1l9987
  7934                           	
  7935  03EE                     i1l12800:	
  7936                           	line	148
  7937                           	
  7938  03EE                     i1l9987:	
  7939  03EE  0008               	return
  7940                           	opt stack 0
  7941                           GLOBAL	__end_of___ftadd
  7942  03EF                     	__end_of___ftadd:
  7943 ;; =============== function ___ftadd ends ============
  7944                           
  7945                           	signat	___ftadd,8315
  7946                           	global	_I2C_Delay
  7947                           psect	text1053,local,class=CODE,delta=2
  7948                           global __ptext1053
  7949  0A9B                     __ptext1053:
  7950                           
  7951 ;; *************** function _I2C_Delay *****************
  7952 ;; Defined at:
  7953 ;;		line 10 in file "D:\6_pic_project\00_Design_Flow_Car\Driver\iic.c"
  7954 ;; Parameters:    Size  Location     Type
  7955 ;;  n               1    wreg     unsigned char 
  7956 ;; Auto vars:     Size  Location     Type
  7957 ;;  n               1    0[COMMON] unsigned char 
  7958 ;; Return value:  Size  Location     Type
  7959 ;;		None               void
  7960 ;; Registers used:
  7961 ;;		wreg, status,2, status,0
  7962 ;; Tracked objects:
  7963 ;;		On entry : 0/0
  7964 ;;		On exit  : 0/0
  7965 ;;		Unchanged: 0/0
  7966 ;; Data sizes:     COMMON   BANK0   BANK1   BANK3   BANK2
  7967 ;;      Params:         0       0       0       0       0
  7968 ;;      Locals:         1       0       0       0       0
  7969 ;;      Temps:          0       0       0       0       0
  7970 ;;      Totals:         1       0       0       0       0
  7971 ;;Total ram usage:        1 bytes
  7972 ;; Hardware stack levels used:    1
  7973 ;; This function calls:
  7974 ;;		Nothing
  7975 ;; This function is called by:
  7976 ;;		_I2CStart
  7977 ;;		_I2CStop
  7978 ;;		_I2CSendByte
  7979 ;;		_I2CWaitAck
  7980 ;;		_I2CReceiveByte
  7981 ;;		_I2CSendAck
  7982 ;;		_IIC_WriteReg_Str
  7983 ;; This function uses a non-reentrant model
  7984 ;;
  7985                           psect	text1053
  7986                           	file	"D:\6_pic_project\00_Design_Flow_Car\Driver\iic.c"
  7987                           	line	10
  7988                           	global	__size_of_I2C_Delay
  7989  001A                     	__size_of_I2C_Delay	equ	__end_of_I2C_Delay-_I2C_Delay
  7990                           	
  7991  0A9B                     _I2C_Delay:	
  7992                           	opt	stack 1
  7993                           ; Regs used in _I2C_Delay: [wreg+status,2+status,0]
  7994                           ;I2C_Delay@n stored from wreg
  7995                           	line	13
  7996  0A9B  00F0               	movwf	(I2C_Delay@n)
  7997                           	line	11
  7998                           ;iic.c: 11: do
  7999                           	
  8000  0A9C                     i1l2949:	
  8001                           	line	13
  8002                           ;iic.c: 12: {
  8003                           ;iic.c: 13: _nop();_nop();_nop();_nop();_nop();
  8004  0A9C  0000               	nop
  8005  0A9D  0000               	nop
  8006  0A9E  0000               	nop
  8007  0A9F  0000               	nop
  8008  0AA0  0000               	nop
  8009                           	line	14
  8010                           ;iic.c: 14: _nop();_nop();_nop();_nop();_nop();
  8011  0AA1  0000               	nop
  8012  0AA2  0000               	nop
  8013  0AA3  0000               	nop
  8014  0AA4  0000               	nop
  8015  0AA5  0000               	nop
  8016                           	line	15
  8017                           ;iic.c: 15: _nop();_nop();_nop();_nop();_nop();
  8018  0AA6  0000               	nop
  8019  0AA7  0000               	nop
  8020  0AA8  0000               	nop
  8021  0AA9  0000               	nop
  8022  0AAA  0000               	nop
  8023                           	line	17
  8024                           	
  8025  0AAB                     i1l12534:	
  8026                           ;iic.c: 16: }
  8027                           ;iic.c: 17: while(n--);
  8028  0AAB  3001               	movlw	low(01h)
  8029  0AAC  02F0               	subwf	(I2C_Delay@n),f
  8030  0AAD  0870               	movf	((I2C_Delay@n)),w
  8031  0AAE  3AFF               	xorlw	0FFh
  8032  0AAF  1D03               	skipz
  8033  0AB0  2AB2               	goto	u390_21
  8034  0AB1  2AB3               	goto	u390_20
  8035  0AB2                     u390_21:
  8036  0AB2  2A9C               	goto	i1l2949
  8037  0AB3                     u390_20:
  8038  0AB3  2AB4               	goto	i1l2951
  8039                           	
  8040  0AB4                     i1l2950:	
  8041                           	line	18
  8042                           	
  8043  0AB4                     i1l2951:	
  8044  0AB4  0008               	return
  8045                           	opt stack 0
  8046                           GLOBAL	__end_of_I2C_Delay
  8047  0AB5                     	__end_of_I2C_Delay:
  8048 ;; =============== function _I2C_Delay ends ============
  8049                           
  8050                           	signat	_I2C_Delay,4216
  8051                           	global	i1_Motor_Speed_Set
  8052                           psect	text1054,local,class=CODE,delta=2
  8053                           global __ptext1054
  8054  0BDF                     __ptext1054:
  8055                           
  8056 ;; *************** function i1_Motor_Speed_Set *****************
  8057 ;; Defined at:
  8058 ;;		line 71 in file "D:\6_pic_project\00_Design_Flow_Car\User\Car_demo\Car_demo.c"
  8059 ;; Parameters:    Size  Location     Type
  8060 ;;  Motor_Speed_    2    0[COMMON] int 
  8061 ;;  Motor_Speed_    2    2[COMMON] int 
  8062 ;; Auto vars:     Size  Location     Type
  8063 ;;		None
  8064 ;; Return value:  Size  Location     Type
  8065 ;;		None               void
  8066 ;; Registers used:
  8067 ;;		wreg, status,2, status,0, btemp+1
  8068 ;; Tracked objects:
  8069 ;;		On entry : 0/0
  8070 ;;		On exit  : 0/0
  8071 ;;		Unchanged: 0/0
  8072 ;; Data sizes:     COMMON   BANK0   BANK1   BANK3   BANK2
  8073 ;;      Params:         4       0       0       0       0
  8074 ;;      Locals:         0       0       0       0       0
  8075 ;;      Temps:          0       0       0       0       0
  8076 ;;      Totals:         4       0       0       0       0
  8077 ;;Total ram usage:        4 bytes
  8078 ;; Hardware stack levels used:    1
  8079 ;; This function calls:
  8080 ;;		Nothing
  8081 ;; This function is called by:
  8082 ;;		_Service
  8083 ;; This function uses a non-reentrant model
  8084 ;;
  8085                           psect	text1054
  8086                           	file	"D:\6_pic_project\00_Design_Flow_Car\User\Car_demo\Car_demo.c"
  8087                           	line	71
  8088                           	global	__size_ofi1_Motor_Speed_Set
  8089  0039                     	__size_ofi1_Motor_Speed_Set	equ	__end_ofi1_Motor_Speed_Set-i1_Motor_Speed_Set
  8090                           	
  8091  0BDF                     i1_Motor_Speed_Set:	
  8092                           	opt	stack 3
  8093                           ; Regs used in i1_Motor_Speed_Set: [wreg+status,2+status,0+btemp+1]
  8094                           	line	72
  8095                           	
  8096  0BDF                     i1l13134:	
  8097                           ;Car_demo.c: 72: if(Speed1 > 0 )
  8098  0BDF  0871               	movf	(i1Motor_Speed_Set@Speed1+1),w
  8099  0BE0  3A80               	xorlw	80h
  8100  0BE1  00FF               	movwf	btemp+1
  8101  0BE2  3080               	movlw	(high(01h))^80h
  8102  0BE3  027F               	subwf	btemp+1,w
  8103  0BE4  1D03               	skipz
  8104  0BE5  2BE8               	goto	u520_25
  8105  0BE6  3001               	movlw	low(01h)
  8106  0BE7  0270               	subwf	(i1Motor_Speed_Set@Speed1),w
  8107  0BE8                     u520_25:
  8108                           
  8109  0BE8  1C03               	skipc
  8110  0BE9  2BEB               	goto	u520_21
  8111  0BEA  2BEC               	goto	u520_20
  8112  0BEB                     u520_21:
  8113  0BEB  2BF3               	goto	i1l749
  8114  0BEC                     u520_20:
  8115                           	line	74
  8116                           	
  8117  0BEC                     i1l13136:	
  8118                           ;Car_demo.c: 73: {
  8119                           ;Car_demo.c: 74: RB4 = 1;
  8120  0BEC  1283               	bcf	status, 5	;RP0=0, select bank0
  8121  0BED  1303               	bcf	status, 6	;RP1=0, select bank0
  8122  0BEE  1606               	bsf	(52/8),(52)&7
  8123                           	line	75
  8124                           ;Car_demo.c: 75: RB5 = 0;
  8125  0BEF  1286               	bcf	(53/8),(53)&7
  8126                           	line	76
  8127                           	
  8128  0BF0                     i1l13138:	
  8129                           ;Car_demo.c: 76: CCPR1L=(unsigned char)Speed1;
  8130  0BF0  0870               	movf	(i1Motor_Speed_Set@Speed1),w
  8131  0BF1  0095               	movwf	(21)	;volatile
  8132                           	line	77
  8133                           ;Car_demo.c: 77: }
  8134  0BF2  2BFB               	goto	i1l13142
  8135                           	line	78
  8136                           	
  8137  0BF3                     i1l749:	
  8138                           	line	80
  8139                           ;Car_demo.c: 78: else
  8140                           ;Car_demo.c: 79: {
  8141                           ;Car_demo.c: 80: RB4 = 0;
  8142  0BF3  1283               	bcf	status, 5	;RP0=0, select bank0
  8143  0BF4  1303               	bcf	status, 6	;RP1=0, select bank0
  8144  0BF5  1206               	bcf	(52/8),(52)&7
  8145                           	line	81
  8146                           ;Car_demo.c: 81: RB5 = 1;
  8147  0BF6  1686               	bsf	(53/8),(53)&7
  8148                           	line	82
  8149                           	
  8150  0BF7                     i1l13140:	
  8151                           ;Car_demo.c: 82: CCPR1L=(unsigned char)(-Speed1);
  8152  0BF7  0370               	decf	(i1Motor_Speed_Set@Speed1),w
  8153  0BF8  3AFF               	xorlw	0ffh
  8154  0BF9  0095               	movwf	(21)	;volatile
  8155  0BFA  2BFB               	goto	i1l13142
  8156                           	line	83
  8157                           	
  8158  0BFB                     i1l750:	
  8159                           	line	85
  8160                           	
  8161  0BFB                     i1l13142:	
  8162                           ;Car_demo.c: 83: }
  8163                           ;Car_demo.c: 85: if(Speed2 >0 )
  8164  0BFB  0873               	movf	(i1Motor_Speed_Set@Speed2+1),w
  8165  0BFC  3A80               	xorlw	80h
  8166  0BFD  00FF               	movwf	btemp+1
  8167  0BFE  3080               	movlw	(high(01h))^80h
  8168  0BFF  027F               	subwf	btemp+1,w
  8169  0C00  1D03               	skipz
  8170  0C01  2C04               	goto	u521_25
  8171  0C02  3001               	movlw	low(01h)
  8172  0C03  0272               	subwf	(i1Motor_Speed_Set@Speed2),w
  8173  0C04                     u521_25:
  8174                           
  8175  0C04  1C03               	skipc
  8176  0C05  2C07               	goto	u521_21
  8177  0C06  2C08               	goto	u521_20
  8178  0C07                     u521_21:
  8179  0C07  2C0F               	goto	i1l751
  8180  0C08                     u521_20:
  8181                           	line	87
  8182                           	
  8183  0C08                     i1l13144:	
  8184                           ;Car_demo.c: 86: {
  8185                           ;Car_demo.c: 87: RB6 = 1;
  8186  0C08  1283               	bcf	status, 5	;RP0=0, select bank0
  8187  0C09  1303               	bcf	status, 6	;RP1=0, select bank0
  8188  0C0A  1706               	bsf	(54/8),(54)&7
  8189                           	line	88
  8190                           ;Car_demo.c: 88: RB7 = 0;
  8191  0C0B  1386               	bcf	(55/8),(55)&7
  8192                           	line	89
  8193                           	
  8194  0C0C                     i1l13146:	
  8195                           ;Car_demo.c: 89: CCPR2L=(unsigned char)Speed2;
  8196  0C0C  0872               	movf	(i1Motor_Speed_Set@Speed2),w
  8197  0C0D  009B               	movwf	(27)	;volatile
  8198                           	line	90
  8199                           ;Car_demo.c: 90: }
  8200  0C0E  2C17               	goto	i1l753
  8201                           	line	91
  8202                           	
  8203  0C0F                     i1l751:	
  8204                           	line	93
  8205                           ;Car_demo.c: 91: else
  8206                           ;Car_demo.c: 92: {
  8207                           ;Car_demo.c: 93: RB6 = 0;
  8208  0C0F  1283               	bcf	status, 5	;RP0=0, select bank0
  8209  0C10  1303               	bcf	status, 6	;RP1=0, select bank0
  8210  0C11  1306               	bcf	(54/8),(54)&7
  8211                           	line	94
  8212                           ;Car_demo.c: 94: RB7 = 1;
  8213  0C12  1786               	bsf	(55/8),(55)&7
  8214                           	line	95
  8215                           	
  8216  0C13                     i1l13148:	
  8217                           ;Car_demo.c: 95: CCPR2L=(unsigned char)(-Speed2);
  8218  0C13  0372               	decf	(i1Motor_Speed_Set@Speed2),w
  8219  0C14  3AFF               	xorlw	0ffh
  8220  0C15  009B               	movwf	(27)	;volatile
  8221  0C16  2C17               	goto	i1l753
  8222                           	line	96
  8223                           	
  8224  0C17                     i1l752:	
  8225                           	line	97
  8226                           	
  8227  0C17                     i1l753:	
  8228  0C17  0008               	return
  8229                           	opt stack 0
  8230                           GLOBAL	__end_ofi1_Motor_Speed_Set
  8231  0C18                     	__end_ofi1_Motor_Speed_Set:
  8232 ;; =============== function i1_Motor_Speed_Set ends ============
  8233                           
  8234                           	signat	i1_Motor_Speed_Set,88
  8235                           	global	___ftneg
  8236                           psect	text1055,local,class=CODE,delta=2
  8237                           global __ptext1055
  8238  09D0                     __ptext1055:
  8239                           
  8240 ;; *************** function ___ftneg *****************
  8241 ;; Defined at:
  8242 ;;		line 16 in file "C:\Program Files (x86)\HI-TECH Software\PICC\9.82\sources\ftneg.c"
  8243 ;; Parameters:    Size  Location     Type
  8244 ;;  f1              3    0[COMMON] float 
  8245 ;; Auto vars:     Size  Location     Type
  8246 ;;		None
  8247 ;; Return value:  Size  Location     Type
  8248 ;;                  3    0[COMMON] float 
  8249 ;; Registers used:
  8250 ;;		wreg
  8251 ;; Tracked objects:
  8252 ;;		On entry : 0/0
  8253 ;;		On exit  : 0/0
  8254 ;;		Unchanged: 0/0
  8255 ;; Data sizes:     COMMON   BANK0   BANK1   BANK3   BANK2
  8256 ;;      Params:         3       0       0       0       0
  8257 ;;      Locals:         0       0       0       0       0
  8258 ;;      Temps:          0       0       0       0       0
  8259 ;;      Totals:         3       0       0       0       0
  8260 ;;Total ram usage:        3 bytes
  8261 ;; Hardware stack levels used:    1
  8262 ;; This function calls:
  8263 ;;		Nothing
  8264 ;; This function is called by:
  8265 ;;		_Velocity_PID
  8266 ;; This function uses a non-reentrant model
  8267 ;;
  8268                           psect	text1055
  8269                           	file	"C:\Program Files (x86)\HI-TECH Software\PICC\9.82\sources\ftneg.c"
  8270                           	line	16
  8271                           	global	__size_of___ftneg
  8272  000C                     	__size_of___ftneg	equ	__end_of___ftneg-___ftneg
  8273                           	
  8274  09D0                     ___ftneg:	
  8275                           	opt	stack 2
  8276                           ; Regs used in ___ftneg: [wreg]
  8277                           	line	17
  8278                           	
  8279  09D0                     i1l13004:	
  8280  09D0  0872               	movf	(___ftneg@f1+2),w
  8281  09D1  0471               	iorwf	(___ftneg@f1+1),w
  8282  09D2  0470               	iorwf	(___ftneg@f1),w
  8283  09D3  1903               	skipnz
  8284  09D4  29D6               	goto	u494_21
  8285  09D5  29D7               	goto	u494_20
  8286  09D6                     u494_21:
  8287  09D6  29DA               	goto	i1l13008
  8288  09D7                     u494_20:
  8289                           	line	18
  8290                           	
  8291  09D7                     i1l13006:	
  8292  09D7  3080               	movlw	080h
  8293  09D8  06F2               	xorwf	(___ftneg@f1+2),f
  8294  09D9  29DA               	goto	i1l13008
  8295                           	
  8296  09DA                     i1l10103:	
  8297                           	line	19
  8298                           	
  8299  09DA                     i1l13008:	
  8300  09DA  29DB               	goto	i1l10104
  8301                           	
  8302  09DB                     i1l13010:	
  8303                           	line	20
  8304                           	
  8305  09DB                     i1l10104:	
  8306  09DB  0008               	return
  8307                           	opt stack 0
  8308                           GLOBAL	__end_of___ftneg
  8309  09DC                     	__end_of___ftneg:
  8310 ;; =============== function ___ftneg ends ============
  8311                           
  8312                           	signat	___ftneg,4219
  8313                           	global	___fttol
  8314                           psect	text1056,local,class=CODE,delta=2
  8315                           global __ptext1056
  8316  0F5A                     __ptext1056:
  8317                           
  8318 ;; *************** function ___fttol *****************
  8319 ;; Defined at:
  8320 ;;		line 45 in file "C:\Program Files (x86)\HI-TECH Software\PICC\9.82\sources\fttol.c"
  8321 ;; Parameters:    Size  Location     Type
  8322 ;;  f1              3    8[COMMON] float 
  8323 ;; Auto vars:     Size  Location     Type
  8324 ;;  lval            4    5[BANK0 ] unsigned long 
  8325 ;;  exp1            1    9[BANK0 ] unsigned char 
  8326 ;;  sign1           1    4[BANK0 ] unsigned char 
  8327 ;; Return value:  Size  Location     Type
  8328 ;;                  4    8[COMMON] long 
  8329 ;; Registers used:
  8330 ;;		wreg, status,2, status,0
  8331 ;; Tracked objects:
  8332 ;;		On entry : 0/0
  8333 ;;		On exit  : 0/0
  8334 ;;		Unchanged: 0/0
  8335 ;; Data sizes:     COMMON   BANK0   BANK1   BANK3   BANK2
  8336 ;;      Params:         4       0       0       0       0
  8337 ;;      Locals:         0       6       0       0       0
  8338 ;;      Temps:          0       4       0       0       0
  8339 ;;      Totals:         4      10       0       0       0
  8340 ;;Total ram usage:       14 bytes
  8341 ;; Hardware stack levels used:    1
  8342 ;; This function calls:
  8343 ;;		Nothing
  8344 ;; This function is called by:
  8345 ;;		_Velocity_PID
  8346 ;; This function uses a non-reentrant model
  8347 ;;
  8348                           psect	text1056
  8349                           	file	"C:\Program Files (x86)\HI-TECH Software\PICC\9.82\sources\fttol.c"
  8350                           	line	45
  8351                           	global	__size_of___fttol
  8352  00A6                     	__size_of___fttol	equ	__end_of___fttol-___fttol
  8353                           	
  8354  0F5A                     ___fttol:	
  8355                           	opt	stack 2
  8356                           ; Regs used in ___fttol: [wreg+status,2+status,0]
  8357                           	line	49
  8358                           	
  8359  0F5A                     i1l12940:	
  8360  0F5A  0878               	movf	(___fttol@f1),w
  8361  0F5B  1283               	bcf	status, 5	;RP0=0, select bank0
  8362  0F5C  1303               	bcf	status, 6	;RP1=0, select bank0
  8363  0F5D  00A0               	movwf	((??___fttol+0)+0)
  8364  0F5E  0879               	movf	(___fttol@f1+1),w
  8365  0F5F  00A1               	movwf	((??___fttol+0)+0+1)
  8366  0F60  087A               	movf	(___fttol@f1+2),w
  8367  0F61  00A2               	movwf	((??___fttol+0)+0+2)
  8368  0F62  1003               	clrc
  8369  0F63  0D21               	rlf	(??___fttol+0)+1,w
  8370  0F64  0D22               	rlf	(??___fttol+0)+2,w
  8371  0F65  00A3               	movwf	(??___fttol+3)+0
  8372  0F66  0823               	movf	(??___fttol+3)+0,w
  8373  0F67  00A9               	movwf	(___fttol@exp1)
  8374  0F68  08A9               	movf	((___fttol@exp1)),f
  8375  0F69  1D03               	skipz
  8376  0F6A  2F6C               	goto	u482_21
  8377  0F6B  2F6D               	goto	u482_20
  8378  0F6C                     u482_21:
  8379  0F6C  2F77               	goto	i1l12946
  8380  0F6D                     u482_20:
  8381                           	line	50
  8382                           	
  8383  0F6D                     i1l12942:	
  8384  0F6D  3000               	movlw	0
  8385  0F6E  00FB               	movwf	(?___fttol+3)
  8386  0F6F  3000               	movlw	0
  8387  0F70  00FA               	movwf	(?___fttol+2)
  8388  0F71  3000               	movlw	0
  8389  0F72  00F9               	movwf	(?___fttol+1)
  8390  0F73  3000               	movlw	0
  8391  0F74  00F8               	movwf	(?___fttol)
  8392                           
  8393  0F75  2FFF               	goto	i1l10050
  8394                           	
  8395  0F76                     i1l12944:	
  8396  0F76  2FFF               	goto	i1l10050
  8397                           	
  8398  0F77                     i1l10049:	
  8399                           	line	51
  8400                           	
  8401  0F77                     i1l12946:	
  8402  0F77  0878               	movf	(___fttol@f1),w
  8403  0F78  00A0               	movwf	((??___fttol+0)+0)
  8404  0F79  0879               	movf	(___fttol@f1+1),w
  8405  0F7A  00A1               	movwf	((??___fttol+0)+0+1)
  8406  0F7B  087A               	movf	(___fttol@f1+2),w
  8407  0F7C  00A2               	movwf	((??___fttol+0)+0+2)
  8408  0F7D  3017               	movlw	017h
  8409  0F7E                     u483_25:
  8410  0F7E  1003               	clrc
  8411  0F7F  0CA2               	rrf	(??___fttol+0)+2,f
  8412  0F80  0CA1               	rrf	(??___fttol+0)+1,f
  8413  0F81  0CA0               	rrf	(??___fttol+0)+0,f
  8414  0F82                     u483_20:
  8415  0F82  3EFF               	addlw	-1
  8416  0F83  1D03               	skipz
  8417  0F84  2F7E               	goto	u483_25
  8418  0F85  0820               	movf	0+(??___fttol+0)+0,w
  8419  0F86  00A3               	movwf	(??___fttol+3)+0
  8420  0F87  0823               	movf	(??___fttol+3)+0,w
  8421  0F88  00A4               	movwf	(___fttol@sign1)
  8422                           	line	52
  8423                           	
  8424  0F89                     i1l12948:	
  8425  0F89  17F9               	bsf	(___fttol@f1)+(15/8),(15)&7
  8426                           	line	53
  8427                           	
  8428  0F8A                     i1l12950:	
  8429  0F8A  30FF               	movlw	0FFh
  8430  0F8B  05F8               	andwf	(___fttol@f1),f
  8431  0F8C  30FF               	movlw	0FFh
  8432  0F8D  05F9               	andwf	(___fttol@f1+1),f
  8433  0F8E  3000               	movlw	0
  8434  0F8F  05FA               	andwf	(___fttol@f1+2),f
  8435                           	line	54
  8436                           	
  8437  0F90                     i1l12952:	
  8438  0F90  0878               	movf	(___fttol@f1),w
  8439  0F91  00A5               	movwf	(___fttol@lval)
  8440  0F92  0879               	movf	(___fttol@f1+1),w
  8441  0F93  00A6               	movwf	((___fttol@lval))+1
  8442  0F94  087A               	movf	(___fttol@f1+2),w
  8443  0F95  00A7               	movwf	((___fttol@lval))+2
  8444  0F96  01A8               	clrf	((___fttol@lval))+3
  8445                           	line	55
  8446                           	
  8447  0F97                     i1l12954:	
  8448  0F97  308E               	movlw	low(08Eh)
  8449  0F98  02A9               	subwf	(___fttol@exp1),f
  8450                           	line	56
  8451                           	
  8452  0F99                     i1l12956:	
  8453  0F99  1FA9               	btfss	(___fttol@exp1),7
  8454  0F9A  2F9C               	goto	u484_21
  8455  0F9B  2F9D               	goto	u484_20
  8456  0F9C                     u484_21:
  8457  0F9C  2FC2               	goto	i1l12966
  8458  0F9D                     u484_20:
  8459                           	line	57
  8460                           	
  8461  0F9D                     i1l12958:	
  8462  0F9D  0829               	movf	(___fttol@exp1),w
  8463  0F9E  3A80               	xorlw	80h
  8464  0F9F  3E8F               	addlw	-((-15)^80h)
  8465  0FA0  1803               	skipnc
  8466  0FA1  2FA3               	goto	u485_21
  8467  0FA2  2FA4               	goto	u485_20
  8468  0FA3                     u485_21:
  8469  0FA3  2FAF               	goto	i1l12964
  8470  0FA4                     u485_20:
  8471                           	line	58
  8472                           	
  8473  0FA4                     i1l12960:	
  8474  0FA4  3000               	movlw	0
  8475  0FA5  00FB               	movwf	(?___fttol+3)
  8476  0FA6  3000               	movlw	0
  8477  0FA7  00FA               	movwf	(?___fttol+2)
  8478  0FA8  3000               	movlw	0
  8479  0FA9  00F9               	movwf	(?___fttol+1)
  8480  0FAA  3000               	movlw	0
  8481  0FAB  00F8               	movwf	(?___fttol)
  8482                           
  8483  0FAC  2FFF               	goto	i1l10050
  8484                           	
  8485  0FAD                     i1l12962:	
  8486  0FAD  2FFF               	goto	i1l10050
  8487                           	
  8488  0FAE                     i1l10052:	
  8489  0FAE  2FAF               	goto	i1l12964
  8490                           	line	59
  8491                           	
  8492  0FAF                     i1l10053:	
  8493                           	line	60
  8494                           	
  8495  0FAF                     i1l12964:	
  8496  0FAF  3001               	movlw	01h
  8497  0FB0                     u486_25:
  8498  0FB0  1003               	clrc
  8499  0FB1  0CA8               	rrf	(___fttol@lval+3),f
  8500  0FB2  0CA7               	rrf	(___fttol@lval+2),f
  8501  0FB3  0CA6               	rrf	(___fttol@lval+1),f
  8502  0FB4  0CA5               	rrf	(___fttol@lval),f
  8503  0FB5  3EFF               	addlw	-1
  8504  0FB6  1D03               	skipz
  8505  0FB7  2FB0               	goto	u486_25
  8506                           
  8507                           	line	61
  8508  0FB8  3001               	movlw	(01h)
  8509  0FB9  00A0               	movwf	(??___fttol+0)+0
  8510  0FBA  0820               	movf	(??___fttol+0)+0,w
  8511  0FBB  07A9               	addwf	(___fttol@exp1),f
  8512  0FBC  1D03               	btfss	status,2
  8513  0FBD  2FBF               	goto	u487_21
  8514  0FBE  2FC0               	goto	u487_20
  8515  0FBF                     u487_21:
  8516  0FBF  2FAF               	goto	i1l12964
  8517  0FC0                     u487_20:
  8518  0FC0  2FE6               	goto	i1l12976
  8519                           	
  8520  0FC1                     i1l10054:	
  8521                           	line	62
  8522  0FC1  2FE6               	goto	i1l12976
  8523                           	
  8524  0FC2                     i1l10051:	
  8525                           	line	63
  8526                           	
  8527  0FC2                     i1l12966:	
  8528  0FC2  3018               	movlw	(018h)
  8529  0FC3  0229               	subwf	(___fttol@exp1),w
  8530  0FC4  1C03               	skipc
  8531  0FC5  2FC7               	goto	u488_21
  8532  0FC6  2FC8               	goto	u488_20
  8533  0FC7                     u488_21:
  8534  0FC7  2FDF               	goto	i1l12974
  8535  0FC8                     u488_20:
  8536                           	line	64
  8537                           	
  8538  0FC8                     i1l12968:	
  8539  0FC8  3000               	movlw	0
  8540  0FC9  00FB               	movwf	(?___fttol+3)
  8541  0FCA  3000               	movlw	0
  8542  0FCB  00FA               	movwf	(?___fttol+2)
  8543  0FCC  3000               	movlw	0
  8544  0FCD  00F9               	movwf	(?___fttol+1)
  8545  0FCE  3000               	movlw	0
  8546  0FCF  00F8               	movwf	(?___fttol)
  8547                           
  8548  0FD0  2FFF               	goto	i1l10050
  8549                           	
  8550  0FD1                     i1l12970:	
  8551  0FD1  2FFF               	goto	i1l10050
  8552                           	
  8553  0FD2                     i1l10056:	
  8554                           	line	65
  8555  0FD2  2FDF               	goto	i1l12974
  8556                           	
  8557  0FD3                     i1l10058:	
  8558                           	line	66
  8559                           	
  8560  0FD3                     i1l12972:	
  8561  0FD3  3001               	movlw	01h
  8562  0FD4  00A0               	movwf	(??___fttol+0)+0
  8563  0FD5                     u489_25:
  8564  0FD5  1003               	clrc
  8565  0FD6  0DA5               	rlf	(___fttol@lval),f
  8566  0FD7  0DA6               	rlf	(___fttol@lval+1),f
  8567  0FD8  0DA7               	rlf	(___fttol@lval+2),f
  8568  0FD9  0DA8               	rlf	(___fttol@lval+3),f
  8569  0FDA  0BA0               	decfsz	(??___fttol+0)+0
  8570  0FDB  2FD5               	goto	u489_25
  8571                           	line	67
  8572  0FDC  3001               	movlw	low(01h)
  8573  0FDD  02A9               	subwf	(___fttol@exp1),f
  8574  0FDE  2FDF               	goto	i1l12974
  8575                           	line	68
  8576                           	
  8577  0FDF                     i1l10057:	
  8578                           	line	65
  8579                           	
  8580  0FDF                     i1l12974:	
  8581  0FDF  08A9               	movf	(___fttol@exp1),f
  8582  0FE0  1D03               	skipz
  8583  0FE1  2FE3               	goto	u490_21
  8584  0FE2  2FE4               	goto	u490_20
  8585  0FE3                     u490_21:
  8586  0FE3  2FD3               	goto	i1l12972
  8587  0FE4                     u490_20:
  8588  0FE4  2FE6               	goto	i1l12976
  8589                           	
  8590  0FE5                     i1l10059:	
  8591  0FE5  2FE6               	goto	i1l12976
  8592                           	line	69
  8593                           	
  8594  0FE6                     i1l10055:	
  8595                           	line	70
  8596                           	
  8597  0FE6                     i1l12976:	
  8598  0FE6  0824               	movf	(___fttol@sign1),w
  8599  0FE7  1D03               	skipz
  8600  0FE8  2FEA               	goto	u491_20
  8601  0FE9  2FF6               	goto	i1l12980
  8602  0FEA                     u491_20:
  8603                           	line	71
  8604                           	
  8605  0FEA                     i1l12978:	
  8606  0FEA  09A5               	comf	(___fttol@lval),f
  8607  0FEB  09A6               	comf	(___fttol@lval+1),f
  8608  0FEC  09A7               	comf	(___fttol@lval+2),f
  8609  0FED  09A8               	comf	(___fttol@lval+3),f
  8610  0FEE  0AA5               	incf	(___fttol@lval),f
  8611  0FEF  1903               	skipnz
  8612  0FF0  0AA6               	incf	(___fttol@lval+1),f
  8613  0FF1  1903               	skipnz
  8614  0FF2  0AA7               	incf	(___fttol@lval+2),f
  8615  0FF3  1903               	skipnz
  8616  0FF4  0AA8               	incf	(___fttol@lval+3),f
  8617  0FF5  2FF6               	goto	i1l12980
  8618                           	
  8619  0FF6                     i1l10060:	
  8620                           	line	72
  8621                           	
  8622  0FF6                     i1l12980:	
  8623  0FF6  0828               	movf	(___fttol@lval+3),w
  8624  0FF7  00FB               	movwf	(?___fttol+3)
  8625  0FF8  0827               	movf	(___fttol@lval+2),w
  8626  0FF9  00FA               	movwf	(?___fttol+2)
  8627  0FFA  0826               	movf	(___fttol@lval+1),w
  8628  0FFB  00F9               	movwf	(?___fttol+1)
  8629  0FFC  0825               	movf	(___fttol@lval),w
  8630  0FFD  00F8               	movwf	(?___fttol)
  8631                           
  8632  0FFE  2FFF               	goto	i1l10050
  8633                           	
  8634  0FFF                     i1l12982:	
  8635                           	line	73
  8636                           	
  8637  0FFF                     i1l10050:	
  8638  0FFF  0008               	return
  8639                           	opt stack 0
  8640                           GLOBAL	__end_of___fttol
  8641  1000                     	__end_of___fttol:
  8642 ;; =============== function ___fttol ends ============
  8643                           
  8644                           	signat	___fttol,4220
  8645                           	global	___ftpack
  8646                           psect	text1057,local,class=CODE,delta=2
  8647                           global __ptext1057
  8648  0E4D                     __ptext1057:
  8649                           
  8650 ;; *************** function ___ftpack *****************
  8651 ;; Defined at:
  8652 ;;		line 63 in file "C:\Program Files (x86)\HI-TECH Software\PICC\9.82\sources\float.c"
  8653 ;; Parameters:    Size  Location     Type
  8654 ;;  arg             3    0[COMMON] unsigned um
  8655 ;;  exp             1    3[COMMON] unsigned char 
  8656 ;;  sign            1    4[COMMON] unsigned char 
  8657 ;; Auto vars:     Size  Location     Type
  8658 ;;		None
  8659 ;; Return value:  Size  Location     Type
  8660 ;;                  3    0[COMMON] float 
  8661 ;; Registers used:
  8662 ;;		wreg, status,2, status,0
  8663 ;; Tracked objects:
  8664 ;;		On entry : 0/0
  8665 ;;		On exit  : 0/0
  8666 ;;		Unchanged: 0/0
  8667 ;; Data sizes:     COMMON   BANK0   BANK1   BANK3   BANK2
  8668 ;;      Params:         5       0       0       0       0
  8669 ;;      Locals:         0       0       0       0       0
  8670 ;;      Temps:          3       0       0       0       0
  8671 ;;      Totals:         8       0       0       0       0
  8672 ;;Total ram usage:        8 bytes
  8673 ;; Hardware stack levels used:    1
  8674 ;; This function calls:
  8675 ;;		Nothing
  8676 ;; This function is called by:
  8677 ;;		___ftadd
  8678 ;;		___ftmul
  8679 ;;		___awtoft
  8680 ;;		___ftdiv
  8681 ;;		___lbtoft
  8682 ;;		___abtoft
  8683 ;;		___lwtoft
  8684 ;;		___altoft
  8685 ;;		___lltoft
  8686 ;;		___attoft
  8687 ;;		___lttoft
  8688 ;; This function uses a non-reentrant model
  8689 ;;
  8690                           psect	text1057
  8691                           	file	"C:\Program Files (x86)\HI-TECH Software\PICC\9.82\sources\float.c"
  8692                           	line	63
  8693                           	global	__size_of___ftpack
  8694  007B                     	__size_of___ftpack	equ	__end_of___ftpack-___ftpack
  8695                           	
  8696  0E4D                     ___ftpack:	
  8697                           	opt	stack 1
  8698                           ; Regs used in ___ftpack: [wreg+status,2+status,0]
  8699                           	line	64
  8700                           	
  8701  0E4D                     i1l12802:	
  8702  0E4D  0873               	movf	(___ftpack@exp),w
  8703  0E4E  1D03               	skipz
  8704  0E4F  2E51               	goto	u444_20
  8705  0E50  2E59               	goto	i1l12806
  8706  0E51                     u444_20:
  8707                           	
  8708  0E51                     i1l12804:	
  8709  0E51  0872               	movf	(___ftpack@arg+2),w
  8710  0E52  0471               	iorwf	(___ftpack@arg+1),w
  8711  0E53  0470               	iorwf	(___ftpack@arg),w
  8712  0E54  1D03               	skipz
  8713  0E55  2E57               	goto	u445_21
  8714  0E56  2E58               	goto	u445_20
  8715  0E57                     u445_21:
  8716  0E57  2E6F               	goto	i1l12812
  8717  0E58                     u445_20:
  8718  0E58  2E59               	goto	i1l12806
  8719                           	
  8720  0E59                     i1l10274:	
  8721                           	line	65
  8722                           	
  8723  0E59                     i1l12806:	
  8724  0E59  3000               	movlw	0x0
  8725  0E5A  00F0               	movwf	(?___ftpack)
  8726  0E5B  3000               	movlw	0x0
  8727  0E5C  00F1               	movwf	(?___ftpack+1)
  8728  0E5D  3000               	movlw	0x0
  8729  0E5E  00F2               	movwf	(?___ftpack+2)
  8730  0E5F  2EC7               	goto	i1l10275
  8731                           	
  8732  0E60                     i1l12808:	
  8733  0E60  2EC7               	goto	i1l10275
  8734                           	
  8735  0E61                     i1l10272:	
  8736                           	line	66
  8737  0E61  2E6F               	goto	i1l12812
  8738                           	
  8739  0E62                     i1l10277:	
  8740                           	line	67
  8741                           	
  8742  0E62                     i1l12810:	
  8743  0E62  3001               	movlw	(01h)
  8744  0E63  00F5               	movwf	(??___ftpack+0)+0
  8745  0E64  0875               	movf	(??___ftpack+0)+0,w
  8746  0E65  07F3               	addwf	(___ftpack@exp),f
  8747                           	line	68
  8748  0E66  3001               	movlw	01h
  8749  0E67                     u446_25:
  8750  0E67  1003               	clrc
  8751  0E68  0CF2               	rrf	(___ftpack@arg+2),f
  8752  0E69  0CF1               	rrf	(___ftpack@arg+1),f
  8753  0E6A  0CF0               	rrf	(___ftpack@arg),f
  8754  0E6B  3EFF               	addlw	-1
  8755  0E6C  1D03               	skipz
  8756  0E6D  2E67               	goto	u446_25
  8757                           
  8758  0E6E  2E6F               	goto	i1l12812
  8759                           	line	69
  8760                           	
  8761  0E6F                     i1l10276:	
  8762                           	line	66
  8763                           	
  8764  0E6F                     i1l12812:	
  8765  0E6F  30FE               	movlw	low highword(0FE0000h)
  8766  0E70  0572               	andwf	(___ftpack@arg+2),w
  8767  0E71  1D03               	btfss	status,2
  8768  0E72  2E74               	goto	u447_21
  8769  0E73  2E75               	goto	u447_20
  8770  0E74                     u447_21:
  8771  0E74  2E62               	goto	i1l12810
  8772  0E75                     u447_20:
  8773  0E75  2E8D               	goto	i1l10279
  8774                           	
  8775  0E76                     i1l10278:	
  8776                           	line	70
  8777  0E76  2E8D               	goto	i1l10279
  8778                           	
  8779  0E77                     i1l10280:	
  8780                           	line	71
  8781                           	
  8782  0E77                     i1l12814:	
  8783  0E77  3001               	movlw	(01h)
  8784  0E78  00F5               	movwf	(??___ftpack+0)+0
  8785  0E79  0875               	movf	(??___ftpack+0)+0,w
  8786  0E7A  07F3               	addwf	(___ftpack@exp),f
  8787                           	line	72
  8788                           	
  8789  0E7B                     i1l12816:	
  8790  0E7B  3001               	movlw	01h
  8791  0E7C  07F0               	addwf	(___ftpack@arg),f
  8792  0E7D  3000               	movlw	0
  8793  0E7E  1803               	skipnc
  8794  0E7F  3001               movlw 1
  8795  0E80  07F1               	addwf	(___ftpack@arg+1),f
  8796  0E81  3000               	movlw	0
  8797  0E82  1803               	skipnc
  8798  0E83  3001               movlw 1
  8799  0E84  07F2               	addwf	(___ftpack@arg+2),f
  8800                           	line	73
  8801                           	
  8802  0E85                     i1l12818:	
  8803  0E85  3001               	movlw	01h
  8804  0E86                     u448_25:
  8805  0E86  1003               	clrc
  8806  0E87  0CF2               	rrf	(___ftpack@arg+2),f
  8807  0E88  0CF1               	rrf	(___ftpack@arg+1),f
  8808  0E89  0CF0               	rrf	(___ftpack@arg),f
  8809  0E8A  3EFF               	addlw	-1
  8810  0E8B  1D03               	skipz
  8811  0E8C  2E86               	goto	u448_25
  8812                           
  8813                           	line	74
  8814                           	
  8815  0E8D                     i1l10279:	
  8816                           	line	70
  8817  0E8D  30FF               	movlw	low highword(0FF0000h)
  8818  0E8E  0572               	andwf	(___ftpack@arg+2),w
  8819  0E8F  1D03               	btfss	status,2
  8820  0E90  2E92               	goto	u449_21
  8821  0E91  2E93               	goto	u449_20
  8822  0E92                     u449_21:
  8823  0E92  2E77               	goto	i1l12814
  8824  0E93                     u449_20:
  8825  0E93  2EA0               	goto	i1l12822
  8826                           	
  8827  0E94                     i1l10281:	
  8828                           	line	75
  8829  0E94  2EA0               	goto	i1l12822
  8830                           	
  8831  0E95                     i1l10283:	
  8832                           	line	76
  8833                           	
  8834  0E95                     i1l12820:	
  8835  0E95  3001               	movlw	low(01h)
  8836  0E96  02F3               	subwf	(___ftpack@exp),f
  8837                           	line	77
  8838  0E97  3001               	movlw	01h
  8839  0E98                     u450_25:
  8840  0E98  1003               	clrc
  8841  0E99  0DF0               	rlf	(___ftpack@arg),f
  8842  0E9A  0DF1               	rlf	(___ftpack@arg+1),f
  8843  0E9B  0DF2               	rlf	(___ftpack@arg+2),f
  8844  0E9C  3EFF               	addlw	-1
  8845  0E9D  1D03               	skipz
  8846  0E9E  2E98               	goto	u450_25
  8847  0E9F  2EA0               	goto	i1l12822
  8848                           	line	78
  8849                           	
  8850  0EA0                     i1l10282:	
  8851                           	line	75
  8852                           	
  8853  0EA0                     i1l12822:	
  8854  0EA0  1FF1               	btfss	(___ftpack@arg+1),(15)&7
  8855  0EA1  2EA3               	goto	u451_21
  8856  0EA2  2EA4               	goto	u451_20
  8857  0EA3                     u451_21:
  8858  0EA3  2E95               	goto	i1l12820
  8859  0EA4                     u451_20:
  8860                           	
  8861  0EA4                     i1l10284:	
  8862                           	line	79
  8863  0EA4  1873               	btfsc	(___ftpack@exp),(0)&7
  8864  0EA5  2EA7               	goto	u452_21
  8865  0EA6  2EA8               	goto	u452_20
  8866  0EA7                     u452_21:
  8867  0EA7  2EAE               	goto	i1l10285
  8868  0EA8                     u452_20:
  8869                           	line	80
  8870                           	
  8871  0EA8                     i1l12824:	
  8872  0EA8  30FF               	movlw	0FFh
  8873  0EA9  05F0               	andwf	(___ftpack@arg),f
  8874  0EAA  307F               	movlw	07Fh
  8875  0EAB  05F1               	andwf	(___ftpack@arg+1),f
  8876  0EAC  30FF               	movlw	0FFh
  8877  0EAD  05F2               	andwf	(___ftpack@arg+2),f
  8878                           	
  8879  0EAE                     i1l10285:	
  8880                           	line	81
  8881  0EAE  1003               	clrc
  8882  0EAF  0CF3               	rrf	(___ftpack@exp),f
  8883                           
  8884                           	line	82
  8885                           	
  8886  0EB0                     i1l12826:	
  8887  0EB0  0873               	movf	(___ftpack@exp),w
  8888  0EB1  00F5               	movwf	((??___ftpack+0)+0)
  8889  0EB2  01F6               	clrf	((??___ftpack+0)+0+1)
  8890  0EB3  01F7               	clrf	((??___ftpack+0)+0+2)
  8891  0EB4  3010               	movlw	010h
  8892  0EB5                     u453_25:
  8893  0EB5  1003               	clrc
  8894  0EB6  0DF5               	rlf	(??___ftpack+0)+0,f
  8895  0EB7  0DF6               	rlf	(??___ftpack+0)+1,f
  8896  0EB8  0DF7               	rlf	(??___ftpack+0)+2,f
  8897  0EB9                     u453_20:
  8898  0EB9  3EFF               	addlw	-1
  8899  0EBA  1D03               	skipz
  8900  0EBB  2EB5               	goto	u453_25
  8901  0EBC  0875               	movf	0+(??___ftpack+0)+0,w
  8902  0EBD  04F0               	iorwf	(___ftpack@arg),f
  8903  0EBE  0876               	movf	1+(??___ftpack+0)+0,w
  8904  0EBF  04F1               	iorwf	(___ftpack@arg+1),f
  8905  0EC0  0877               	movf	2+(??___ftpack+0)+0,w
  8906  0EC1  04F2               	iorwf	(___ftpack@arg+2),f
  8907                           	line	83
  8908                           	
  8909  0EC2                     i1l12828:	
  8910  0EC2  0874               	movf	(___ftpack@sign),w
  8911  0EC3  1D03               	skipz
  8912  0EC4  2EC6               	goto	u454_20
  8913  0EC5  2EC7               	goto	i1l10286
  8914  0EC6                     u454_20:
  8915                           	line	84
  8916                           	
  8917  0EC6                     i1l12830:	
  8918  0EC6  17F2               	bsf	(___ftpack@arg)+(23/8),(23)&7
  8919                           	
  8920  0EC7                     i1l10286:	
  8921                           	line	85
  8922                           	line	86
  8923                           	
  8924  0EC7                     i1l10275:	
  8925  0EC7  0008               	return
  8926                           	opt stack 0
  8927                           GLOBAL	__end_of___ftpack
  8928  0EC8                     	__end_of___ftpack:
  8929 ;; =============== function ___ftpack ends ============
  8930                           
  8931                           	signat	___ftpack,12411
  8932                           	global	_I_amplitude_limiting
  8933                           psect	text1058,local,class=CODE,delta=2
  8934                           global __ptext1058
  8935  0B7E                     __ptext1058:
  8936                           
  8937 ;; *************** function _I_amplitude_limiting *****************
  8938 ;; Defined at:
  8939 ;;		line 30 in file "D:\6_pic_project\00_Design_Flow_Car\Driver\pid.c"
  8940 ;; Parameters:    Size  Location     Type
  8941 ;;  number          1    wreg     unsigned char 
  8942 ;;  Error_sum       1    0[COMMON] PTR unsigned char 
  8943 ;;		 -> Velocity(24), 
  8944 ;; Auto vars:     Size  Location     Type
  8945 ;;  number          1    3[COMMON] unsigned char 
  8946 ;; Return value:  Size  Location     Type
  8947 ;;		None               void
  8948 ;; Registers used:
  8949 ;;		wreg, fsr0l, fsr0h, status,2, status,0
  8950 ;; Tracked objects:
  8951 ;;		On entry : 0/0
  8952 ;;		On exit  : 0/0
  8953 ;;		Unchanged: 0/0
  8954 ;; Data sizes:     COMMON   BANK0   BANK1   BANK3   BANK2
  8955 ;;      Params:         1       0       0       0       0
  8956 ;;      Locals:         1       0       0       0       0
  8957 ;;      Temps:          2       0       0       0       0
  8958 ;;      Totals:         4       0       0       0       0
  8959 ;;Total ram usage:        4 bytes
  8960 ;; Hardware stack levels used:    1
  8961 ;; This function calls:
  8962 ;;		Nothing
  8963 ;; This function is called by:
  8964 ;;		_Velocity_PID
  8965 ;; This function uses a non-reentrant model
  8966 ;;
  8967                           psect	text1058
  8968                           	file	"D:\6_pic_project\00_Design_Flow_Car\Driver\pid.c"
  8969                           	line	30
  8970                           	global	__size_of_I_amplitude_limiting
  8971  0030                     	__size_of_I_amplitude_limiting	equ	__end_of_I_amplitude_limiting-_I_amplitude_limiting
  8972                           	
  8973  0B7E                     _I_amplitude_limiting:	
  8974                           	opt	stack 2
  8975                           ; Regs used in _I_amplitude_limiting: [wreg-fsr0h+status,2+status,0]
  8976                           ;I_amplitude_limiting@number stored from wreg
  8977  0B7E  00F3               	movwf	(I_amplitude_limiting@number)
  8978                           	line	31
  8979                           	
  8980  0B7F                     i1l12676:	
  8981                           ;pid.c: 31: if(*Error_sum > number)
  8982  0B7F  0870               	movf	(I_amplitude_limiting@Error_sum),w
  8983  0B80  0084               	movwf	fsr0
  8984  0B81  1783               	bsf	status, 7	;select IRP bank2
  8985  0B82  0800               	movf	indf,w
  8986  0B83  0273               	subwf	(I_amplitude_limiting@number),w
  8987  0B84  1803               	skipnc
  8988  0B85  2B87               	goto	u405_21
  8989  0B86  2B88               	goto	u405_20
  8990  0B87                     u405_21:
  8991  0B87  2B8F               	goto	i1l12680
  8992  0B88                     u405_20:
  8993                           	line	33
  8994                           	
  8995  0B88                     i1l12678:	
  8996                           ;pid.c: 32: {
  8997                           ;pid.c: 33: *Error_sum = number;
  8998  0B88  0873               	movf	(I_amplitude_limiting@number),w
  8999  0B89  00F1               	movwf	(??_I_amplitude_limiting+0)+0
  9000  0B8A  0870               	movf	(I_amplitude_limiting@Error_sum),w
  9001  0B8B  0084               	movwf	fsr0
  9002  0B8C  0871               	movf	(??_I_amplitude_limiting+0)+0,w
  9003  0B8D  0080               	movwf	indf
  9004  0B8E  2B8F               	goto	i1l12680
  9005                           	line	34
  9006                           	
  9007  0B8F                     i1l9220:	
  9008                           	line	36
  9009                           	
  9010  0B8F                     i1l12680:	
  9011                           ;pid.c: 34: }
  9012                           ;pid.c: 36: if(*Error_sum <- number)
  9013  0B8F  0873               	movf	(I_amplitude_limiting@number),w
  9014  0B90  00F1               	movwf	(??_I_amplitude_limiting+0)+0
  9015  0B91  01F2               	clrf	(??_I_amplitude_limiting+0)+0+1
  9016  0B92  09F1               	comf	(??_I_amplitude_limiting+0)+0,f
  9017  0B93  09F2               	comf	(??_I_amplitude_limiting+0)+1,f
  9018  0B94  0AF1               	incf	(??_I_amplitude_limiting+0)+0,f
  9019  0B95  1903               	skipnz
  9020  0B96  0AF2               	incf	(??_I_amplitude_limiting+0)+1,f
  9021  0B97  0870               	movf	(I_amplitude_limiting@Error_sum),w
  9022  0B98  0084               	movwf	fsr0
  9023  0B99  0872               	movf	1+(??_I_amplitude_limiting+0)+0,w
  9024  0B9A  3A80               	xorlw	80h
  9025  0B9B  3C80               	sublw	080h
  9026  0B9C  1D03               	skipz
  9027  0B9D  2BA0               	goto	u406_25
  9028  0B9E  0871               	movf	0+(??_I_amplitude_limiting+0)+0,w
  9029  0B9F  0200               	subwf	indf,w
  9030  0BA0                     u406_25:
  9031                           
  9032  0BA0  1803               	skipnc
  9033  0BA1  2BA3               	goto	u406_21
  9034  0BA2  2BA4               	goto	u406_20
  9035  0BA3                     u406_21:
  9036  0BA3  2BAD               	goto	i1l9222
  9037  0BA4                     u406_20:
  9038                           	line	38
  9039                           	
  9040  0BA4                     i1l12682:	
  9041                           ;pid.c: 37: {
  9042                           ;pid.c: 38: *Error_sum = -number;
  9043  0BA4  0373               	decf	(I_amplitude_limiting@number),w
  9044  0BA5  3AFF               	xorlw	0ffh
  9045  0BA6  00F1               	movwf	(??_I_amplitude_limiting+0)+0
  9046  0BA7  0870               	movf	(I_amplitude_limiting@Error_sum),w
  9047  0BA8  0084               	movwf	fsr0
  9048  0BA9  0871               	movf	(??_I_amplitude_limiting+0)+0,w
  9049  0BAA  1783               	bsf	status, 7	;select IRP bank2
  9050  0BAB  0080               	movwf	indf
  9051  0BAC  2BAD               	goto	i1l9222
  9052                           	line	39
  9053                           	
  9054  0BAD                     i1l9221:	
  9055                           	line	40
  9056                           	
  9057  0BAD                     i1l9222:	
  9058  0BAD  0008               	return
  9059                           	opt stack 0
  9060                           GLOBAL	__end_of_I_amplitude_limiting
  9061  0BAE                     	__end_of_I_amplitude_limiting:
  9062 ;; =============== function _I_amplitude_limiting ends ============
  9063                           
  9064                           	signat	_I_amplitude_limiting,8312
  9065                           	global	_Trace_Proc
  9066                           psect	text1059,local,class=CODE,delta=2
  9067                           global __ptext1059
  9068  0B0B                     __ptext1059:
  9069                           
  9070 ;; *************** function _Trace_Proc *****************
  9071 ;; Defined at:
  9072 ;;		line 53 in file "D:\6_pic_project\00_Design_Flow_Car\User\Car_demo\Car_demo.c"
  9073 ;; Parameters:    Size  Location     Type
  9074 ;;		None
  9075 ;; Auto vars:     Size  Location     Type
  9076 ;;		None
  9077 ;; Return value:  Size  Location     Type
  9078 ;;                  2  740[COMMON] int 
  9079 ;; Registers used:
  9080 ;;		wreg
  9081 ;; Tracked objects:
  9082 ;;		On entry : 0/0
  9083 ;;		On exit  : 0/0
  9084 ;;		Unchanged: 0/0
  9085 ;; Data sizes:     COMMON   BANK0   BANK1   BANK3   BANK2
  9086 ;;      Params:         0       0       0       0       0
  9087 ;;      Locals:         0       0       0       0       0
  9088 ;;      Temps:          1       0       0       0       0
  9089 ;;      Totals:         1       0       0       0       0
  9090 ;;Total ram usage:        1 bytes
  9091 ;; Hardware stack levels used:    1
  9092 ;; This function calls:
  9093 ;;		Nothing
  9094 ;; This function is called by:
  9095 ;;		_Service
  9096 ;; This function uses a non-reentrant model
  9097 ;;
  9098                           psect	text1059
  9099                           	file	"D:\6_pic_project\00_Design_Flow_Car\User\Car_demo\Car_demo.c"
  9100                           	line	53
  9101                           	global	__size_of_Trace_Proc
  9102  0024                     	__size_of_Trace_Proc	equ	__end_of_Trace_Proc-_Trace_Proc
  9103                           	
  9104  0B0B                     _Trace_Proc:	
  9105                           	opt	stack 3
  9106                           ; Regs used in _Trace_Proc: [wreg]
  9107                           	line	55
  9108                           	
  9109  0B0B                     i1l12226:	
  9110                           ;Car_demo.c: 55: if(RE2==0 && RE1 == 0)
  9111  0B0B  1283               	bcf	status, 5	;RP0=0, select bank0
  9112  0B0C  1303               	bcf	status, 6	;RP1=0, select bank0
  9113  0B0D  1909               	btfsc	(74/8),(74)&7
  9114  0B0E  2B10               	goto	u327_21
  9115  0B0F  2B11               	goto	u327_20
  9116  0B10                     u327_21:
  9117  0B10  2B1A               	goto	i1l741
  9118  0B11                     u327_20:
  9119                           	
  9120  0B11                     i1l12228:	
  9121  0B11  1889               	btfsc	(73/8),(73)&7
  9122  0B12  2B14               	goto	u328_21
  9123  0B13  2B15               	goto	u328_20
  9124  0B14                     u328_21:
  9125  0B14  2B1A               	goto	i1l741
  9126  0B15                     u328_20:
  9127                           	line	57
  9128                           	
  9129  0B15                     i1l12230:	
  9130                           ;Car_demo.c: 56: {
  9131                           ;Car_demo.c: 57: Motor_Flag=5;
  9132  0B15  3005               	movlw	(05h)
  9133  0B16  00F0               	movwf	(??_Trace_Proc+0)+0
  9134  0B17  0870               	movf	(??_Trace_Proc+0)+0,w
  9135  0B18  00E5               	movwf	(_Motor_Flag)
  9136                           	line	58
  9137                           ;Car_demo.c: 58: }
  9138  0B19  2B2E               	goto	i1l746
  9139                           	line	59
  9140                           	
  9141  0B1A                     i1l741:	
  9142                           ;Car_demo.c: 59: else if(RE0 == 0)
  9143  0B1A  1809               	btfsc	(72/8),(72)&7
  9144  0B1B  2B1D               	goto	u329_21
  9145  0B1C  2B1E               	goto	u329_20
  9146  0B1D                     u329_21:
  9147  0B1D  2B23               	goto	i1l743
  9148  0B1E                     u329_20:
  9149                           	line	62
  9150                           	
  9151  0B1E                     i1l12232:	
  9152                           ;Car_demo.c: 60: {
  9153                           ;Car_demo.c: 62: Motor_Flag=3;
  9154  0B1E  3003               	movlw	(03h)
  9155  0B1F  00F0               	movwf	(??_Trace_Proc+0)+0
  9156  0B20  0870               	movf	(??_Trace_Proc+0)+0,w
  9157  0B21  00E5               	movwf	(_Motor_Flag)
  9158                           	line	63
  9159                           ;Car_demo.c: 63: }
  9160  0B22  2B2E               	goto	i1l746
  9161                           	line	64
  9162                           	
  9163  0B23                     i1l743:	
  9164                           ;Car_demo.c: 64: else if(RA4 == 0)
  9165  0B23  1A05               	btfsc	(44/8),(44)&7
  9166  0B24  2B26               	goto	u330_21
  9167  0B25  2B27               	goto	u330_20
  9168  0B26                     u330_21:
  9169  0B26  2B2E               	goto	i1l746
  9170  0B27                     u330_20:
  9171                           	line	66
  9172                           	
  9173  0B27                     i1l12234:	
  9174                           ;Car_demo.c: 65: {
  9175                           ;Car_demo.c: 66: Motor_Flag=4;
  9176  0B27  3004               	movlw	(04h)
  9177  0B28  00F0               	movwf	(??_Trace_Proc+0)+0
  9178  0B29  0870               	movf	(??_Trace_Proc+0)+0,w
  9179  0B2A  00E5               	movwf	(_Motor_Flag)
  9180  0B2B  2B2E               	goto	i1l746
  9181                           	line	67
  9182                           	
  9183  0B2C                     i1l745:	
  9184  0B2C  2B2E               	goto	i1l746
  9185                           	line	68
  9186                           	
  9187  0B2D                     i1l744:	
  9188  0B2D  2B2E               	goto	i1l746
  9189                           	
  9190  0B2E                     i1l742:	
  9191                           	
  9192  0B2E                     i1l746:	
  9193  0B2E  0008               	return
  9194                           	opt stack 0
  9195                           GLOBAL	__end_of_Trace_Proc
  9196  0B2F                     	__end_of_Trace_Proc:
  9197 ;; =============== function _Trace_Proc ends ============
  9198                           
  9199                           	signat	_Trace_Proc,90
  9200                           psect	text1060,local,class=CODE,delta=2
  9201                           global __ptext1060
  9202  0000                     __ptext1060:
  9203                           	global	btemp
  9204  007E                     	btemp set 07Eh
  9205                           
  9206                           	DABS	1,126,2	;btemp
  9207                           	global	wtemp0
  9208  007E                     	wtemp0 set btemp


HI-TECH Software PICC Macro Assembler V9.82 build 9453 
Symbol Table                                                                                   Mon Jun 17 22:10:32 2024

           __size_of_I2C_Delay 001A        __end_of_Usart_GPIO_Init 09B6                              _m 006B  
                            _x 006C                              _y 006D                              pc 0002  
                _filt_velocity 0056                             _RD 0C60                             _WR 0C61  
                           fsr 0004            __size_of_I2CWaitAck 001B                   ___ftadd@exp1 0036  
                 ___ftadd@exp2 0035                   ___ftadd@sign 0034                            l750 0D5F  
                          l751 0D79                            l752 0D85                            l753 0D85  
                          l780 051D                            l749 0D53                            l777 046D  
                          l778 051C                            l779 051D                            _GIE 005F  
                          _RA0 0028                            _RA1 0029                            _RA2 002A  
                          _RA3 002B                            _RA4 002C                            _RA5 002D  
                          _RB4 0034                            _RB5 0035                            _RE0 0048  
                          _RB6 0036                            _RE1 0049                            _RB7 0037  
                          _RE2 004A                            _PR2 0092                            _PWM 0059  
         __size_of_I2CSendByte 003E                            _ack 0069                            fsr0 0004  
                          indf 0000                __end_of_I2CStop 0A44                           l1500 0DE5  
                         l1501 0DF2                           l1502 0DF1                           l1503 0E45  
                         l1504 0DFC                           l1505 0E4C                           l1506 0E4C  
                         l1470 0A1C                           l1519 09C6                           l1465 0ADE  
                         l1473 0A2F                           l1466 0AEB                           l1490 0CEC  
                         l1467 0AEB                           l1491 0CEC                           l1476 0B55  
                         l1485 0CB4                           l1494 0C94                           l1486 0CC1  
                         l1495 0C6B                           l1487 0CC0                           l1496 0C9B  
                         l1488 0CDD                           l1497 0CA4                           l1489 0CC8  
                         l4382 0A57                           l4379 09CF                           l6456 0A87  
                         l6457 0A85                           l5754 0A02                           l6458 0A9A  
                         l5755 0A02                           l6459 0A9A                           l5756 0A09  
                         l5757 0A09                           l5766 09B5                           l9240 054E  
                         l5769 09F9                           l9217 0A6C                           l9241 0537  
                         l9242 062A                           l9250 05B7                           l9251 05AC  
                         l9243 0538                           l9252 05C4                           l9244 0539  
                         l9237 0614                           l9253 0606                           l9245 0568  
                         l8526 09E9                           l9254 05CB                           l9246 053A  
                         l9238 0528                           l9255 0613                           l9247 0546  
                         l9239 0535                           l9256 0629                           l9248 0584  
                         l9249 058F                           l9257 062A                           l9950 0DA6  
                         l9951 0DBF                           STR_1 0834                           l9952 0DCD  
                         l9960 0C36                           STR_2 082D                           l9953 0DD5  
                         l9961 0C47                           STR_3 0810                           l9946 0DCE  
                         l9962 0C55                           STR_4 0822                           l9947 0DA0  
                         l9963 0C5D                           STR_5 083A                           l9948 0D94  
                         l9956 0C56                           l9949 0DA5                           l9957 0C30  
                         l9958 0C24                           l9959 0C35                           _T0IE 005D  
                         _T0IF 005A                           u3310 0D48                           u4030 0A08  
                         u4110 0DB7                           u3311 0D47                           u4031 0A07  
                         u4111 0DB6                           u3320 0D6E                           u5000 0F20  
                         u3321 0D6D                           u4105 0DA7                           u5001 0F1F  
                         u4130 0DCC                           u3315 0D44                           u4131 0DCB  
                         u4115 0DB3                           u4140 0C20                           u5020 0F3E  
                         u5100 0786                           u3325 0D6A                           u4125 0DC0  
                         u4141 0C1F                           u5021 0F3D                           u5005 0F1C  
                         u5101 0785                           u4070 0D90                           u5030 0F44  
                         u4071 0D8F                           u5015 0F30                           u4160 0C34  
                         u5120 07A5                           u5040 0720                           u4161 0C33  
                         u5121 07A4                           u5105 0782                           u5041 071F  
                         u4090 0DA4                           u4170 0C40                           u5130 07AB  
                         u5050 0733                           u4091 0DA3                           u4171 0C3F  
                         u4155 0C25                           u5115 0797                           u5051 0732  
                         u5060 0753                           u5220 0A99                           u5300 0628  
                         u4085 0D95                           u5061 0752                           u5221 0A98  
                         u5301 0627                           u4190 0C54                           u5230 052E  
                         u5310 0C9A                           u4191 0C53                           u4175 0C3C  
                         u5231 052D                           u5311 0C99                           u3480 0ADC  
                         u5080 0769                           u5240 057A                           u5320 0CAE  
                         u3481 0ADB                           u4185 0C48                           u5081 0768  
                         u5225 0A95                           u5241 0579                           u5321 0CAD  
                         u3490 0AEA                           u5250 058D                           u5330 0CBA  
                         u3491 0AE9                           u5075 0759                           u5251 058C  
                         u5331 0CB9                           _PEIE 005E                           u5260 05AA  
                         u5340 0CEB                           u5261 05A9                           u5341 0CEA  
                         _INTE 005C                           u4550 0CFC                           u5270 05B6  
                         u5350 0DDF                           _INTF 0059                           u4551 0CFB  
                         u5095 076D                           u5271 05B5                           u5351 0DDE  
                         _RBIE 005B                           u5280 05BD                           u5360 0DEB  
                         _RBIF 0058                           u4561 0D05                           u5281 05BC  
                         u5265 05A6                           u5361 0DEA                           u4562 0D0C  
                         u5290 0612                           u5370 0E4B                           u4563 0D13  
                         u5291 0611                           u5371 0E4A                           _RCIE 0465  
                         _RCIF 0065                           u4590 0D2E                           u4591 0D2D  
                         u4575 0D16                           u4585 0D1E                           u4950 0ECF  
                         u4951 0ECE                           u4960 0EE2                           u4961 0EE1  
                         u4970 0EF6                           u4971 0EF5                           u4990 0F0C  
                         u4991 0F0B                           u4985 0EFC                           _PWM1 005B  
                         _TMR0 0001                           _PWM2 005D                           _TMR2 0011  
  __end_of_Trace_Write_Command 0BDF                           _TRMT 04C1                           _WREN 0C62  
   Velocity_PID@velocity_calcu 0049                           _Turn 00E7                           _main 03EF  
                 ___ftpack@arg 0070                   ___ftpack@exp 0073                           btemp 007E  
             __end_of_I2CStart 0A84           __size_of_LCD1602_Pow 0047                           start 0012  
                 ___ftmul@cntr 0045                   ___ftmul@sign 0046                   ___fttol@exp1 0029  
                 ___fttol@lval 0025     __end_of_Motor_CCP_PWM_Init 0A58                __end_of_Service 02A9  
                        l10015 0CF8                          l10016 0D14                          l10017 0D2F  
                        l10018 0D38                          l10130 0F3F                          l10122 0EDE  
                        l10131 0F50                          l10123 0EEE                          l10132 0F59  
                        l10124 0F40                          l10140 076A                          l10125 0F08  
                        l10141 076B                          l10126 0EFA                          l10142 0796  
                        l10127 0F0D                          l10143 07A6                          l10135 072F  
            i1_Motor_Speed_Set 0BDF                          l10128 0F0E                          l10144 07B7  
                        l10136 0743                          l10129 0F2F                          l10145 07C0  
                        l10137 07A7                          l10138 0765                          l10139 0757  
                        l13020 0EE2                          l13012 0EC8                          l13030 0F0E  
                        l13022 0EEE                          l13014 0ECF                          l12240 0D4C  
                        l12400 0AD0                          l13040 0F44                          l13032 0F20  
                        l13024 0EF6                          l13016 0EDA                          l13200 05CB  
                        l12250 0D7D                          l12242 0D57                          l12402 0AD6  
                        l13042 0F50                          l13034 0F2F                          l13026 0EFA  
                        l13018 0EDE                          l13050 072B                          l13202 05FF  
                        l13210 0A11                          l12244 0D5F                          l12236 0D39  
                        l12404 0ADD                          l13044 0F59                          l13036 0F38  
                        l13028 0F08                          l13060 074B                          l13052 072F  
                        l13204 0606                          l13212 0A12                          l13220 0A20  
                        l13300 040F                          l12246 0D6E                          l12238 0D48  
                        l12406 0ADE                          l13038 0F40                          l13070 0774  
                        l13062 0753                          l13054 0733                          l13046 0719  
                        l13150 0A84                          l13206 0614                          l13214 0A13  
                        l13230 0A2C                          l13222 0A24                          l13310 043B  
                        l13302 041C                          l12248 0D72                          l12408 0AE4  
                        l13072 0786                          l13064 0757                          l13080 07A7  
                        l13056 073E                          l13048 0720                          l13152 0A87  
                        l13160 053A                          l13216 0A14                          l13208 0A0D  
                        l13224 0A25                          l13240 0C94                          l13232 0C61  
                        l13320 048B                          l13312 0441                          l13304 0421  
                        l12362 09BE                          l12370 09EA                          l13082 07AB  
                        l13074 0794                          l13066 0765                          l13058 0743  
                        l13162 0541                          l13170 0568                          l13154 0523  
                        l13218 0A19                          l13226 0A26                          l13242 0C9B  
                        l13234 0C69                          l13250 0B37                          l13322 04AA  
                        l13314 0462                          l13306 042B                          l12364 09C3  
                        l12372 09F6                          l12380 0A44                          l12700 0DBD  
                        l13084 07B7                          l13076 0796                          l13068 076B  
                        l13180 0584                          l13172 0572                          l13164 0546  
                        l13156 0528                          l13228 0A27                          l13244 0CA4  
                        l13236 0C6B                          l13252 0B3D                          l13260 0CA8  
                        l13324 04C9                          l13316 0467                          l13308 0430  
                        l12366 09C4                          l12374 09F7                          l12382 0A54  
                        l12390 09E2                          l12702 0DBF                          l12710 0C18  
                        l13086 07C0                          l13078 079F                          l13190 05AC  
                        l13182 0587                          l13174 0576                          l13166 054D  
                        l13158 052E                          l13238 0C8F                          l13254 0B43  
                        l13246 0B2F                          l13270 0CC8                          l13262 0CAE  
                        l13326 04E8                          l13318 046D                          l12368 09B1  
                        l12376 09F8                          l12384 0A55                          l12392 09E4  
                        l12704 0DC6                          l12720 0C36                          l12712 0C20  
                        l13192 05B0                          l13184 058E                          l13176 057A  
                        l13168 054E                          l13256 0B49                          l13248 0B32  
                        l13272 0CD6                          l13264 0CB4                          l13280 0DE5  
                        l13328 0507                          l12378 09C7                          l12386 0A56  
                        l12394 09E5                          l12706 0DCE                          l12730 0C5D  
                        l12722 0C40                          l12714 0C24                          l13194 05B7  
                        l13186 058F                          l13178 057E                          l13258 0B4F  
                        l13274 0CDD                          l13266 0CBA                          l13290 0E3E  
                        l13282 0DEB                          l12396 09E6                          l12388 09DC  
                        l12708 0DD5                          l12724 0C47                          l12716 0C2B  
                        l13196 05BD                          l13188 05AB                          l13268 0CC1  
                        l13292 0E45                          l13284 0DF2                          l13276 0DD9  
                        l12398 0A58                          l12726 0C4E                          l12718 0C30  
                        l13198 05C4                          l13286 0DF8                          l13278 0DDF  
                        l13294 03EF                          l12728 0C56                          l12840 0D1D  
                        l12832 0CED                          l13288 0DFC                          l13296 03F8  
                        l12666 09FD                          l12690 0D94                          l12842 0D2F  
                        l12834 0CF8                          l13298 0402                          l12692 0D9B  
                        l12684 0D86                          l12844 0D38                          l12836 0CFC  
                        l12694 0DA0                          l12686 0D8A                          l12838 0D14  
                        l12696 0DA6                          l12688 0D90                          l12698 0DB7  
              __end_of___aldiv 07C1                __end_of___almod 0F5A                          ?_main 0070  
            ??_Motor_GPIO_Init 00A0                          _EEADR 010D                __end_of___ftadd 03EF  
                        _CARRY 0018                __end_of___ftneg 09DC                __end_of___ftmul 0719  
                        _T1CON 0010                __end_of___fttol 1000                          _T2CON 0012  
              __end_of___lwdiv 0DD6              _LCD1602_GPIO_Init 09BE                __end_of___lwmod 0C5E  
                        i1l741 0B1A                          i1l742 0B2E                          i1l750 0BFB  
                        i1l743 0B23                          i1l751 0C0F                          i1l744 0B2D  
                        i1l752 0C17                          i1l760 01C8                          i1l745 0B2C  
                        i1l753 0C17                          i1l761 01DB                          i1l746 0B2E  
                        i1l762 029C                          i1l770 027E                          i1l771 028C  
                        i1l763 0290                          i1l772 029B                          i1l764 023C  
                        i1l756 01F0                          i1l749 0BF3                          i1l773 029A  
                        i1l765 028F                          i1l757 0192                          i1l766 0252  
                        i1l774 029C                          i1l758 01A2                          i1l767 028E  
                        i1l759 01B6                          i1l768 0268                          i1l769 028D  
                        _RCREG 001A                          _RCSTA 0018             ?i1_Motor_Speed_Set 0070  
                        _TMR1H 000F                          _TMR1L 000E                          _SPBRG 0099  
                        _PORTA 0005                          _PORTB 0006                          _PORTD 0008  
                        _TRISB 0086                          _TRISD 0088                          _TXREG 0019  
                        _TXSTA 0098            ___lmul@multiplicand 00A4       __size_of_Motor_Speed_Set 004D  
           ?_LCD1602_GPIO_Init 0070                          _nRBPU 040F                          _Speed 005F  
 __end_of_LCD1602_WriteCommand 0A1D                  ___awtoft@sign 007D              __end_of_I2C_Delay 0AB5  
          ??i1_Motor_Speed_Set 0074                  ___ftpack@sign 0074                          _putch 09FA  
                        pclath 000A          __size_of_LCD1602_Init 0027            ??_LCD1602_GPIO_Init 00A0  
        Motor_Speed_Set@Speed1 00A0          Motor_Speed_Set@Speed2 00A2                          status 0003  
                        wtemp0 007E       __end_of_Velociy_PID_Init 0A6D               __end_of_Delay_ms 0A9B  
         __end_of_Encoder_Init 09EA                   __end_of_main 0520               ?_Usart_GPIO_Init 0070  
    __end_ofi1_Motor_Speed_Set 0C18              ?_LCD1602_WriteNum 00D5            _LCD1602_WriteString 0CA5  
                    ??_I2CStop 0071      __end_of_LCD1602_GPIO_Init 09C7       LCD1602_WriteNum@Location 00DA  
                       ??_main 00DD                  ___fttol@sign1 0024             ??_LCD1602_WriteNum 00D9  
                 _LCD1602_Init 0B2F                         _ADCON1 009F                 _Timer0_Counter 00E5  
                       _EEDATA 010C                         _CCPR1L 0015                         _CCPR2L 001B  
                       _EECON1 018C                         _EECON2 018D                   ??_I2CWaitAck 0071  
             __end_of___awtoft 0B7E                         ?_putch 0070               __end_of___ftpack 0EC8  
                       i1l3002 0BC6                         i1l3003 0BDE                         i1l3004 0BD9  
         ?_LCD1602_WriteString 00A3                         i1l2950 0AB4                         i1l2951 0AB4  
                       i1l2960 07CB                         i1l2961 07FB                         i1l2954 0A83  
                       i1l2962 07DC                         i1l2963 07E0                         i1l2964 07FE  
                       i1l2949 0A9C                         i1l2957 0A43                         i1l2973 0ACF  
                       i1l9220 0B8F                         i1l9221 0BAD                         i1l9222 0BAD  
                       i1l9225 0027                         i1l9226 015F                         u330_20 0B27  
                       u330_21 0B26                         i1l9990 02F4                         i1l9991 02FE  
                       i1l9992 0303                         i1l9984 02E0                         u420_20 02C7  
                       u340_20 022A                         i1l9993 0348                         u340_21 0229  
                       i1l9994 0318                         i1l9986 02D8                         i1l9987 03EE  
                       i1l9996 0331                         i1l9988 02F5                         i1l9997 0332  
                       i1l9998 0340                         i1l9999 0333                         u405_20 0B88  
                       u421_20 02CD                         u341_20 0244                         u333_20 017A  
                       u405_21 0B87                         u421_21 02CC                         u341_21 0243  
                       u333_21 0179                         u406_20 0BA4                         u430_20 0328  
                       u422_20 02D7                         u342_20 025A                         u334_20 0184  
                       u406_21 0BA3                         u430_21 0327                         u422_21 02D6  
                       u342_21 0259                         u334_21 0183                         u406_25 0BA0  
                       u327_20 0B11                         u431_20 0330                         u423_20 02E4  
                       u343_20 0270                         u335_20 0198                         u327_21 0B10  
                       u431_21 032F                         u343_21 026F                         u335_21 0197  
                       u328_20 0B15                         u520_20 0BEC                         u440_20 0383  
                       u424_20 02EA                         u344_20 0294                         u336_20 01A8  
                       u328_21 0B14                         u520_21 0BEB                         u440_21 0382  
                       u424_21 02E9                         u344_21 0293                         u336_21 01A7  
                       u520_25 0BE8                         u432_25 0334                         u329_20 0B1E  
                       u521_20 0C08                         u441_20 0398                         u433_20 0346  
                       u425_20 02F4                         u345_20 0BC3                         u337_20 01BC  
                       u329_21 0B1D                         u521_21 0C07                         u441_21 0397  
                       u433_21 0345                         u425_21 02F3                         u345_21 0BC2  
                       u337_21 01BB                         u521_25 0C04                         u434_20 034E  
                       u426_20 02FD                         u346_20 0BD6                         u338_20 01CE  
                       u442_21 03B3                         u434_21 034D                         u426_21 02FC  
                       u346_21 0BD5                         u338_21 01CD                         u442_22 03BA  
                       u450_25 0E98                         u451_20 0EA4                         u443_20 03BE  
                       u427_20 0302                         u347_20 0021                         u339_20 01F4  
                       u451_21 0EA3                         u443_21 03BD                         u427_21 0301  
                       u347_21 0020                         u339_21 01F3                         u435_25 0350  
                       u452_20 0EA8                         u444_20 0E51                         u436_20 035F  
                       u428_20 0317                         u452_21 0EA7                         u436_21 035E  
                       u428_21 0316                         u453_20 0EB9                         u445_20 0E58  
                       u437_20 0367                         u445_21 0E57                         u437_21 0366  
                       u453_25 0EB5                         u429_25 0319                         u454_20 0EC6  
                       u390_20 0AB3                         u470_20 066F                         u390_21 0AB2  
                       u446_25 0E67                         u438_25 036B                         u470_25 066B  
                       u447_20 0E75                         u439_20 037D                         u471_20 0681  
                       u391_20 07C9                         u447_21 0E74                         u439_21 037C  
                       u391_21 07C8                         u471_25 067D                         u472_20 06A3  
                       u392_20 07D8                         u472_21 06A2                         u392_21 07D7  
                       u448_25 0E86                         u480_25 06EE                         u449_20 0E93  
                       u481_20 06FB                         u393_20 07FB                         u449_21 0E92  
                       u481_21 06FA                         u473_21 06AC                         u393_21 07FA  
                       u473_22 06B3                         u490_20 0FE4                         u482_20 0F6D  
                       u490_21 0FE3                         u482_21 0F6C                         u474_25 06B5  
                       u491_20 0FEA                         u483_20 0F82                         u483_25 0F7E  
                       u475_25 06BD                         u484_20 0F9D                         u476_20 06CA  
                       u468_20 063E                         u484_21 0F9C                         u476_21 06C9  
                       u468_21 063D                         u485_20 0FA4                         u477_20 06D4  
                       u469_20 0657                         u493_20 0B5B                         u485_21 0FA3  
                       u477_21 06D3                         u469_21 0656                         u493_21 0B5A  
                       u494_20 09D7                         u494_21 09D6                         u478_21 06DD  
                       u478_22 06E4                         u486_25 0FB0                         u487_20 0FC0  
                       u487_21 0FBF                         u479_25 06E6                         u488_20 0FC8  
                       u488_21 0FC7                         u489_25 0FD5                         _TMR1IE 0460  
                       _TMR1IF 0060                         _TMR2IE 0461                         _TMR2IF 0061  
                       _TMR2ON 0092                         _TRISA0 0428                         _TRISA1 0429  
                       _TRISB0 0430                         _TRISA2 042A                         _TRISB1 0431  
                       _TRISA3 042B                         _TRISA4 042C                         _TRISC1 0439  
                       _TRISA5 042D                         _TRISC2 043A                         _TRISB4 0434  
                       _TRISB5 0435                         _TRISE0 0448                         _TRISB6 0436  
                       _TRISE1 0449                         _TRISB7 0437                         _TRISE2 044A  
                       _TRISC6 043E                         _TRISC7 043F          LCD1602_WriteData@Data 00A2  
                   _Motor_Flag 0065                      ??_Service 0050                         ___lmul 0CED  
                    ??___aldiv 00B5                      ??___almod 00C4                      ??___ftadd 0030  
                    ??___ftneg 0073                      ??___ftmul 003D                      ??___fttol 0020  
                    ??___lwdiv 00A4                      ??___lwmod 00AC                     _Trace_Byte 0068  
                   _Trace_Proc 0B0B           Velocity_PID@velocity 0047             __end_of_I2CWaitAck 0AD0  
                       _printf 0520                         clrloop 09B7          ___ftmul@f3_as_product 0042  
       __size_of_LCD1602_Delay 001C                      ?_I2CStart 0070  __size_of_I_amplitude_limiting 0030  
                       saved_w 007E          ??_LCD1602_WriteString 00A5              ??_Motor_Speed_Set 00A4  
                   _Usart_Init 09EA                     ___ftadd@f1 002A                     ___ftadd@f2 002D  
                   ___ftneg@f1 0070                     ___awtoft@c 0078                     ___ftmul@f1 0037  
                   ___ftmul@f2 003A                     ___fttol@f1 0078                 __pcstackCOMMON 0070  
         _LCD1602_WriteCommand 0A0A     __size_ofi1_Motor_Speed_Set 0039          LCD1602_WriteNum@lenth 00D8  
                __end_of_putch 0A0A     __size_of_LCD1602_GPIO_Init 0009              _LCD1602_WriteData 0A1D  
           ?_LCD1602_WriteData 0070                     ??_I2CStart 0071                      ?_Delay_ms 00A0  
          ??_LCD1602_WriteData 00A2                        ??_putch 00A0                     __pbssBANK0 0056  
                   __pbssBANK1 00E0                     __pbssBANK3 0190          __size_of_Encoder_Init 000E  
                _LCD1602_Delay 0AD0                     I2C_Delay@n 0070                _Motor_GPIO_Init 09C7  
               I2CSendByte@byt 0072                   I2CSendByte@i 0073                     __pmaintext 03EF  
                      ?___lmul 00A0          ?_LCD1602_WriteCommand 0070      __end_of_LCD1602_WriteData 0A30  
                   __pintentry 0004                        _CCP1CON 0017                        _CCP2CON 001D  
                   __ptext1020 0DD6                     __ptext1021 0CA5                     __ptext1030 0CED  
                   __ptext1022 0B2F                     __ptext1031 0C18                     __ptext1023 0C5E  
                   __ptext1040 09B1                     __ptext1032 0D86                     __ptext1024 0A1D  
                   __ptext1041 09BE                     __ptext1033 09FA                     __ptext1025 0A0A  
                   __ptext1050 0B56                     __ptext1042 0D39                     __ptext1034 0AD0  
                   __ptext1026 0520                     __ptext1051 062B                     __ptext1043 0160  
                   __ptext1035 0A58                     __ptext1027 0A84                     __ptext1060 0000  
                   __ptext1052 02A9                     __ptext1044 0BAE                     __ptext1036 09DC  
                   __ptext1028 0719                     __ptext1053 0A9B                     __ptext1045 0AB5  
                   __ptext1037 0A44                     __ptext1029 0EC8                     __ptext1054 0BDF  
                   __ptext1046 07C1                     __ptext1038 09C7                     __ptext1055 09D0  
                   __ptext1047 0A30                     __ptext1039 09EA                     __ptext1056 0F5A  
                   __ptext1048 0A6D                     __ptext1057 0E4D                     __ptext1049 0015  
                   __ptext1058 0B7E                     __ptext1059 0B0B                  ??_I2CSendByte 0071  
               ___lmul@product 00A9                    ?_Trace_Proc 0070                        _I2CStop 0A30  
                    ?___awtoft 0078                      ?___ftpack 0070                        ?_printf 00AE  
                      i1l10000 0347                        i1l10001 037F                        i1l10010 0394  
                      i1l10002 037F                        i1l10011 03A9                        i1l10003 034F  
                      i1l10012 03D2                        i1l10005 0368                        i1l10006 0369  
                      i1l10103 09DA                        i1l10007 0377                        i1l10104 09DB  
                      i1l10008 036A                        i1l10040 065F                        i1l10009 037E  
                      i1l10041 069F                        i1l10050 0FFF                        i1l10042 06B4  
                      i1l10051 0FC2                        i1l10043 06CB                        i1l10060 0FF6  
                      i1l10052 0FAE                        i1l10044 06D0                        i1l10053 0FAF  
                      i1l10045 06E5                        i1l10054 0FC1                        i1l10046 06FC  
                      i1l10038 0646                        i1l10055 0FE6                        i1l10039 0718  
                      i1l10056 0FD2                        i1l10057 0FDF                        i1l10049 0F77  
                      i1l10058 0FD3                        i1l10059 0FE5                        i1l10076 0B64  
                      i1l10077 0B7D                        i1l10280 0E77                        i1l10272 0E61  
                      i1l13000 0B64                        i1l10281 0E94                        i1l10282 0EA0  
                      i1l10274 0E59                        i1l13010 09DB                        i1l13002 0B7D  
                      i1l10283 0E95                        i1l10275 0EC7                        i1l10284 0EA4  
                      i1l10276 0E6F                        i1l13004 09D0                        i1l12300 01FF  
                      i1l10285 0EAE                        i1l10277 0E62                        i1l12230 0B15  
                      i1l10286 0EC7                        i1l10278 0E76                        i1l13006 09D7  
                      i1l12310 023C                        i1l12302 0218                        i1l10279 0E8D  
                      i1l12232 0B1E                        i1l13008 09DA                        i1l12320 0270  
                      i1l12312 0244                        i1l12304 021E                        i1l12234 0B27  
                      i1l12226 0B0B                        i1l12330 0BC3                        i1l12322 027E  
                      i1l12314 0252                        i1l12306 0224                        i1l12228 0B11  
                      i1l13140 0BF7                        i1l12340 0BD9                        i1l12332 0BC5  
                      i1l12324 0294                        i1l12316 025A                        i1l12308 022A  
                      i1l12260 0176                        i1l12252 0160                        i1l13142 0BFB  
                      i1l13134 0BDF                        i1l12350 0043                        i1l12342 0015  
                      i1l12334 0BC6                        i1l12326 0298                        i1l12318 0268  
                      i1l12270 0192                        i1l12262 017A                        i1l12254 0165  
                      i1l13144 0C08                        i1l13136 0BEC                        i1l12360 015F  
                      i1l12352 00B4                        i1l12344 001D                        i1l12600 0AB8  
                      i1l12336 0BD6                        i1l12328 0BAE                        i1l12280 01AC  
                      i1l12272 0198                        i1l12264 0184                        i1l12256 016F  
                      i1l13146 0C0C                        i1l13138 0BF0                        i1l12354 00DD  
                      i1l12346 0021                        i1l12602 0ABE                        i1l12338 0BD8  
                      i1l12290 01DB                        i1l12282 01B0                        i1l12274 019E  
                      i1l12266 0188                        i1l12258 0174                        i1l13148 0C13  
                      i1l12356 00E9                        i1l12348 0027                        i1l12540 0A77  
                      i1l12604 0AC6                        i1l12292 01EC                        i1l12284 01B6  
                      i1l12276 01A2                        i1l12268 018C                        i1l12534 0AAB  
                      i1l12358 00FB                        i1l12542 0A80                        i1l12550 07C2  
                      i1l12606 0AC7                        i1l12294 01F4                        i1l12286 01BC  
                      i1l12278 01A8                        i1l12800 03EE                        i1l12536 0A6D  
                      i1l12544 0A30                        i1l12560 07D8                        i1l12552 07C3  
                      i1l12608 0ACF                        i1l12296 01F6                        i1l12288 01CE  
                      i1l12810 0E62                        i1l12802 0E4D                        i1l12538 0A71  
                      i1l12546 0A34                        i1l12570 07F1                        i1l12562 07E0  
                      i1l12554 07CA                        i1l12298 01FE                        i1l12820 0E95  
                      i1l12812 0E6F                        i1l12804 0E51                        i1l12740 02D8  
                      i1l12732 02A9                        i1l12900 065E                        i1l12548 0A3A  
                      i1l12572 07F5                        i1l12564 07E6                        i1l12556 07CE  
                      i1l12830 0EC6                        i1l12822 0EA0                        i1l12814 0E77  
                      i1l12806 0E59                        i1l12750 02F5                        i1l12742 02DF  
                      i1l12734 02C3                        i1l12910 0694                        i1l12902 065F  
                      i1l12566 07E9                        i1l12558 07D4                        i1l12680 0B8F  
                      i1l12824 0EA8                        i1l12816 0E7B                        i1l12808 0E60  
                      i1l12760 030A                        i1l12752 02F9                        i1l12744 02E0  
                      i1l12736 02C7                        i1l12920 06BC                        i1l12912 069A  
                      i1l12904 068C                        i1l12568 07EB                        i1l12682 0BA4  
                      i1l12826 0EB0                        i1l12818 0E85                        i1l12770 0340  
                      i1l12762 0318                        i1l12754 02FD                        i1l12746 02E4  
                      i1l12738 02CD                        i1l12930 06E5                        i1l12922 06C4  
                      i1l12914 069F                        i1l12906 068D                        i1l12676 0B7F  
                      i1l12828 0EC2                        i1l12940 0F5A                        i1l12780 036A  
                      i1l12764 0322                        i1l12772 0348                        i1l12756 0302  
                      i1l12748 02EA                        i1l12932 06ED                        i1l12924 06CB  
                      i1l12916 06A3                        i1l12908 068E                        i1l12678 0B88  
                      i1l12950 0F8A                        i1l12942 0F6D                        i1l12790 03A9  
                      i1l12782 0377                        i1l12774 034F                        i1l12766 0328  
                      i1l12758 0304                        i1l12934 06F5                        i1l12926 06D0  
                      i1l12918 06B4                        i1l12598 0AB5                        i1l12960 0FA4  
                      i1l12952 0F90                        i1l12944 0F76                        i1l12792 03BA  
                      i1l12784 0383                        i1l12776 0359                        i1l12768 0333  
                      i1l12936 06FC                        i1l12928 06D4                        i1l12970 0FD1  
                      i1l12962 0FAD                        i1l12954 0F97                        i1l12946 0F77  
                      i1l12794 03BE                        i1l12786 0394                        i1l12778 035F  
                      i1l12938 0718                        i1l12890 062B                        i1l12980 0FF6  
                      i1l12972 0FD3                        i1l12964 0FAF                        i1l12956 0F99  
                      i1l12948 0F89                        i1l12796 03CE                        i1l12788 0398  
                      i1l12892 063E                        i1l12982 0FFF                        i1l12974 0FDF  
                      i1l12958 0F9D                        i1l12966 0FC2                        i1l12798 03D2  
                      i1l12894 0645                        i1l12968 0FC8                        i1l12976 0FE6  
                      i1l12896 0646                        i1l12978 0FEA                        i1l12898 0657  
                      i1l12996 0B56                        i1l12998 0B5B                     ??_Delay_ms 00A2  
                 _Encoder_Init 09DC             _Motor_CCP_PWM_Init 0A44                 _Speed_measure1 0066  
               _Speed_measure2 0067                  ??_LCD1602_Pow 00CB                    ?_Usart_Init 0070  
                    _I2C_Delay 0A9B                 ?_LCD1602_Delay 0070            ?_Motor_CCP_PWM_Init 0070  
                      _Key_Val 0064              ?_Velociy_PID_Init 0070   __size_of_Trace_Write_Command 0031  
           ??_Velociy_PID_Init 00A0                        _Service 0160                        ___aldiv 0719  
                      ___almod 0EC8                  ?_Velocity_PID 0047                __size_of___lmul 004C  
                      ___ftadd 02A9                        ___ftneg 09D0                        ___ftmul 062B  
                      ___fttol 0F5A                        ___lwdiv 0D86                        ___lwmod 0C18  
                   ??___awtoft 007B                     ??___ftpack 0075           ??_Motor_CCP_PWM_Init 00A0  
              __size_of_printf 010B                        _dpowers 0806               ___aldiv@dividend 00B1  
          __end_of_I2CSendByte 07FF           end_of_initialization 0B07      __size_of_LCD1602_WriteNum 0077  
      __end_of_Motor_GPIO_Init 09D0                      _RBIF_FLAG 0370                      Delay_ms@x 00A0  
                   ?_I2C_Delay 0070            __size_of_Trace_Proc 0024                   LCD1602_Pow@X 00CF  
                 LCD1602_Pow@Y 00C7                   LCD1602_Pow@i 00D0            __end_of_LCD1602_Pow 0CA5  
       ??_LCD1602_WriteCommand 00A2                 ??_Velocity_PID 004B                        printf@c 00BB  
                      printf@f 00B4               ___aldiv@quotient 00B8                        putch@ch 00A0  
   __size_of_LCD1602_WriteData 0013            __size_of_Usart_Init 0010             _last_filt_velocity 00E0  
              _Motor_Speed_Set 0D39       __size_of_Usart_GPIO_Init 0005                   _Counter_temp 00E3  
            __size_of_I2CStart 0017                ??_LCD1602_Delay 00A0   __end_of_I_amplitude_limiting 0BAE  
                  ___ftmul@exp 0041    LCD1602_WriteCommand@Command 00A2                 __end_of___lmul 0D39  
                  _I2CSendByte 07C1         LCD1602_WriteNum@column 00D5               I2CWaitAck@ackbit 0072  
                __pbitbssBANK0 0370                 __end_of_printf 062B         LCD1602_WriteNum@number 00D6  
  __end_of_LCD1602_WriteString 0CED            start_initialization 0AEC            LCD1602_WriteNum@row 00DB  
            __size_of_Delay_ms 0017                    _LCD1602_Pow 0C5E               ?_Motor_GPIO_Init 0070  
                  ??_I2C_Delay 0070                      _Speed_Set 0061                       ??___lmul 00A8  
      __end_of_Motor_Speed_Set 0D86                   ??_Trace_Proc 0070                       ?_I2CStop 0070  
                     ??_printf 00B0              __size_of___awtoft 0028              __size_of___ftpack 007B  
                __pcstackBANK0 0020                  __pcstackBANK1 00A0            _Trace_Write_Command 0BAE  
         __end_of_Velocity_PID 0160         LCD1602_WriteString@row 00A7               _LCD1602_WriteNum 0DD6  
            ??_Usart_GPIO_Init 00A0                   ??_Usart_Init 00A0             __end_of_Trace_Proc 0B2F  
         ?_Trace_Write_Command 0070               ___lwdiv@dividend 00A2                       ?_Service 0070  
                     ?___aldiv 00AD                       ?___almod 00BC                       ?___ftadd 002A  
                     ?___ftneg 0070                       ?___ftmul 0037                       ?___fttol 0078  
                     ?___lwdiv 00A0                       ?___lwmod 00A8               ___almod@dividend 00C0  
                    __pstrings 0800                      _bluetooth 006A      __size_of_Velociy_PID_Init 0015  
           __end_of_Usart_Init 09FA                  ?_LCD1602_Init 0070                       _I2CStart 0A6D  
         _I_amplitude_limiting 0B7E               ___lwdiv@quotient 00A5                 __size_of_putch 0010  
    LCD1602_WriteString@String 00A4                ___aldiv@divisor 00AD              interrupt_function 0004  
              ___aldiv@counter 00B6      LCD1602_WriteString@column 00A3          ??_Trace_Write_Command 0074  
             ?_Motor_Speed_Set 00A0                    __stringbase 0805               __size_of_I2CStop 0014  
  __size_of_Motor_CCP_PWM_Init 0014                 ??_LCD1602_Init 00A3                     printf@_val 00B7  
                   printf@flag 00B3          ?_I_amplitude_limiting 0070                     printf@prec 00B5  
   I_amplitude_limiting@number 0073                       _Delay_ms 0A84                  Velocity_PID@a 004D  
            ___lmul@multiplier 00A0                     _I2CWaitAck 0AB5                       _Velocity 0190  
             __size_of_Service 0149  __size_of_LCD1602_WriteCommand 0013              LCD1602_Pow@result 00D1  
             __size_of___aldiv 00A8               __size_of___almod 0092               __size_of___ftadd 0146  
             __size_of___ftneg 000C               __size_of___ftmul 00EE               __size_of___fttol 00A6  
             __size_of___lwdiv 0050               __size_of___lwmod 0046                   ?_I2CSendByte 0070  
                     ___awtoft 0B56                       ___ftpack 0E4D    LCD1602_WriteString@Location 00A6  
        __size_of_Velocity_PID 014B                 LCD1602_Delay@i 00A0                ___lwdiv@divisor 00A0  
              ___lwdiv@counter 00A7                ___almod@divisor 00BC                ___almod@counter 00C5  
                 ?_LCD1602_Pow 00C7          __end_of_LCD1602_Delay 0AEC                  __size_of_main 0131  
                     clear_ram 09B6                   _Velocity_PID 0015       __end_of_LCD1602_WriteNum 0E4D  
             _Velociy_PID_Init 0A58                _Usart_GPIO_Init 09B1         ??_I_amplitude_limiting 0071  
            LCD1602_WriteNum@i 00DC                  ?_Encoder_Init 0070  I_amplitude_limiting@Error_sum 0070  
                  ?_I2CWaitAck 0070                       intlevel1 0000   __size_of_LCD1602_WriteString 0048  
             ___lwmod@dividend 00AA                _Encoder_Counter 0063           __end_of_LCD1602_Init 0B56  
                    stringcode 0800       __size_of_Motor_GPIO_Init 0009                       printf@ap 00B6  
                   _OPTION_REG 0081                 ??_Encoder_Init 00A0                ___lwmod@divisor 00A8  
              ___lwmod@counter 00AD                       stringdir 0800                       stringtab 0800  
                 ___aldiv@sign 00B7        i1Motor_Speed_Set@Speed1 0070        i1Motor_Speed_Set@Speed2 0072  
                 ___almod@sign 00C6  
