

HI-TECH Software PIC LITE Macro Assembler V9.82 build 9453 
                                                                                               Wed Jun 19 22:54:13 2024

HI-TECH Software Omniscient Code Generator (Lite mode) build 9453
     1  0000                     opt subtitle "HI-TECH Software Omniscient Code Generator (Lite mode) build 9453"
     2                           
     3                           opt pagewidth 120
     4                           
     5                           	opt lm
     6                           
     7                           	processor	16F877A
     8                           clrc	macro
     9                           	bcf	3,0
    10  0000                     	endm
    11                           clrz	macro
    12                           	bcf	3,2
    13  0000                     	endm
    14                           setc	macro
    15                           	bsf	3,0
    16  0000                     	endm
    17                           setz	macro
    18                           	bsf	3,2
    19  0000                     	endm
    20                           skipc	macro
    21                           	btfss	3,0
    22  0000                     	endm
    23                           skipz	macro
    24                           	btfss	3,2
    25  0000                     	endm
    26                           skipnc	macro
    27                           	btfsc	3,0
    28  0000                     	endm
    29                           skipnz	macro
    30                           	btfsc	3,2
    31  0000                     	endm
    32  0000                     indf	equ	0
    33  0000                     indf0	equ	0
    34  0002                     pc	equ	2
    35  0002                     pcl	equ	2
    36  0003                     status	equ	3
    37  0004                     fsr	equ	4
    38  0004                     fsr0	equ	4
    39  0001                     c	equ	1
    40  0000                     z	equ	0
    41  000A                     pclath	equ	10
    42                           # 2 "D:\6_pic_project\00_Design_Flow_Car\User\Car_demo\Car_demo.c"
    43                           	psect config,class=CONFIG,delta=2 ;#
    44                           # 2 "D:\6_pic_project\00_Design_Flow_Car\User\Car_demo\Car_demo.c"
    45  2007  FF29               	dw 0xFF29 ;#
    46                           	FNCALL	_main,_Trace_GPIO_Init
    47                           	FNCALL	_main,_Usart_GPIO_Init
    48                           	FNCALL	_main,_Usart_Init
    49                           	FNCALL	_main,_Motor_GPIO_Init
    50                           	FNCALL	_main,_Motor_CCP_PWM_Init
    51                           	FNCALL	_main,_csb_init
    52                           	FNCALL	_main,_Delay_ms
    53                           	FNCALL	_main,_Encoder_Init
    54                           	FNCALL	_main,_Motor_Speed_Set
    55                           	FNROOT	_main
    56                           	FNCALL	intlevel1,_Service
    57                           	global	intlevel1
    58                           	FNROOT	intlevel1
    59                           	global	_table
    60                           	global	_Kp
    61                           	global	_Speed_Velcolity
    62                           psect	idataBANK0,class=CODE,space=0,delta=2
    63                           global __pidataBANK0
    64  0149                     __pidataBANK0:
    65                           	file	"D:\6_pic_project\00_Design_Flow_Car\Driver\csb.c"
    66                           	line	9
    67                           
    68                           ;initializer for _table
    69  0149  3430               	retlw	030h
    70  014A  3431               	retlw	031h
    71  014B  3432               	retlw	032h
    72  014C  3433               	retlw	033h
    73  014D  3434               	retlw	034h
    74  014E  3435               	retlw	035h
    75  014F  3436               	retlw	036h
    76  0150  3437               	retlw	037h
    77  0151  3438               	retlw	038h
    78  0152  3439               	retlw	039h
    79  0153  3441               	retlw	041h
    80  0154  3442               	retlw	042h
    81  0155  3443               	retlw	043h
    82  0156  3444               	retlw	044h
    83  0157  3445               	retlw	045h
    84  0158  3446               	retlw	046h
    85                           	file	"D:\6_pic_project\00_Design_Flow_Car\Driver\pid.c"
    86                           	line	14
    87                           
    88                           ;initializer for _Kp
    89  0159  34CD               	retlw	0xcd
    90  015A  344C               	retlw	0x4c
    91  015B  3440               	retlw	0x40
    92                           
    93                           	file	"D:\6_pic_project\00_Design_Flow_Car\User\Car_demo\Car_demo.c"
    94                           	line	33
    95                           
    96                           ;initializer for _Speed_Velcolity
    97  015C  341E               	retlw	01Eh
    98                           	global	_Counter_temp
    99                           	global	_Encoder_Counter
   100                           	global	_Kd
   101                           	global	_Timer0_Counter
   102                           	global	_dis
   103                           	global	_err_difference
   104                           	global	_last_err
   105                           	global	_turn_err
   106                           	global	_Bifurcate_Flag
   107                           	global	_Circle_Mode
   108                           	global	_IO_flag
   109                           	global	_Key_Val
   110                           	global	_Motor_Flag
   111                           	global	_Speed_left
   112                           	global	_Speed_measure1
   113                           	global	_Speed_measure2
   114                           	global	_Speed_right
   115                           	global	_Start_Find_flag
   116                           	global	_Stop_Flag
   117                           	global	_Trace_Byte
   118                           	global	_Turn_PWM
   119                           	global	_bluetooth
   120                           	global	_recv_data
   121                           	global	_x
   122                           	global	_y
   123                           	global	_RBIF_FLAG
   124                           	global	_CCP1CON
   125  0017                     _CCP1CON	set	23
   126                           	global	_CCP2CON
   127  001D                     _CCP2CON	set	29
   128                           	global	_CCPR1L
   129  0015                     _CCPR1L	set	21
   130                           	global	_CCPR2L
   131  001B                     _CCPR2L	set	27
   132                           	global	_PORTB
   133  0006                     _PORTB	set	6
   134                           	global	_PORTD
   135  0008                     _PORTD	set	8
   136                           	global	_RCREG
   137  001A                     _RCREG	set	26
   138                           	global	_RCSTA
   139  0018                     _RCSTA	set	24
   140                           	global	_T1CON
   141  0010                     _T1CON	set	16
   142                           	global	_T2CON
   143  0012                     _T2CON	set	18
   144                           	global	_TMR0
   145  0001                     _TMR0	set	1
   146                           	global	_TMR1H
   147  000F                     _TMR1H	set	15
   148                           	global	_TMR1L
   149  000E                     _TMR1L	set	14
   150                           	global	_TMR2
   151  0011                     _TMR2	set	17
   152                           	global	_TXREG
   153  0019                     _TXREG	set	25
   154                           	global	_CARRY
   155  0018                     _CARRY	set	24
   156                           	global	_GIE
   157  005F                     _GIE	set	95
   158                           	global	_INTE
   159  005C                     _INTE	set	92
   160                           	global	_INTF
   161  0059                     _INTF	set	89
   162                           	global	_PEIE
   163  005E                     _PEIE	set	94
   164                           	global	_RA0
   165  0028                     _RA0	set	40
   166                           	global	_RA1
   167  0029                     _RA1	set	41
   168                           	global	_RA2
   169  002A                     _RA2	set	42
   170                           	global	_RA3
   171  002B                     _RA3	set	43
   172                           	global	_RA4
   173  002C                     _RA4	set	44
   174                           	global	_RA5
   175  002D                     _RA5	set	45
   176                           	global	_RB4
   177  0034                     _RB4	set	52
   178                           	global	_RB5
   179  0035                     _RB5	set	53
   180                           	global	_RB6
   181  0036                     _RB6	set	54
   182                           	global	_RB7
   183  0037                     _RB7	set	55
   184                           	global	_RBIE
   185  005B                     _RBIE	set	91
   186                           	global	_RBIF
   187  0058                     _RBIF	set	88
   188                           	global	_RC0
   189  0038                     _RC0	set	56
   190                           	global	_RC3
   191  003B                     _RC3	set	59
   192                           	global	_RC4
   193  003C                     _RC4	set	60
   194                           	global	_RC5
   195  003D                     _RC5	set	61
   196                           	global	_RCIF
   197  0065                     _RCIF	set	101
   198                           	global	_RE0
   199  0048                     _RE0	set	72
   200                           	global	_RE1
   201  0049                     _RE1	set	73
   202                           	global	_RE2
   203  004A                     _RE2	set	74
   204                           	global	_T0IE
   205  005D                     _T0IE	set	93
   206                           	global	_T0IF
   207  005A                     _T0IF	set	90
   208                           	global	_TMR1IF
   209  0060                     _TMR1IF	set	96
   210                           	global	_TMR1ON
   211  0080                     _TMR1ON	set	128
   212                           	global	_TMR2IF
   213  0061                     _TMR2IF	set	97
   214                           	global	_TMR2ON
   215  0092                     _TMR2ON	set	146
   216                           	global	_ADCON1
   217  009F                     _ADCON1	set	159
   218                           	global	_OPTION_REG
   219  0081                     _OPTION_REG	set	129
   220                           	global	_PR2
   221  0092                     _PR2	set	146
   222                           	global	_SPBRG
   223  0099                     _SPBRG	set	153
   224                           	global	_TRISB
   225  0086                     _TRISB	set	134
   226                           	global	_TRISD
   227  0088                     _TRISD	set	136
   228                           	global	_TXSTA
   229  0098                     _TXSTA	set	152
   230                           	global	_RCIE
   231  0465                     _RCIE	set	1125
   232                           	global	_TMR1IE
   233  0460                     _TMR1IE	set	1120
   234                           	global	_TMR2IE
   235  0461                     _TMR2IE	set	1121
   236                           	global	_TRISA0
   237  0428                     _TRISA0	set	1064
   238                           	global	_TRISA1
   239  0429                     _TRISA1	set	1065
   240                           	global	_TRISA2
   241  042A                     _TRISA2	set	1066
   242                           	global	_TRISA3
   243  042B                     _TRISA3	set	1067
   244                           	global	_TRISA4
   245  042C                     _TRISA4	set	1068
   246                           	global	_TRISA5
   247  042D                     _TRISA5	set	1069
   248                           	global	_TRISB0
   249  0430                     _TRISB0	set	1072
   250                           	global	_TRISB1
   251  0431                     _TRISB1	set	1073
   252                           	global	_TRISB4
   253  0434                     _TRISB4	set	1076
   254                           	global	_TRISB5
   255  0435                     _TRISB5	set	1077
   256                           	global	_TRISB6
   257  0436                     _TRISB6	set	1078
   258                           	global	_TRISB7
   259  0437                     _TRISB7	set	1079
   260                           	global	_TRISC0
   261  0438                     _TRISC0	set	1080
   262                           	global	_TRISC1
   263  0439                     _TRISC1	set	1081
   264                           	global	_TRISC2
   265  043A                     _TRISC2	set	1082
   266                           	global	_TRISC3
   267  043B                     _TRISC3	set	1083
   268                           	global	_TRISC4
   269  043C                     _TRISC4	set	1084
   270                           	global	_TRISC5
   271  043D                     _TRISC5	set	1085
   272                           	global	_TRISC6
   273  043E                     _TRISC6	set	1086
   274                           	global	_TRISC7
   275  043F                     _TRISC7	set	1087
   276                           	global	_TRISE0
   277  0448                     _TRISE0	set	1096
   278                           	global	_TRISE1
   279  0449                     _TRISE1	set	1097
   280                           	global	_TRISE2
   281  044A                     _TRISE2	set	1098
   282                           	global	_TRMT
   283  04C1                     _TRMT	set	1217
   284                           	global	_nRBPU
   285  040F                     _nRBPU	set	1039
   286                           	global	_EEADR
   287  010D                     _EEADR	set	269
   288                           	global	_EEDATA
   289  010C                     _EEDATA	set	268
   290                           	global	_EECON1
   291  018C                     _EECON1	set	396
   292                           	global	_EECON2
   293  018D                     _EECON2	set	397
   294                           	global	_RD
   295  0C60                     _RD	set	3168
   296                           	global	_WR
   297  0C61                     _WR	set	3169
   298                           	global	_WREN
   299  0C62                     _WREN	set	3170
   300                           psect	strings,class=STRING,delta=2
   301                           global __pstrings
   302  01AE                     __pstrings:
   303                           ;	global	stringdir,stringtab,__stringbase
   304  01AE                     stringtab:
   305                           ;	String table - string pointers are 1 byte each
   306  01AE                     stringcode:stringdir:
      + 01AE                     stringdir:	
   307  01AE  3001               movlw high(stringdir)
   308  01AF  008A               movwf pclath
   309  01B0  0804               movf fsr,w
   310  01B1  0A84               incf fsr
   311  01B2  0782               	addwf pc
   312  01B3                     __stringbase:
   313  01B3  3400               	retlw	0
   314                           psect	strings
   315                           	
   316  01B4                     STR_1:	
   317  01B4  3425               	retlw	37	;'%'
   318  01B5  3463               	retlw	99	;'c'
   319  01B6  3400               	retlw	0
   320                           psect	strings
   321                           	file	"202121365038.as"
   322                           	line	#
   323                           psect cinit,class=CODE,delta=2
   324                           global start_initialization
   325  00FE                     start_initialization:
   326                           
   327                           psect	bitbssCOMMON,class=COMMON,bit,space=1
   328                           global __pbitbssCOMMON
   329  03C8                     __pbitbssCOMMON:
   330  03C8                     _RBIF_FLAG:
   331  03C8                            ds      1
   332                           
   333                           psect	bssCOMMON,class=COMMON,space=1
   334                           global __pbssCOMMON
   335  0075                     __pbssCOMMON:
   336  0075                     _bluetooth:
   337  0075                            ds      1
   338                           
   339  0076                     _recv_data:
   340  0076                            ds      1
   341                           
   342  0077                     _x:
   343  0077                            ds      1
   344                           
   345  0078                     _y:
   346  0078                            ds      1
   347                           
   348                           psect	bssBANK0,class=BANK0,space=1
   349                           global __pbssBANK0
   350  0020                     __pbssBANK0:
   351  0020                     _Counter_temp:
   352  0020                            ds      2
   353                           
   354  0022                     _Encoder_Counter:
   355  0022                            ds      2
   356                           
   357  0024                     _Kd:
   358  0024                            ds      2
   359                           
   360  0026                     _Timer0_Counter:
   361  0026                            ds      2
   362                           
   363  0028                     _dis:
   364  0028                            ds      2
   365                           
   366  002A                     _err_difference:
   367  002A                            ds      2
   368                           
   369  002C                     _last_err:
   370  002C                            ds      2
   371                           
   372  002E                     _turn_err:
   373  002E                            ds      2
   374                           
   375  0030                     _Bifurcate_Flag:
   376  0030                            ds      1
   377                           
   378  0031                     _Circle_Mode:
   379  0031                            ds      1
   380                           
   381  0032                     _IO_flag:
   382  0032                            ds      1
   383                           
   384  0033                     _Key_Val:
   385  0033                            ds      1
   386                           
   387  0034                     _Motor_Flag:
   388  0034                            ds      1
   389                           
   390  0035                     _Speed_left:
   391  0035                            ds      1
   392                           
   393  0036                     _Speed_measure1:
   394  0036                            ds      1
   395                           
   396  0037                     _Speed_measure2:
   397  0037                            ds      1
   398                           
   399  0038                     _Speed_right:
   400  0038                            ds      1
   401                           
   402  0039                     _Start_Find_flag:
   403  0039                            ds      1
   404                           
   405  003A                     _Stop_Flag:
   406  003A                            ds      1
   407                           
   408  003B                     _Trace_Byte:
   409  003B                            ds      1
   410                           
   411  003C                     _Turn_PWM:
   412  003C                            ds      1
   413                           
   414                           psect	dataBANK0,class=BANK0,space=1
   415                           global __pdataBANK0
   416  003D                     __pdataBANK0:
   417                           	file	"D:\6_pic_project\00_Design_Flow_Car\Driver\csb.c"
   418                           	line	9
   419  003D                     _table:
   420  003D                            ds      16
   421                           
   422                           psect	dataBANK0
   423                           	file	"D:\6_pic_project\00_Design_Flow_Car\Driver\pid.c"
   424                           	line	14
   425  004D                     _Kp:
   426  004D                            ds      3
   427                           
   428                           psect	dataBANK0
   429                           	file	"D:\6_pic_project\00_Design_Flow_Car\User\Car_demo\Car_demo.c"
   430                           	line	33
   431  0050                     _Speed_Velcolity:
   432  0050                            ds      1
   433                           
   434                           psect clrtext,class=CODE,delta=2
   435                           global clear_ram
   436                           ;	Called with FSR containing the base address, and
   437                           ;	W with the last address+1
   438  01C0                     clear_ram:
   439  01C0  0064               	clrwdt			;clear the watchdog before getting into this loop
   440  01C1                     clrloop:
   441  01C1  0180               	clrf	indf		;clear RAM location pointed to by FSR
   442  01C2  0A84               	incf	fsr,f		;increment pointer
   443  01C3  0604               	xorwf	fsr,w		;XOR with final address
   444  01C4  1903               	btfsc	status,2	;have we reached the end yet?
   445  01C5  3400               	retlw	0		;all done for this memory range, return
   446  01C6  0604               	xorwf	fsr,w		;XOR again to restore value
   447  01C7  29C1               	goto	clrloop		;do the next byte
   448                           
   449                           ; Clear objects allocated to BITCOMMON
   450                           psect cinit,class=CODE,delta=2
   451  00FE  01F9               	clrf	((__pbitbssCOMMON/8)+0)&07Fh
   452                           ; Clear objects allocated to COMMON
   453                           psect cinit,class=CODE,delta=2
   454  00FF  01F5               	clrf	((__pbssCOMMON)+0)&07Fh
   455  0100  01F6               	clrf	((__pbssCOMMON)+1)&07Fh
   456  0101  01F7               	clrf	((__pbssCOMMON)+2)&07Fh
   457  0102  01F8               	clrf	((__pbssCOMMON)+3)&07Fh
   458                           ; Clear objects allocated to BANK0
   459                           psect cinit,class=CODE,delta=2
   460  0103  1383               	bcf	status, 7	;select IRP bank0
   461  0104  3020               	movlw	low(__pbssBANK0)
   462  0105  0084               	movwf	fsr
   463  0106  303D               	movlw	low((__pbssBANK0)+01Dh)
   464  0107  120A  118A  21C0   	fcall	clear_ram
              120A  118A         
   465                           global btemp
   466                           psect inittext,class=CODE,delta=2
   467                           global init_fetch,btemp
   468                           ;	Called with low address in FSR and high address in W
   469  0171                     init_fetch:
   470  0171  087E               	movf btemp,w
   471  0172  008A               	movwf pclath
   472  0173  087F               	movf btemp+1,w
   473  0174  0082               	movwf pc
   474                           global init_ram
   475                           ;Called with:
   476                           ;	high address of idata address in btemp 
   477                           ;	low address of idata address in btemp+1 
   478                           ;	low address of data in FSR
   479                           ;	high address + 1 of data in btemp-1
   480  0175                     init_ram:
   481  0175  120A  118A  2171   	fcall init_fetch
              120A  118A         
   482  017A  0080               	movwf indf,f
   483  017B  0A84               	incf fsr,f
   484  017C  0804               	movf fsr,w
   485  017D  067D               	xorwf btemp-1,w
   486  017E  1903               	btfsc status,2
   487  017F  3400               	retlw 0
   488  0180  0AFF               	incf btemp+1,f
   489  0181  1903               	btfsc status,2
   490  0182  0AFE               	incf btemp,f
   491  0183  2975               	goto init_ram
   492                           ; Initialize objects allocated to BANK0
   493                           psect cinit,class=CODE,delta=2
   494                           global init_ram, __pidataBANK0
   495  010C  3051               	movlw low(__pdataBANK0+20)
   496  010D  00FD               	movwf btemp-1,f
   497  010E  3001               	movlw high(__pidataBANK0)
   498  010F  00FE               	movwf btemp,f
   499  0110  3049               	movlw low(__pidataBANK0)
   500  0111  00FF               	movwf btemp+1,f
   501  0112  303D               	movlw low(__pdataBANK0)
   502  0113  0084               	movwf fsr,f
   503  0114  120A  118A  2175   	fcall init_ram
              120A  118A         
   504                           psect cinit,class=CODE,delta=2
   505                           global end_of_initialization
   506                           
   507                           ;End of C runtime variable initialization code
   508                           
   509  0119                     end_of_initialization:
   510  0119  0183               clrf status
   511  011A  120A  118A  2875   ljmp _main	;jump to C main() function
   512                           psect	cstackCOMMON,class=COMMON,space=1
   513                           global __pcstackCOMMON
   514  0070                     __pcstackCOMMON:
   515                           	global	?_Motor_GPIO_Init
   516  0070                     ?_Motor_GPIO_Init:	; 0 bytes @ 0x0
   517                           	global	?_Motor_CCP_PWM_Init
   518  0070                     ?_Motor_CCP_PWM_Init:	; 0 bytes @ 0x0
   519                           	global	?_Usart_GPIO_Init
   520  0070                     ?_Usart_GPIO_Init:	; 0 bytes @ 0x0
   521                           	global	?_Usart_Init
   522  0070                     ?_Usart_Init:	; 0 bytes @ 0x0
   523                           	global	?_Encoder_Init
   524  0070                     ?_Encoder_Init:	; 0 bytes @ 0x0
   525                           	global	?_Trace_GPIO_Init
   526  0070                     ?_Trace_GPIO_Init:	; 0 bytes @ 0x0
   527                           	global	?_csb_init
   528  0070                     ?_csb_init:	; 0 bytes @ 0x0
   529                           	global	?_Service
   530  0070                     ?_Service:	; 0 bytes @ 0x0
   531                           	global	??_Service
   532  0070                     ??_Service:	; 0 bytes @ 0x0
   533                           	global	?_main
   534  0070                     ?_main:	; 0 bytes @ 0x0
   535  0070                     	ds	5
   536                           psect	cstackBANK0,class=BANK0,space=1
   537                           global __pcstackBANK0
   538  0051                     __pcstackBANK0:
   539                           	global	??_Motor_GPIO_Init
   540  0051                     ??_Motor_GPIO_Init:	; 0 bytes @ 0x0
   541                           	global	??_Motor_CCP_PWM_Init
   542  0051                     ??_Motor_CCP_PWM_Init:	; 0 bytes @ 0x0
   543                           	global	?_Motor_Speed_Set
   544  0051                     ?_Motor_Speed_Set:	; 0 bytes @ 0x0
   545                           	global	??_Usart_GPIO_Init
   546  0051                     ??_Usart_GPIO_Init:	; 0 bytes @ 0x0
   547                           	global	??_Usart_Init
   548  0051                     ??_Usart_Init:	; 0 bytes @ 0x0
   549                           	global	?_Delay_ms
   550  0051                     ?_Delay_ms:	; 0 bytes @ 0x0
   551                           	global	??_Encoder_Init
   552  0051                     ??_Encoder_Init:	; 0 bytes @ 0x0
   553                           	global	??_Trace_GPIO_Init
   554  0051                     ??_Trace_GPIO_Init:	; 0 bytes @ 0x0
   555                           	global	??_csb_init
   556  0051                     ??_csb_init:	; 0 bytes @ 0x0
   557                           	global	Motor_Speed_Set@Speed1
   558  0051                     Motor_Speed_Set@Speed1:	; 2 bytes @ 0x0
   559                           	global	Delay_ms@x
   560  0051                     Delay_ms@x:	; 2 bytes @ 0x0
   561  0051                     	ds	2
   562                           	global	??_Delay_ms
   563  0053                     ??_Delay_ms:	; 0 bytes @ 0x2
   564                           	global	Motor_Speed_Set@Speed2
   565  0053                     Motor_Speed_Set@Speed2:	; 2 bytes @ 0x2
   566  0053                     	ds	2
   567                           	global	??_Motor_Speed_Set
   568  0055                     ??_Motor_Speed_Set:	; 0 bytes @ 0x4
   569                           	global	??_main
   570  0055                     ??_main:	; 0 bytes @ 0x4
   571  0055                     	ds	4
   572 ;;Data sizes: Strings 3, constant 0, data 20, bss 33, persistent 0 stack 0
   573 ;;Auto spaces:   Size  Autos    Used
   574 ;; COMMON          14      5      10
   575 ;; BANK0           80      8      57
   576 ;; BANK1           80      0       0
   577 ;; BANK3           96      0       0
   578 ;; BANK2           96      0       0
   579                           
   580 ;;
   581 ;; Pointer list with targets:
   582                           
   583 ;; S10473$_cp	PTR const unsigned char  size(1) Largest target is 0
   584 ;;
   585 ;; _val._str._cp	PTR const unsigned char  size(1) Largest target is 0
   586 ;;
   587                           
   588                           
   589 ;;
   590 ;; Critical Paths under _main in COMMON
   591 ;;
   592 ;;   None.
   593 ;;
   594 ;; Critical Paths under _Service in COMMON
   595 ;;
   596 ;;   None.
   597 ;;
   598 ;; Critical Paths under _main in BANK0
   599 ;;
   600 ;;   _main->_Motor_Speed_Set
   601 ;;
   602 ;; Critical Paths under _Service in BANK0
   603 ;;
   604 ;;   None.
   605 ;;
   606 ;; Critical Paths under _main in BANK1
   607 ;;
   608 ;;   None.
   609 ;;
   610 ;; Critical Paths under _Service in BANK1
   611 ;;
   612 ;;   None.
   613 ;;
   614 ;; Critical Paths under _main in BANK3
   615 ;;
   616 ;;   None.
   617 ;;
   618 ;; Critical Paths under _Service in BANK3
   619 ;;
   620 ;;   None.
   621 ;;
   622 ;; Critical Paths under _main in BANK2
   623 ;;
   624 ;;   None.
   625 ;;
   626 ;; Critical Paths under _Service in BANK2
   627 ;;
   628 ;;   None.
   629                           
   630 ;;
   631 ;;Main: autosize = 0, tempsize = 4, incstack = 0, save=0
   632 ;;
   633                           
   634 ;;
   635 ;;Call Graph Tables:
   636 ;;
   637 ;; ---------------------------------------------------------------------------------
   638 ;; (Depth) Function   	        Calls       Base Space   Used Autos Params    Refs
   639 ;; ---------------------------------------------------------------------------------
   640 ;; (0) _main                                                 4     4      0     217
   641 ;;                                              4 BANK0      4     4      0
   642 ;;                    _Trace_GPIO_Init
   643 ;;                    _Usart_GPIO_Init
   644 ;;                         _Usart_Init
   645 ;;                    _Motor_GPIO_Init
   646 ;;                 _Motor_CCP_PWM_Init
   647 ;;                           _csb_init
   648 ;;                           _Delay_ms
   649 ;;                       _Encoder_Init
   650 ;;                    _Motor_Speed_Set
   651 ;; ---------------------------------------------------------------------------------
   652 ;; (1) _Delay_ms                                             2     0      2      31
   653 ;;                                              0 BANK0      2     0      2
   654 ;; ---------------------------------------------------------------------------------
   655 ;; (1) _csb_init                                             0     0      0       0
   656 ;; ---------------------------------------------------------------------------------
   657 ;; (1) _Trace_GPIO_Init                                      0     0      0       0
   658 ;; ---------------------------------------------------------------------------------
   659 ;; (1) _Encoder_Init                                         0     0      0       0
   660 ;; ---------------------------------------------------------------------------------
   661 ;; (1) _Usart_Init                                           0     0      0       0
   662 ;; ---------------------------------------------------------------------------------
   663 ;; (1) _Usart_GPIO_Init                                      0     0      0       0
   664 ;; ---------------------------------------------------------------------------------
   665 ;; (1) _Motor_Speed_Set                                      4     0      4     186
   666 ;;                                              0 BANK0      4     0      4
   667 ;; ---------------------------------------------------------------------------------
   668 ;; (1) _Motor_CCP_PWM_Init                                   0     0      0       0
   669 ;; ---------------------------------------------------------------------------------
   670 ;; (1) _Motor_GPIO_Init                                      0     0      0       0
   671 ;; ---------------------------------------------------------------------------------
   672 ;; Estimated maximum stack depth 1
   673 ;; ---------------------------------------------------------------------------------
   674 ;; (Depth) Function   	        Calls       Base Space   Used Autos Params    Refs
   675 ;; ---------------------------------------------------------------------------------
   676 ;; (2) _Service                                              5     5      0       0
   677 ;;                                              0 COMMON     5     5      0
   678 ;; ---------------------------------------------------------------------------------
   679 ;; Estimated maximum stack depth 2
   680 ;; ---------------------------------------------------------------------------------
   681                           
   682 ;; Call Graph Graphs:
   683                           
   684 ;; _main (ROOT)
   685 ;;   _Trace_GPIO_Init
   686 ;;   _Usart_GPIO_Init
   687 ;;   _Usart_Init
   688 ;;   _Motor_GPIO_Init
   689 ;;   _Motor_CCP_PWM_Init
   690 ;;   _csb_init
   691 ;;   _Delay_ms
   692 ;;   _Encoder_Init
   693 ;;   _Motor_Speed_Set
   694 ;;
   695 ;; _Service (ROOT)
   696 ;;
   697                           
   698 ;; Address spaces:
   699                           
   700 ;;Name               Size   Autos  Total    Cost      Usage
   701 ;;BANK3               60      0       0       9        0.0%
   702 ;;BITBANK3            60      0       0       8        0.0%
   703 ;;SFR3                 0      0       0       4        0.0%
   704 ;;BITSFR3              0      0       0       4        0.0%
   705 ;;BANK2               60      0       0      11        0.0%
   706 ;;BITBANK2            60      0       0      10        0.0%
   707 ;;SFR2                 0      0       0       5        0.0%
   708 ;;BITSFR2              0      0       0       5        0.0%
   709 ;;SFR1                 0      0       0       2        0.0%
   710 ;;BITSFR1              0      0       0       2        0.0%
   711 ;;BANK1               50      0       0       7        0.0%
   712 ;;BITBANK1            50      0       0       6        0.0%
   713 ;;CODE                 0      0       0       0        0.0%
   714 ;;DATA                 0      0      44      12        0.0%
   715 ;;ABS                  0      0      43       3        0.0%
   716 ;;NULL                 0      0       0       0        0.0%
   717 ;;STACK                0      0       1       2        0.0%
   718 ;;BANK0               50      8      39       5       71.3%
   719 ;;BITBANK0            50      0       0       4        0.0%
   720 ;;SFR0                 0      0       0       1        0.0%
   721 ;;BITSFR0              0      0       0       1        0.0%
   722 ;;COMMON               E      5       A       1       71.4%
   723 ;;BITCOMMON            E      0       1       0        7.1%
   724 ;;EEDATA             100      0       0       0        0.0%
   725                           
   726                           	global	_main
   727                           psect	maintext,global,class=CODE,delta=2
   728                           global __pmaintext
   729  0075                     __pmaintext:
   730                           
   731 ;; *************** function _main *****************
   732 ;; Defined at:
   733 ;;		line 107 in file "D:\6_pic_project\00_Design_Flow_Car\User\Car_demo\Car_demo.c"
   734 ;; Parameters:    Size  Location     Type
   735 ;;		None
   736 ;; Auto vars:     Size  Location     Type
   737 ;;		None
   738 ;; Return value:  Size  Location     Type
   739 ;;		None               void
   740 ;; Registers used:
   741 ;;		wreg, status,2, status,0, btemp+1, pclath, cstack
   742 ;; Tracked objects:
   743 ;;		On entry : 17F/0
   744 ;;		On exit  : 0/0
   745 ;;		Unchanged: 0/0
   746 ;; Data sizes:     COMMON   BANK0   BANK1   BANK3   BANK2
   747 ;;      Params:         0       0       0       0       0
   748 ;;      Locals:         0       0       0       0       0
   749 ;;      Temps:          0       4       0       0       0
   750 ;;      Totals:         0       4       0       0       0
   751 ;;Total ram usage:        4 bytes
   752 ;; Hardware stack levels required when called:    2
   753 ;; This function calls:
   754 ;;		_Trace_GPIO_Init
   755 ;;		_Usart_GPIO_Init
   756 ;;		_Usart_Init
   757 ;;		_Motor_GPIO_Init
   758 ;;		_Motor_CCP_PWM_Init
   759 ;;		_csb_init
   760 ;;		_Delay_ms
   761 ;;		_Encoder_Init
   762 ;;		_Motor_Speed_Set
   763 ;; This function is called by:
   764 ;;		Startup code after reset
   765 ;; This function uses a non-reentrant model
   766 ;;
   767                           psect	maintext
   768                           	file	"D:\6_pic_project\00_Design_Flow_Car\User\Car_demo\Car_demo.c"
   769                           	line	107
   770                           	global	__size_of_main
   771  004E                     	__size_of_main	equ	__end_of_main-_main
   772                           	
   773  0075                     _main:	
   774                           	opt	stack 6
   775                           ; Regs used in _main: [wreg+status,2+status,0+btemp+1+pclath+cstack]
   776                           	line	109
   777                           	
   778  0075                     l12059:	
   779                           ;Car_demo.c: 109: TRISB1=0;
   780  0075  1683               	bsf	status, 5	;RP0=1, select bank1
   781  0076  1303               	bcf	status, 6	;RP1=0, select bank1
   782  0077  1086               	bcf	(1073/8)^080h,(1073)&7
   783                           	line	110
   784                           ;Car_demo.c: 110: TRISA0=0;
   785  0078  1005               	bcf	(1064/8)^080h,(1064)&7
   786                           	line	111
   787                           ;Car_demo.c: 111: TRISA1=0;
   788  0079  1085               	bcf	(1065/8)^080h,(1065)&7
   789                           	line	112
   790                           	
   791  007A                     l12061:	
   792                           ;Car_demo.c: 112: Trace_GPIO_Init();
   793  007A  120A  118A  21A3   	fcall	_Trace_GPIO_Init
              120A  118A         
   794                           	line	114
   795                           ;Car_demo.c: 114: Usart_GPIO_Init();
   796  007F  120A  118A  21C8   	fcall	_Usart_GPIO_Init
              120A  118A         
   797                           	line	115
   798                           	
   799  0084                     l12063:	
   800                           ;Car_demo.c: 115: Usart_Init();
   801  0084  120A  118A  2184   	fcall	_Usart_Init
              120A  118A         
   802                           	line	117
   803                           	
   804  0089                     l12065:	
   805                           ;Car_demo.c: 117: Motor_GPIO_Init();
   806  0089  120A  118A  21B7   	fcall	_Motor_GPIO_Init
              120A  118A         
   807                           	line	118
   808                           ;Car_demo.c: 118: Motor_CCP_PWM_Init();
   809  008E  120A  118A  215D   	fcall	_Motor_CCP_PWM_Init
              120A  118A         
   810                           	line	119
   811                           ;Car_demo.c: 119: csb_init();
   812  0093  120A  118A  2134   	fcall	_csb_init
              120A  118A         
   813                           	line	120
   814                           ;Car_demo.c: 120: Delay_ms(5000);
   815  0098  3088               	movlw	low(01388h)
   816  0099  1283               	bcf	status, 5	;RP0=0, select bank0
   817  009A  1303               	bcf	status, 6	;RP1=0, select bank0
   818  009B  00D1               	movwf	(?_Delay_ms)
   819  009C  3013               	movlw	high(01388h)
   820  009D  00D2               	movwf	((?_Delay_ms))+1
   821  009E  120A  118A  211D   	fcall	_Delay_ms
              120A  118A         
   822                           	line	121
   823                           ;Car_demo.c: 121: Encoder_Init();
   824  00A3  120A  118A  2194   	fcall	_Encoder_Init
              120A  118A         
   825  00A8  28A9               	goto	l12067
   826                           	line	123
   827                           ;Car_demo.c: 123: while(1)
   828                           	
   829  00A9                     l8584:	
   830                           	line	125
   831                           	
   832  00A9                     l12067:	
   833                           ;Car_demo.c: 124: {
   834                           ;Car_demo.c: 125: Motor_Speed_Set(Speed_Velcolity,Speed_Velcolity);
   835  00A9  1283               	bcf	status, 5	;RP0=0, select bank0
   836  00AA  1303               	bcf	status, 6	;RP1=0, select bank0
   837  00AB  0850               	movf	(_Speed_Velcolity),w
   838  00AC  00D5               	movwf	(??_main+0)+0
   839  00AD  01D6               	clrf	(??_main+0)+0+1
   840  00AE  0855               	movf	0+(??_main+0)+0,w
   841  00AF  00D1               	movwf	(?_Motor_Speed_Set)
   842  00B0  0856               	movf	1+(??_main+0)+0,w
   843  00B1  00D2               	movwf	(?_Motor_Speed_Set+1)
   844  00B2  0850               	movf	(_Speed_Velcolity),w
   845  00B3  00D7               	movwf	(??_main+2)+0
   846  00B4  01D8               	clrf	(??_main+2)+0+1
   847  00B5  0857               	movf	0+(??_main+2)+0,w
   848  00B6  00D3               	movwf	0+(?_Motor_Speed_Set)+02h
   849  00B7  0858               	movf	1+(??_main+2)+0,w
   850  00B8  00D4               	movwf	1+(?_Motor_Speed_Set)+02h
   851  00B9  120A  118A  20C3   	fcall	_Motor_Speed_Set
              120A  118A         
   852  00BE  28A9               	goto	l12067
   853                           	line	228
   854                           	
   855  00BF                     l8585:	
   856                           	line	123
   857  00BF  28A9               	goto	l12067
   858                           	
   859  00C0                     l8586:	
   860                           	line	230
   861                           	
   862  00C0                     l8587:	
   863                           	global	start
   864  00C0  120A  118A  2812   	ljmp	start
   865                           	opt stack 0
   866                           GLOBAL	__end_of_main
   867  00C3                     	__end_of_main:
   868 ;; =============== function _main ends ============
   869                           
   870                           	signat	_main,88
   871                           	global	_Delay_ms
   872                           psect	text506,local,class=CODE,delta=2
   873                           global __ptext506
   874  011D                     __ptext506:
   875                           
   876 ;; *************** function _Delay_ms *****************
   877 ;; Defined at:
   878 ;;		line 4 in file "D:\6_pic_project\00_Design_Flow_Car\System\Delay.c"
   879 ;; Parameters:    Size  Location     Type
   880 ;;  x               2    0[BANK0 ] unsigned int 
   881 ;; Auto vars:     Size  Location     Type
   882 ;;		None
   883 ;; Return value:  Size  Location     Type
   884 ;;		None               void
   885 ;; Registers used:
   886 ;;		wreg
   887 ;; Tracked objects:
   888 ;;		On entry : 0/0
   889 ;;		On exit  : 0/0
   890 ;;		Unchanged: 0/0
   891 ;; Data sizes:     COMMON   BANK0   BANK1   BANK3   BANK2
   892 ;;      Params:         0       2       0       0       0
   893 ;;      Locals:         0       0       0       0       0
   894 ;;      Temps:          0       0       0       0       0
   895 ;;      Totals:         0       2       0       0       0
   896 ;;Total ram usage:        2 bytes
   897 ;; Hardware stack levels used:    1
   898 ;; Hardware stack levels required when called:    1
   899 ;; This function calls:
   900 ;;		Nothing
   901 ;; This function is called by:
   902 ;;		_main
   903 ;; This function uses a non-reentrant model
   904 ;;
   905                           psect	text506
   906                           	file	"D:\6_pic_project\00_Design_Flow_Car\System\Delay.c"
   907                           	line	4
   908                           	global	__size_of_Delay_ms
   909  0017                     	__size_of_Delay_ms	equ	__end_of_Delay_ms-_Delay_ms
   910                           	
   911  011D                     _Delay_ms:	
   912                           	opt	stack 6
   913                           ; Regs used in _Delay_ms: [wreg]
   914                           	line	5
   915                           	
   916  011D                     l12055:	
   917                           ;Delay.c: 5: while(x--)
   918  011D  2920               	goto	l12057
   919                           	
   920  011E                     l5015:	
   921                           	line	7
   922                           ;Delay.c: 6: {
   923                           ;Delay.c: 7: _nop();
   924  011E  0000               	nop
   925  011F  2920               	goto	l12057
   926                           	line	8
   927                           	
   928  0120                     l5014:	
   929                           	line	5
   930                           	
   931  0120                     l12057:	
   932  0120  3001               	movlw	low(01h)
   933  0121  1283               	bcf	status, 5	;RP0=0, select bank0
   934  0122  1303               	bcf	status, 6	;RP1=0, select bank0
   935  0123  02D1               	subwf	(Delay_ms@x),f
   936  0124  3000               	movlw	high(01h)
   937  0125  1C03               	skipc
   938  0126  03D2               	decf	(Delay_ms@x+1),f
   939  0127  02D2               	subwf	(Delay_ms@x+1),f
   940  0128  30FF               	movlw	high(0FFFFh)
   941  0129  0652               	xorwf	((Delay_ms@x+1)),w
   942  012A  1D03               	skipz
   943  012B  292E               	goto	u4635
   944  012C  30FF               	movlw	low(0FFFFh)
   945  012D  0651               	xorwf	((Delay_ms@x)),w
   946  012E                     u4635:
   947                           
   948  012E  1D03               	skipz
   949  012F  2931               	goto	u4631
   950  0130  2932               	goto	u4630
   951  0131                     u4631:
   952  0131  291E               	goto	l5015
   953  0132                     u4630:
   954  0132  2933               	goto	l5017
   955                           	
   956  0133                     l5016:	
   957                           	line	9
   958                           	
   959  0133                     l5017:	
   960  0133  0008               	return
   961                           	opt stack 0
   962                           GLOBAL	__end_of_Delay_ms
   963  0134                     	__end_of_Delay_ms:
   964 ;; =============== function _Delay_ms ends ============
   965                           
   966                           	signat	_Delay_ms,4216
   967                           	global	_csb_init
   968                           psect	text507,local,class=CODE,delta=2
   969                           global __ptext507
   970  0134                     __ptext507:
   971                           
   972 ;; *************** function _csb_init *****************
   973 ;; Defined at:
   974 ;;		line 22 in file "D:\6_pic_project\00_Design_Flow_Car\Driver\csb.c"
   975 ;; Parameters:    Size  Location     Type
   976 ;;		None
   977 ;; Auto vars:     Size  Location     Type
   978 ;;		None
   979 ;; Return value:  Size  Location     Type
   980 ;;		None               void
   981 ;; Registers used:
   982 ;;		wreg, status,2
   983 ;; Tracked objects:
   984 ;;		On entry : 0/0
   985 ;;		On exit  : 0/0
   986 ;;		Unchanged: 0/0
   987 ;; Data sizes:     COMMON   BANK0   BANK1   BANK3   BANK2
   988 ;;      Params:         0       0       0       0       0
   989 ;;      Locals:         0       0       0       0       0
   990 ;;      Temps:          0       0       0       0       0
   991 ;;      Totals:         0       0       0       0       0
   992 ;;Total ram usage:        0 bytes
   993 ;; Hardware stack levels used:    1
   994 ;; Hardware stack levels required when called:    1
   995 ;; This function calls:
   996 ;;		Nothing
   997 ;; This function is called by:
   998 ;;		_main
   999 ;; This function uses a non-reentrant model
  1000 ;;
  1001                           psect	text507
  1002                           	file	"D:\6_pic_project\00_Design_Flow_Car\Driver\csb.c"
  1003                           	line	22
  1004                           	global	__size_of_csb_init
  1005  0015                     	__size_of_csb_init	equ	__end_of_csb_init-_csb_init
  1006                           	
  1007  0134                     _csb_init:	
  1008                           	opt	stack 6
  1009                           ; Regs used in _csb_init: [wreg+status,2]
  1010                           	line	23
  1011                           	
  1012  0134                     l12037:	
  1013                           ;csb.c: 23: GIE=1;
  1014  0134  178B               	bsf	(95/8),(95)&7
  1015                           	line	24
  1016                           ;csb.c: 24: PEIE=1;
  1017  0135  170B               	bsf	(94/8),(94)&7
  1018                           	line	26
  1019                           ;csb.c: 26: TMR1IF=0;
  1020  0136  1283               	bcf	status, 5	;RP0=0, select bank0
  1021  0137  1303               	bcf	status, 6	;RP1=0, select bank0
  1022  0138  100C               	bcf	(96/8),(96)&7
  1023                           	line	28
  1024                           ;csb.c: 28: TRISA1=1;
  1025  0139  1683               	bsf	status, 5	;RP0=1, select bank1
  1026  013A  1303               	bcf	status, 6	;RP1=0, select bank1
  1027  013B  1485               	bsf	(1065/8)^080h,(1065)&7
  1028                           	line	29
  1029                           ;csb.c: 29: TRISA0=0;
  1030  013C  1005               	bcf	(1064/8)^080h,(1064)&7
  1031                           	line	30
  1032                           	
  1033  013D                     l12039:	
  1034                           ;csb.c: 30: ADCON1=7;TRISD=0;
  1035  013D  3007               	movlw	(07h)
  1036  013E  009F               	movwf	(159)^080h	;volatile
  1037                           	
  1038  013F                     l12041:	
  1039  013F  0188               	clrf	(136)^080h	;volatile
  1040                           	line	32
  1041                           	
  1042  0140                     l12043:	
  1043                           ;csb.c: 32: RA0 = 0;
  1044  0140  1283               	bcf	status, 5	;RP0=0, select bank0
  1045  0141  1303               	bcf	status, 6	;RP1=0, select bank0
  1046  0142  1005               	bcf	(40/8),(40)&7
  1047                           	line	33
  1048                           	
  1049  0143                     l12045:	
  1050                           ;csb.c: 33: RA1 = 1;
  1051  0143  1485               	bsf	(41/8),(41)&7
  1052                           	line	35
  1053                           	
  1054  0144                     l12047:	
  1055                           ;csb.c: 35: T1CON=0B00000000;
  1056  0144  0190               	clrf	(16)	;volatile
  1057                           	line	36
  1058                           	
  1059  0145                     l12049:	
  1060                           ;csb.c: 36: TMR1H=0x00;
  1061  0145  018F               	clrf	(15)	;volatile
  1062                           	line	37
  1063                           	
  1064  0146                     l12051:	
  1065                           ;csb.c: 37: TMR1L=0x00;
  1066  0146  018E               	clrf	(14)	;volatile
  1067                           	line	38
  1068                           	
  1069  0147                     l12053:	
  1070                           ;csb.c: 38: TMR1ON=0x00;
  1071  0147  1010               	bcf	(128/8),(128)&7
  1072                           	line	39
  1073                           	
  1074  0148                     l7813:	
  1075  0148  0008               	return
  1076                           	opt stack 0
  1077                           GLOBAL	__end_of_csb_init
  1078  0149                     	__end_of_csb_init:
  1079 ;; =============== function _csb_init ends ============
  1080                           
  1081                           	signat	_csb_init,88
  1082                           	global	_Trace_GPIO_Init
  1083                           psect	text508,local,class=CODE,delta=2
  1084                           global __ptext508
  1085  01A3                     __ptext508:
  1086                           
  1087 ;; *************** function _Trace_GPIO_Init *****************
  1088 ;; Defined at:
  1089 ;;		line 21 in file "D:\6_pic_project\00_Design_Flow_Car\Driver\pid.c"
  1090 ;; Parameters:    Size  Location     Type
  1091 ;;		None
  1092 ;; Auto vars:     Size  Location     Type
  1093 ;;		None
  1094 ;; Return value:  Size  Location     Type
  1095 ;;		None               void
  1096 ;; Registers used:
  1097 ;;		None
  1098 ;; Tracked objects:
  1099 ;;		On entry : 0/0
  1100 ;;		On exit  : 0/0
  1101 ;;		Unchanged: 0/0
  1102 ;; Data sizes:     COMMON   BANK0   BANK1   BANK3   BANK2
  1103 ;;      Params:         0       0       0       0       0
  1104 ;;      Locals:         0       0       0       0       0
  1105 ;;      Temps:          0       0       0       0       0
  1106 ;;      Totals:         0       0       0       0       0
  1107 ;;Total ram usage:        0 bytes
  1108 ;; Hardware stack levels used:    1
  1109 ;; Hardware stack levels required when called:    1
  1110 ;; This function calls:
  1111 ;;		Nothing
  1112 ;; This function is called by:
  1113 ;;		_main
  1114 ;; This function uses a non-reentrant model
  1115 ;;
  1116                           psect	text508
  1117                           	file	"D:\6_pic_project\00_Design_Flow_Car\Driver\pid.c"
  1118                           	line	21
  1119                           	global	__size_of_Trace_GPIO_Init
  1120  000B                     	__size_of_Trace_GPIO_Init	equ	__end_of_Trace_GPIO_Init-_Trace_GPIO_Init
  1121                           	
  1122  01A3                     _Trace_GPIO_Init:	
  1123                           	opt	stack 6
  1124                           ; Regs used in _Trace_GPIO_Init: []
  1125                           	line	22
  1126                           	
  1127  01A3                     l12035:	
  1128                           ;pid.c: 22: TRISE0=1;
  1129  01A3  1683               	bsf	status, 5	;RP0=1, select bank1
  1130  01A4  1303               	bcf	status, 6	;RP1=0, select bank1
  1131  01A5  1409               	bsf	(1096/8)^080h,(1096)&7
  1132                           	line	23
  1133                           ;pid.c: 23: TRISE1=1;
  1134  01A6  1489               	bsf	(1097/8)^080h,(1097)&7
  1135                           	line	24
  1136                           ;pid.c: 24: TRISE2=1;
  1137  01A7  1509               	bsf	(1098/8)^080h,(1098)&7
  1138                           	line	25
  1139                           ;pid.c: 25: TRISA4=1;
  1140  01A8  1605               	bsf	(1068/8)^080h,(1068)&7
  1141                           	line	26
  1142                           ;pid.c: 26: TRISC0=1;
  1143  01A9  1407               	bsf	(1080/8)^080h,(1080)&7
  1144                           	line	27
  1145                           ;pid.c: 27: TRISC3=1;
  1146  01AA  1587               	bsf	(1083/8)^080h,(1083)&7
  1147                           	line	28
  1148                           ;pid.c: 28: TRISC4=1;
  1149  01AB  1607               	bsf	(1084/8)^080h,(1084)&7
  1150                           	line	29
  1151                           ;pid.c: 29: TRISC5=1;
  1152  01AC  1687               	bsf	(1085/8)^080h,(1085)&7
  1153                           	line	30
  1154                           	
  1155  01AD                     l7096:	
  1156  01AD  0008               	return
  1157                           	opt stack 0
  1158                           GLOBAL	__end_of_Trace_GPIO_Init
  1159  01AE                     	__end_of_Trace_GPIO_Init:
  1160 ;; =============== function _Trace_GPIO_Init ends ============
  1161                           
  1162                           	signat	_Trace_GPIO_Init,88
  1163                           	global	_Encoder_Init
  1164                           psect	text509,local,class=CODE,delta=2
  1165                           global __ptext509
  1166  0194                     __ptext509:
  1167                           
  1168 ;; *************** function _Encoder_Init *****************
  1169 ;; Defined at:
  1170 ;;		line 4 in file "D:\6_pic_project\00_Design_Flow_Car\Driver\Encoder.c"
  1171 ;; Parameters:    Size  Location     Type
  1172 ;;		None
  1173 ;; Auto vars:     Size  Location     Type
  1174 ;;		None
  1175 ;; Return value:  Size  Location     Type
  1176 ;;		None               void
  1177 ;; Registers used:
  1178 ;;		wreg
  1179 ;; Tracked objects:
  1180 ;;		On entry : 0/0
  1181 ;;		On exit  : 0/0
  1182 ;;		Unchanged: 0/0
  1183 ;; Data sizes:     COMMON   BANK0   BANK1   BANK3   BANK2
  1184 ;;      Params:         0       0       0       0       0
  1185 ;;      Locals:         0       0       0       0       0
  1186 ;;      Temps:          0       0       0       0       0
  1187 ;;      Totals:         0       0       0       0       0
  1188 ;;Total ram usage:        0 bytes
  1189 ;; Hardware stack levels used:    1
  1190 ;; Hardware stack levels required when called:    1
  1191 ;; This function calls:
  1192 ;;		Nothing
  1193 ;; This function is called by:
  1194 ;;		_main
  1195 ;; This function uses a non-reentrant model
  1196 ;;
  1197                           psect	text509
  1198                           	file	"D:\6_pic_project\00_Design_Flow_Car\Driver\Encoder.c"
  1199                           	line	4
  1200                           	global	__size_of_Encoder_Init
  1201  000F                     	__size_of_Encoder_Init	equ	__end_of_Encoder_Init-_Encoder_Init
  1202                           	
  1203  0194                     _Encoder_Init:	
  1204                           	opt	stack 6
  1205                           ; Regs used in _Encoder_Init: [wreg]
  1206                           	line	5
  1207                           	
  1208  0194                     l12027:	
  1209                           ;Encoder.c: 5: TRISB0=1;
  1210  0194  1683               	bsf	status, 5	;RP0=1, select bank1
  1211  0195  1303               	bcf	status, 6	;RP1=0, select bank1
  1212  0196  1406               	bsf	(1072/8)^080h,(1072)&7
  1213                           	line	8
  1214                           ;Encoder.c: 8: GIE=1;
  1215  0197  178B               	bsf	(95/8),(95)&7
  1216                           	line	9
  1217                           ;Encoder.c: 9: INTE=1;
  1218  0198  160B               	bsf	(92/8),(92)&7
  1219                           	line	10
  1220                           ;Encoder.c: 10: INTF=0;
  1221  0199  108B               	bcf	(89/8),(89)&7
  1222                           	line	12
  1223                           	
  1224  019A                     l12029:	
  1225                           ;Encoder.c: 12: OPTION_REG=0B01000111;
  1226  019A  3047               	movlw	(047h)
  1227  019B  0081               	movwf	(129)^080h	;volatile
  1228                           	line	15
  1229                           	
  1230  019C                     l12031:	
  1231                           ;Encoder.c: 15: T0IE=1;
  1232  019C  168B               	bsf	(93/8),(93)&7
  1233                           	line	16
  1234                           	
  1235  019D                     l12033:	
  1236                           ;Encoder.c: 16: T0IF=0;
  1237  019D  110B               	bcf	(90/8),(90)&7
  1238                           	line	17
  1239                           ;Encoder.c: 17: TMR0=60;
  1240  019E  303C               	movlw	(03Ch)
  1241  019F  1283               	bcf	status, 5	;RP0=0, select bank0
  1242  01A0  1303               	bcf	status, 6	;RP1=0, select bank0
  1243  01A1  0081               	movwf	(1)	;volatile
  1244                           	line	18
  1245                           	
  1246  01A2                     l6399:	
  1247  01A2  0008               	return
  1248                           	opt stack 0
  1249                           GLOBAL	__end_of_Encoder_Init
  1250  01A3                     	__end_of_Encoder_Init:
  1251 ;; =============== function _Encoder_Init ends ============
  1252                           
  1253                           	signat	_Encoder_Init,88
  1254                           	global	_Usart_Init
  1255                           psect	text510,local,class=CODE,delta=2
  1256                           global __ptext510
  1257  0184                     __ptext510:
  1258                           
  1259 ;; *************** function _Usart_Init *****************
  1260 ;; Defined at:
  1261 ;;		line 48 in file "D:\6_pic_project\00_Design_Flow_Car\Driver\Usart.c"
  1262 ;; Parameters:    Size  Location     Type
  1263 ;;		None
  1264 ;; Auto vars:     Size  Location     Type
  1265 ;;		None
  1266 ;; Return value:  Size  Location     Type
  1267 ;;		None               void
  1268 ;; Registers used:
  1269 ;;		wreg
  1270 ;; Tracked objects:
  1271 ;;		On entry : 0/0
  1272 ;;		On exit  : 0/0
  1273 ;;		Unchanged: 0/0
  1274 ;; Data sizes:     COMMON   BANK0   BANK1   BANK3   BANK2
  1275 ;;      Params:         0       0       0       0       0
  1276 ;;      Locals:         0       0       0       0       0
  1277 ;;      Temps:          0       0       0       0       0
  1278 ;;      Totals:         0       0       0       0       0
  1279 ;;Total ram usage:        0 bytes
  1280 ;; Hardware stack levels used:    1
  1281 ;; Hardware stack levels required when called:    1
  1282 ;; This function calls:
  1283 ;;		Nothing
  1284 ;; This function is called by:
  1285 ;;		_main
  1286 ;; This function uses a non-reentrant model
  1287 ;;
  1288                           psect	text510
  1289                           	file	"D:\6_pic_project\00_Design_Flow_Car\Driver\Usart.c"
  1290                           	line	48
  1291                           	global	__size_of_Usart_Init
  1292  0010                     	__size_of_Usart_Init	equ	__end_of_Usart_Init-_Usart_Init
  1293                           	
  1294  0184                     _Usart_Init:	
  1295                           	opt	stack 6
  1296                           ; Regs used in _Usart_Init: [wreg]
  1297                           	line	49
  1298                           	
  1299  0184                     l12019:	
  1300                           ;Usart.c: 49: TXSTA=0B00100100;
  1301  0184  3024               	movlw	(024h)
  1302  0185  1683               	bsf	status, 5	;RP0=1, select bank1
  1303  0186  1303               	bcf	status, 6	;RP1=0, select bank1
  1304  0187  0098               	movwf	(152)^080h	;volatile
  1305                           	line	50
  1306                           ;Usart.c: 50: RCSTA=0B10010000;
  1307  0188  3090               	movlw	(090h)
  1308  0189  1283               	bcf	status, 5	;RP0=0, select bank0
  1309  018A  1303               	bcf	status, 6	;RP1=0, select bank0
  1310  018B  0098               	movwf	(24)	;volatile
  1311                           	line	51
  1312                           ;Usart.c: 51: SPBRG=12;
  1313  018C  300C               	movlw	(0Ch)
  1314  018D  1683               	bsf	status, 5	;RP0=1, select bank1
  1315  018E  1303               	bcf	status, 6	;RP1=0, select bank1
  1316  018F  0099               	movwf	(153)^080h	;volatile
  1317                           	line	52
  1318                           	
  1319  0190                     l12021:	
  1320                           ;Usart.c: 52: GIE=1;
  1321  0190  178B               	bsf	(95/8),(95)&7
  1322                           	line	53
  1323                           	
  1324  0191                     l12023:	
  1325                           ;Usart.c: 53: PEIE=1;
  1326  0191  170B               	bsf	(94/8),(94)&7
  1327                           	line	54
  1328                           	
  1329  0192                     l12025:	
  1330                           ;Usart.c: 54: RCIE=1;
  1331  0192  168C               	bsf	(1125/8)^080h,(1125)&7
  1332                           	line	55
  1333                           	
  1334  0193                     l4319:	
  1335  0193  0008               	return
  1336                           	opt stack 0
  1337                           GLOBAL	__end_of_Usart_Init
  1338  0194                     	__end_of_Usart_Init:
  1339 ;; =============== function _Usart_Init ends ============
  1340                           
  1341                           	signat	_Usart_Init,88
  1342                           	global	_Usart_GPIO_Init
  1343                           psect	text511,local,class=CODE,delta=2
  1344                           global __ptext511
  1345  01C8                     __ptext511:
  1346                           
  1347 ;; *************** function _Usart_GPIO_Init *****************
  1348 ;; Defined at:
  1349 ;;		line 37 in file "D:\6_pic_project\00_Design_Flow_Car\Driver\Usart.c"
  1350 ;; Parameters:    Size  Location     Type
  1351 ;;		None
  1352 ;; Auto vars:     Size  Location     Type
  1353 ;;		None
  1354 ;; Return value:  Size  Location     Type
  1355 ;;		None               void
  1356 ;; Registers used:
  1357 ;;		None
  1358 ;; Tracked objects:
  1359 ;;		On entry : 0/0
  1360 ;;		On exit  : 0/0
  1361 ;;		Unchanged: 0/0
  1362 ;; Data sizes:     COMMON   BANK0   BANK1   BANK3   BANK2
  1363 ;;      Params:         0       0       0       0       0
  1364 ;;      Locals:         0       0       0       0       0
  1365 ;;      Temps:          0       0       0       0       0
  1366 ;;      Totals:         0       0       0       0       0
  1367 ;;Total ram usage:        0 bytes
  1368 ;; Hardware stack levels used:    1
  1369 ;; Hardware stack levels required when called:    1
  1370 ;; This function calls:
  1371 ;;		Nothing
  1372 ;; This function is called by:
  1373 ;;		_main
  1374 ;; This function uses a non-reentrant model
  1375 ;;
  1376                           psect	text511
  1377                           	file	"D:\6_pic_project\00_Design_Flow_Car\Driver\Usart.c"
  1378                           	line	37
  1379                           	global	__size_of_Usart_GPIO_Init
  1380  0005                     	__size_of_Usart_GPIO_Init	equ	__end_of_Usart_GPIO_Init-_Usart_GPIO_Init
  1381                           	
  1382  01C8                     _Usart_GPIO_Init:	
  1383                           	opt	stack 6
  1384                           ; Regs used in _Usart_GPIO_Init: []
  1385                           	line	38
  1386                           	
  1387  01C8                     l12017:	
  1388                           ;Usart.c: 38: TRISC6=1;
  1389  01C8  1683               	bsf	status, 5	;RP0=1, select bank1
  1390  01C9  1303               	bcf	status, 6	;RP1=0, select bank1
  1391  01CA  1707               	bsf	(1086/8)^080h,(1086)&7
  1392                           	line	39
  1393                           ;Usart.c: 39: TRISC7=1;
  1394  01CB  1787               	bsf	(1087/8)^080h,(1087)&7
  1395                           	line	40
  1396                           	
  1397  01CC                     l4316:	
  1398  01CC  0008               	return
  1399                           	opt stack 0
  1400                           GLOBAL	__end_of_Usart_GPIO_Init
  1401  01CD                     	__end_of_Usart_GPIO_Init:
  1402 ;; =============== function _Usart_GPIO_Init ends ============
  1403                           
  1404                           	signat	_Usart_GPIO_Init,88
  1405                           	global	_Motor_Speed_Set
  1406                           psect	text512,local,class=CODE,delta=2
  1407                           global __ptext512
  1408  00C3                     __ptext512:
  1409                           
  1410 ;; *************** function _Motor_Speed_Set *****************
  1411 ;; Defined at:
  1412 ;;		line 60 in file "D:\6_pic_project\00_Design_Flow_Car\Driver\Motor.c"
  1413 ;; Parameters:    Size  Location     Type
  1414 ;;  Speed1          2    0[BANK0 ] int 
  1415 ;;  Speed2          2    2[BANK0 ] int 
  1416 ;; Auto vars:     Size  Location     Type
  1417 ;;		None
  1418 ;; Return value:  Size  Location     Type
  1419 ;;		None               void
  1420 ;; Registers used:
  1421 ;;		wreg, status,2, status,0, btemp+1
  1422 ;; Tracked objects:
  1423 ;;		On entry : 0/0
  1424 ;;		On exit  : 0/0
  1425 ;;		Unchanged: 0/0
  1426 ;; Data sizes:     COMMON   BANK0   BANK1   BANK3   BANK2
  1427 ;;      Params:         0       4       0       0       0
  1428 ;;      Locals:         0       0       0       0       0
  1429 ;;      Temps:          0       0       0       0       0
  1430 ;;      Totals:         0       4       0       0       0
  1431 ;;Total ram usage:        4 bytes
  1432 ;; Hardware stack levels used:    1
  1433 ;; Hardware stack levels required when called:    1
  1434 ;; This function calls:
  1435 ;;		Nothing
  1436 ;; This function is called by:
  1437 ;;		_main
  1438 ;; This function uses a non-reentrant model
  1439 ;;
  1440                           psect	text512
  1441                           	file	"D:\6_pic_project\00_Design_Flow_Car\Driver\Motor.c"
  1442                           	line	60
  1443                           	global	__size_of_Motor_Speed_Set
  1444  003B                     	__size_of_Motor_Speed_Set	equ	__end_of_Motor_Speed_Set-_Motor_Speed_Set
  1445                           	
  1446  00C3                     _Motor_Speed_Set:	
  1447                           	opt	stack 6
  1448                           ; Regs used in _Motor_Speed_Set: [wreg+status,2+status,0+btemp+1]
  1449                           	line	61
  1450                           	
  1451  00C3                     l12001:	
  1452                           ;Motor.c: 61: if(Speed1 > 0 )
  1453  00C3  1283               	bcf	status, 5	;RP0=0, select bank0
  1454  00C4  1303               	bcf	status, 6	;RP1=0, select bank0
  1455  00C5  0852               	movf	(Motor_Speed_Set@Speed1+1),w
  1456  00C6  3A80               	xorlw	80h
  1457  00C7  00FF               	movwf	btemp+1
  1458  00C8  3080               	movlw	(high(01h))^80h
  1459  00C9  027F               	subwf	btemp+1,w
  1460  00CA  1D03               	skipz
  1461  00CB  28CE               	goto	u4615
  1462  00CC  3001               	movlw	low(01h)
  1463  00CD  0251               	subwf	(Motor_Speed_Set@Speed1),w
  1464  00CE                     u4615:
  1465                           
  1466  00CE  1C03               	skipc
  1467  00CF  28D1               	goto	u4611
  1468  00D0  28D2               	goto	u4610
  1469  00D1                     u4611:
  1470  00D1  28D9               	goto	l3608
  1471  00D2                     u4610:
  1472                           	line	63
  1473                           	
  1474  00D2                     l12003:	
  1475                           ;Motor.c: 62: {
  1476                           ;Motor.c: 63: RB4 = 1;
  1477  00D2  1283               	bcf	status, 5	;RP0=0, select bank0
  1478  00D3  1303               	bcf	status, 6	;RP1=0, select bank0
  1479  00D4  1606               	bsf	(52/8),(52)&7
  1480                           	line	64
  1481                           ;Motor.c: 64: RB5 = 0;
  1482  00D5  1286               	bcf	(53/8),(53)&7
  1483                           	line	65
  1484                           	
  1485  00D6                     l12005:	
  1486                           ;Motor.c: 65: CCPR1L=(unsigned char)Speed1;
  1487  00D6  0851               	movf	(Motor_Speed_Set@Speed1),w
  1488  00D7  0095               	movwf	(21)	;volatile
  1489                           	line	66
  1490                           ;Motor.c: 66: }
  1491  00D8  28E1               	goto	l12009
  1492                           	line	67
  1493                           	
  1494  00D9                     l3608:	
  1495                           	line	69
  1496                           ;Motor.c: 67: else
  1497                           ;Motor.c: 68: {
  1498                           ;Motor.c: 69: RB4 = 0;
  1499  00D9  1283               	bcf	status, 5	;RP0=0, select bank0
  1500  00DA  1303               	bcf	status, 6	;RP1=0, select bank0
  1501  00DB  1206               	bcf	(52/8),(52)&7
  1502                           	line	70
  1503                           ;Motor.c: 70: RB5 = 1;
  1504  00DC  1686               	bsf	(53/8),(53)&7
  1505                           	line	71
  1506                           	
  1507  00DD                     l12007:	
  1508                           ;Motor.c: 71: CCPR1L=(unsigned char)(-Speed1);
  1509  00DD  0351               	decf	(Motor_Speed_Set@Speed1),w
  1510  00DE  3AFF               	xorlw	0ffh
  1511  00DF  0095               	movwf	(21)	;volatile
  1512  00E0  28E1               	goto	l12009
  1513                           	line	72
  1514                           	
  1515  00E1                     l3609:	
  1516                           	line	74
  1517                           	
  1518  00E1                     l12009:	
  1519                           ;Motor.c: 72: }
  1520                           ;Motor.c: 74: if(Speed2 >0 )
  1521  00E1  0854               	movf	(Motor_Speed_Set@Speed2+1),w
  1522  00E2  3A80               	xorlw	80h
  1523  00E3  00FF               	movwf	btemp+1
  1524  00E4  3080               	movlw	(high(01h))^80h
  1525  00E5  027F               	subwf	btemp+1,w
  1526  00E6  1D03               	skipz
  1527  00E7  28EA               	goto	u4625
  1528  00E8  3001               	movlw	low(01h)
  1529  00E9  0253               	subwf	(Motor_Speed_Set@Speed2),w
  1530  00EA                     u4625:
  1531                           
  1532  00EA  1C03               	skipc
  1533  00EB  28ED               	goto	u4621
  1534  00EC  28EE               	goto	u4620
  1535  00ED                     u4621:
  1536  00ED  28F5               	goto	l3610
  1537  00EE                     u4620:
  1538                           	line	76
  1539                           	
  1540  00EE                     l12011:	
  1541                           ;Motor.c: 75: {
  1542                           ;Motor.c: 76: RB6 = 1;
  1543  00EE  1283               	bcf	status, 5	;RP0=0, select bank0
  1544  00EF  1303               	bcf	status, 6	;RP1=0, select bank0
  1545  00F0  1706               	bsf	(54/8),(54)&7
  1546                           	line	77
  1547                           ;Motor.c: 77: RB7 = 0;
  1548  00F1  1386               	bcf	(55/8),(55)&7
  1549                           	line	78
  1550                           	
  1551  00F2                     l12013:	
  1552                           ;Motor.c: 78: CCPR2L=(unsigned char)Speed2;
  1553  00F2  0853               	movf	(Motor_Speed_Set@Speed2),w
  1554  00F3  009B               	movwf	(27)	;volatile
  1555                           	line	79
  1556                           ;Motor.c: 79: }
  1557  00F4  28FD               	goto	l3612
  1558                           	line	80
  1559                           	
  1560  00F5                     l3610:	
  1561                           	line	82
  1562                           ;Motor.c: 80: else
  1563                           ;Motor.c: 81: {
  1564                           ;Motor.c: 82: RB6 = 0;
  1565  00F5  1283               	bcf	status, 5	;RP0=0, select bank0
  1566  00F6  1303               	bcf	status, 6	;RP1=0, select bank0
  1567  00F7  1306               	bcf	(54/8),(54)&7
  1568                           	line	83
  1569                           ;Motor.c: 83: RB7 = 1;
  1570  00F8  1786               	bsf	(55/8),(55)&7
  1571                           	line	84
  1572                           	
  1573  00F9                     l12015:	
  1574                           ;Motor.c: 84: CCPR2L=(unsigned char)(-Speed2);
  1575  00F9  0353               	decf	(Motor_Speed_Set@Speed2),w
  1576  00FA  3AFF               	xorlw	0ffh
  1577  00FB  009B               	movwf	(27)	;volatile
  1578  00FC  28FD               	goto	l3612
  1579                           	line	85
  1580                           	
  1581  00FD                     l3611:	
  1582                           	line	86
  1583                           	
  1584  00FD                     l3612:	
  1585  00FD  0008               	return
  1586                           	opt stack 0
  1587                           GLOBAL	__end_of_Motor_Speed_Set
  1588  00FE                     	__end_of_Motor_Speed_Set:
  1589 ;; =============== function _Motor_Speed_Set ends ============
  1590                           
  1591                           	signat	_Motor_Speed_Set,8312
  1592                           	global	_Motor_CCP_PWM_Init
  1593                           psect	text513,local,class=CODE,delta=2
  1594                           global __ptext513
  1595  015D                     __ptext513:
  1596                           
  1597 ;; *************** function _Motor_CCP_PWM_Init *****************
  1598 ;; Defined at:
  1599 ;;		line 31 in file "D:\6_pic_project\00_Design_Flow_Car\Driver\Motor.c"
  1600 ;; Parameters:    Size  Location     Type
  1601 ;;		None
  1602 ;; Auto vars:     Size  Location     Type
  1603 ;;		None
  1604 ;; Return value:  Size  Location     Type
  1605 ;;		None               void
  1606 ;; Registers used:
  1607 ;;		wreg, status,2
  1608 ;; Tracked objects:
  1609 ;;		On entry : 0/0
  1610 ;;		On exit  : 0/0
  1611 ;;		Unchanged: 0/0
  1612 ;; Data sizes:     COMMON   BANK0   BANK1   BANK3   BANK2
  1613 ;;      Params:         0       0       0       0       0
  1614 ;;      Locals:         0       0       0       0       0
  1615 ;;      Temps:          0       0       0       0       0
  1616 ;;      Totals:         0       0       0       0       0
  1617 ;;Total ram usage:        0 bytes
  1618 ;; Hardware stack levels used:    1
  1619 ;; Hardware stack levels required when called:    1
  1620 ;; This function calls:
  1621 ;;		Nothing
  1622 ;; This function is called by:
  1623 ;;		_main
  1624 ;; This function uses a non-reentrant model
  1625 ;;
  1626                           psect	text513
  1627                           	file	"D:\6_pic_project\00_Design_Flow_Car\Driver\Motor.c"
  1628                           	line	31
  1629                           	global	__size_of_Motor_CCP_PWM_Init
  1630  0014                     	__size_of_Motor_CCP_PWM_Init	equ	__end_of_Motor_CCP_PWM_Init-_Motor_CCP_PWM_Init
  1631                           	
  1632  015D                     _Motor_CCP_PWM_Init:	
  1633                           	opt	stack 6
  1634                           ; Regs used in _Motor_CCP_PWM_Init: [wreg+status,2]
  1635                           	line	33
  1636                           	
  1637  015D                     l11993:	
  1638                           ;Motor.c: 33: CCP1CON=0X0C;
  1639  015D  300C               	movlw	(0Ch)
  1640  015E  1283               	bcf	status, 5	;RP0=0, select bank0
  1641  015F  1303               	bcf	status, 6	;RP1=0, select bank0
  1642  0160  0097               	movwf	(23)	;volatile
  1643                           	line	34
  1644                           ;Motor.c: 34: CCPR1L=50;
  1645  0161  3032               	movlw	(032h)
  1646  0162  0095               	movwf	(21)	;volatile
  1647                           	line	35
  1648                           ;Motor.c: 35: PR2=100;
  1649  0163  3064               	movlw	(064h)
  1650  0164  1683               	bsf	status, 5	;RP0=1, select bank1
  1651  0165  1303               	bcf	status, 6	;RP1=0, select bank1
  1652  0166  0092               	movwf	(146)^080h	;volatile
  1653                           	line	38
  1654                           ;Motor.c: 38: CCP2CON = 0x0c;
  1655  0167  300C               	movlw	(0Ch)
  1656  0168  1283               	bcf	status, 5	;RP0=0, select bank0
  1657  0169  1303               	bcf	status, 6	;RP1=0, select bank0
  1658  016A  009D               	movwf	(29)	;volatile
  1659                           	line	39
  1660                           ;Motor.c: 39: CCPR2L = 50;
  1661  016B  3032               	movlw	(032h)
  1662  016C  009B               	movwf	(27)	;volatile
  1663                           	line	42
  1664                           	
  1665  016D                     l11995:	
  1666                           ;Motor.c: 42: T2CON=0;
  1667  016D  0192               	clrf	(18)	;volatile
  1668                           	line	43
  1669                           	
  1670  016E                     l11997:	
  1671                           ;Motor.c: 43: TMR2=0;
  1672  016E  0191               	clrf	(17)	;volatile
  1673                           	line	44
  1674                           	
  1675  016F                     l11999:	
  1676                           ;Motor.c: 44: TMR2ON=1;
  1677  016F  1512               	bsf	(146/8),(146)&7
  1678                           	line	45
  1679                           	
  1680  0170                     l3602:	
  1681  0170  0008               	return
  1682                           	opt stack 0
  1683                           GLOBAL	__end_of_Motor_CCP_PWM_Init
  1684  0171                     	__end_of_Motor_CCP_PWM_Init:
  1685 ;; =============== function _Motor_CCP_PWM_Init ends ============
  1686                           
  1687                           	signat	_Motor_CCP_PWM_Init,88
  1688                           	global	_Motor_GPIO_Init
  1689                           psect	text514,local,class=CODE,delta=2
  1690                           global __ptext514
  1691  01B7                     __ptext514:
  1692                           
  1693 ;; *************** function _Motor_GPIO_Init *****************
  1694 ;; Defined at:
  1695 ;;		line 21 in file "D:\6_pic_project\00_Design_Flow_Car\Driver\Motor.c"
  1696 ;; Parameters:    Size  Location     Type
  1697 ;;		None
  1698 ;; Auto vars:     Size  Location     Type
  1699 ;;		None
  1700 ;; Return value:  Size  Location     Type
  1701 ;;		None               void
  1702 ;; Registers used:
  1703 ;;		None
  1704 ;; Tracked objects:
  1705 ;;		On entry : 0/0
  1706 ;;		On exit  : 0/0
  1707 ;;		Unchanged: 0/0
  1708 ;; Data sizes:     COMMON   BANK0   BANK1   BANK3   BANK2
  1709 ;;      Params:         0       0       0       0       0
  1710 ;;      Locals:         0       0       0       0       0
  1711 ;;      Temps:          0       0       0       0       0
  1712 ;;      Totals:         0       0       0       0       0
  1713 ;;Total ram usage:        0 bytes
  1714 ;; Hardware stack levels used:    1
  1715 ;; Hardware stack levels required when called:    1
  1716 ;; This function calls:
  1717 ;;		Nothing
  1718 ;; This function is called by:
  1719 ;;		_main
  1720 ;; This function uses a non-reentrant model
  1721 ;;
  1722                           psect	text514
  1723                           	file	"D:\6_pic_project\00_Design_Flow_Car\Driver\Motor.c"
  1724                           	line	21
  1725                           	global	__size_of_Motor_GPIO_Init
  1726  0009                     	__size_of_Motor_GPIO_Init	equ	__end_of_Motor_GPIO_Init-_Motor_GPIO_Init
  1727                           	
  1728  01B7                     _Motor_GPIO_Init:	
  1729                           	opt	stack 6
  1730                           ; Regs used in _Motor_GPIO_Init: []
  1731                           	line	22
  1732                           	
  1733  01B7                     l11991:	
  1734                           ;Motor.c: 22: TRISB4=0;
  1735  01B7  1683               	bsf	status, 5	;RP0=1, select bank1
  1736  01B8  1303               	bcf	status, 6	;RP1=0, select bank1
  1737  01B9  1206               	bcf	(1076/8)^080h,(1076)&7
  1738                           	line	23
  1739                           ;Motor.c: 23: TRISB5=0;
  1740  01BA  1286               	bcf	(1077/8)^080h,(1077)&7
  1741                           	line	24
  1742                           ;Motor.c: 24: TRISB6=0;
  1743  01BB  1306               	bcf	(1078/8)^080h,(1078)&7
  1744                           	line	25
  1745                           ;Motor.c: 25: TRISB7=0;
  1746  01BC  1386               	bcf	(1079/8)^080h,(1079)&7
  1747                           	line	26
  1748                           ;Motor.c: 26: TRISC1=0;
  1749  01BD  1087               	bcf	(1081/8)^080h,(1081)&7
  1750                           	line	27
  1751                           ;Motor.c: 27: TRISC2=0;
  1752  01BE  1107               	bcf	(1082/8)^080h,(1082)&7
  1753                           	line	28
  1754                           	
  1755  01BF                     l3599:	
  1756  01BF  0008               	return
  1757                           	opt stack 0
  1758                           GLOBAL	__end_of_Motor_GPIO_Init
  1759  01C0                     	__end_of_Motor_GPIO_Init:
  1760 ;; =============== function _Motor_GPIO_Init ends ============
  1761                           
  1762                           	signat	_Motor_GPIO_Init,88
  1763                           	global	_Service
  1764                           psect	text515,local,class=CODE,delta=2
  1765                           global __ptext515
  1766  0015                     __ptext515:
  1767                           
  1768 ;; *************** function _Service *****************
  1769 ;; Defined at:
  1770 ;;		line 57 in file "D:\6_pic_project\00_Design_Flow_Car\User\Car_demo\Car_demo.c"
  1771 ;; Parameters:    Size  Location     Type
  1772 ;;		None
  1773 ;; Auto vars:     Size  Location     Type
  1774 ;;		None
  1775 ;; Return value:  Size  Location     Type
  1776 ;;		None               void
  1777 ;; Registers used:
  1778 ;;		wreg
  1779 ;; Tracked objects:
  1780 ;;		On entry : 0/0
  1781 ;;		On exit  : 0/0
  1782 ;;		Unchanged: 0/0
  1783 ;; Data sizes:     COMMON   BANK0   BANK1   BANK3   BANK2
  1784 ;;      Params:         0       0       0       0       0
  1785 ;;      Locals:         0       0       0       0       0
  1786 ;;      Temps:          5       0       0       0       0
  1787 ;;      Totals:         5       0       0       0       0
  1788 ;;Total ram usage:        5 bytes
  1789 ;; Hardware stack levels used:    1
  1790 ;; This function calls:
  1791 ;;		Nothing
  1792 ;; This function is called by:
  1793 ;;		Interrupt level 1
  1794 ;; This function uses a non-reentrant model
  1795 ;;
  1796                           psect	text515
  1797                           	file	"D:\6_pic_project\00_Design_Flow_Car\User\Car_demo\Car_demo.c"
  1798                           	line	57
  1799                           	global	__size_of_Service
  1800  0060                     	__size_of_Service	equ	__end_of_Service-_Service
  1801                           	
  1802  0015                     _Service:	
  1803                           	opt	stack 6
  1804                           ; Regs used in _Service: [wreg]
  1805                           psect	intentry,class=CODE,delta=2
  1806                           global __pintentry
  1807  0004                     __pintentry:
  1808                           global interrupt_function
  1809  0004                     interrupt_function:
  1810                           	global saved_w
  1811  007E                     	saved_w	set	btemp+0
  1812  0004  00FE               	movwf	saved_w
  1813  0005  0E03               	swapf	status,w
  1814  0006  00F1               	movwf	(??_Service+1)
  1815  0007  0804               	movf	fsr0,w
  1816  0008  00F2               	movwf	(??_Service+2)
  1817  0009  080A               	movf	pclath,w
  1818  000A  00F3               	movwf	(??_Service+3)
  1819  000B  1283               	bcf	status, 5	;RP0=0, select bank0
  1820  000C  1303               	bcf	status, 6	;RP1=0, select bank0
  1821  000D  087F               	movf	btemp+1,w
  1822  000E  00F4               	movwf	(??_Service+4)
  1823  000F  120A  118A  2815   	ljmp	_Service
  1824                           psect	text515
  1825                           	line	59
  1826                           	
  1827  0015                     i1l11635:	
  1828                           ;Car_demo.c: 59: if(RCIF==1)
  1829  0015  1E8C               	btfss	(101/8),(101)&7
  1830  0016  2818               	goto	u372_21
  1831  0017  2819               	goto	u372_20
  1832  0018                     u372_21:
  1833  0018  2848               	goto	i1l8559
  1834  0019                     u372_20:
  1835                           	line	61
  1836                           	
  1837  0019                     i1l11637:	
  1838                           ;Car_demo.c: 60: {
  1839                           ;Car_demo.c: 61: bluetooth=RCREG;
  1840  0019  081A               	movf	(26),w	;volatile
  1841  001A  00F0               	movwf	(??_Service+0)+0
  1842  001B  0870               	movf	(??_Service+0)+0,w
  1843  001C  00F5               	movwf	(_bluetooth)
  1844                           	line	62
  1845                           ;Car_demo.c: 62: if(bluetooth == 1){Speed_Velcolity=10;}
  1846  001D  0875               	movf	(_bluetooth),w
  1847  001E  3A01               	xorlw	01h
  1848  001F  1D03               	skipz
  1849  0020  2822               	goto	u373_21
  1850  0021  2823               	goto	u373_20
  1851  0022                     u373_21:
  1852  0022  2827               	goto	i1l8560
  1853  0023                     u373_20:
  1854                           	
  1855  0023                     i1l11639:	
  1856  0023  300A               	movlw	(0Ah)
  1857  0024  00F0               	movwf	(??_Service+0)+0
  1858  0025  0870               	movf	(??_Service+0)+0,w
  1859  0026  00D0               	movwf	(_Speed_Velcolity)
  1860                           	
  1861  0027                     i1l8560:	
  1862                           	line	63
  1863                           ;Car_demo.c: 63: if(bluetooth == 2){Speed_Velcolity=40;}
  1864  0027  0875               	movf	(_bluetooth),w
  1865  0028  3A02               	xorlw	02h
  1866  0029  1D03               	skipz
  1867  002A  282C               	goto	u374_21
  1868  002B  282D               	goto	u374_20
  1869  002C                     u374_21:
  1870  002C  2831               	goto	i1l8561
  1871  002D                     u374_20:
  1872                           	
  1873  002D                     i1l11641:	
  1874  002D  3028               	movlw	(028h)
  1875  002E  00F0               	movwf	(??_Service+0)+0
  1876  002F  0870               	movf	(??_Service+0)+0,w
  1877  0030  00D0               	movwf	(_Speed_Velcolity)
  1878                           	
  1879  0031                     i1l8561:	
  1880                           	line	64
  1881                           ;Car_demo.c: 64: if(bluetooth == 3){Speed_Velcolity=70;}
  1882  0031  0875               	movf	(_bluetooth),w
  1883  0032  3A03               	xorlw	03h
  1884  0033  1D03               	skipz
  1885  0034  2836               	goto	u375_21
  1886  0035  2837               	goto	u375_20
  1887  0036                     u375_21:
  1888  0036  283B               	goto	i1l8562
  1889  0037                     u375_20:
  1890                           	
  1891  0037                     i1l11643:	
  1892  0037  3046               	movlw	(046h)
  1893  0038  00F0               	movwf	(??_Service+0)+0
  1894  0039  0870               	movf	(??_Service+0)+0,w
  1895  003A  00D0               	movwf	(_Speed_Velcolity)
  1896                           	
  1897  003B                     i1l8562:	
  1898                           	line	65
  1899                           ;Car_demo.c: 65: if(bluetooth == 4){Speed_Velcolity=100;}
  1900  003B  0875               	movf	(_bluetooth),w
  1901  003C  3A04               	xorlw	04h
  1902  003D  1D03               	skipz
  1903  003E  2840               	goto	u376_21
  1904  003F  2841               	goto	u376_20
  1905  0040                     u376_21:
  1906  0040  2846               	goto	i1l11647
  1907  0041                     u376_20:
  1908                           	
  1909  0041                     i1l11645:	
  1910  0041  3064               	movlw	(064h)
  1911  0042  00F0               	movwf	(??_Service+0)+0
  1912  0043  0870               	movf	(??_Service+0)+0,w
  1913  0044  00D0               	movwf	(_Speed_Velcolity)
  1914  0045  2846               	goto	i1l11647
  1915                           	
  1916  0046                     i1l8563:	
  1917                           	line	66
  1918                           	
  1919  0046                     i1l11647:	
  1920                           ;Car_demo.c: 66: RCIF=0;
  1921  0046  128C               	bcf	(101/8),(101)&7
  1922                           	line	67
  1923                           ;Car_demo.c: 67: }
  1924  0047  2869               	goto	i1l8564
  1925                           	line	68
  1926                           	
  1927  0048                     i1l8559:	
  1928                           ;Car_demo.c: 68: else if(T0IF==1)
  1929  0048  1D0B               	btfss	(90/8),(90)&7
  1930  0049  284B               	goto	u377_21
  1931  004A  284C               	goto	u377_20
  1932  004B                     u377_21:
  1933  004B  2850               	goto	i1l8565
  1934  004C                     u377_20:
  1935                           	line	70
  1936                           	
  1937  004C                     i1l11649:	
  1938                           ;Car_demo.c: 69: {
  1939                           ;Car_demo.c: 70: TMR0=60;
  1940  004C  303C               	movlw	(03Ch)
  1941  004D  0081               	movwf	(1)	;volatile
  1942                           	line	71
  1943                           	
  1944  004E                     i1l11651:	
  1945                           ;Car_demo.c: 71: T0IF=0;
  1946  004E  110B               	bcf	(90/8),(90)&7
  1947                           	line	72
  1948                           ;Car_demo.c: 72: }
  1949  004F  2869               	goto	i1l8564
  1950                           	line	73
  1951                           	
  1952  0050                     i1l8565:	
  1953                           ;Car_demo.c: 73: else if(INTF==1)
  1954  0050  1C8B               	btfss	(89/8),(89)&7
  1955  0051  2853               	goto	u378_21
  1956  0052  2854               	goto	u378_20
  1957  0053                     u378_21:
  1958  0053  2861               	goto	i1l8567
  1959  0054                     u378_20:
  1960                           	line	75
  1961                           	
  1962  0054                     i1l11653:	
  1963                           ;Car_demo.c: 74: {
  1964                           ;Car_demo.c: 75: if(Start_Find_flag)
  1965  0054  0839               	movf	(_Start_Find_flag),w
  1966  0055  1D03               	skipz
  1967  0056  2858               	goto	u379_20
  1968  0057  285F               	goto	i1l11657
  1969  0058                     u379_20:
  1970                           	line	77
  1971                           	
  1972  0058                     i1l11655:	
  1973                           ;Car_demo.c: 76: {
  1974                           ;Car_demo.c: 77: Encoder_Counter++;
  1975  0058  3001               	movlw	low(01h)
  1976  0059  07A2               	addwf	(_Encoder_Counter),f
  1977  005A  1803               	skipnc
  1978  005B  0AA3               	incf	(_Encoder_Counter+1),f
  1979  005C  3000               	movlw	high(01h)
  1980  005D  07A3               	addwf	(_Encoder_Counter+1),f
  1981  005E  285F               	goto	i1l11657
  1982                           	line	78
  1983                           	
  1984  005F                     i1l8568:	
  1985                           	line	79
  1986                           	
  1987  005F                     i1l11657:	
  1988                           ;Car_demo.c: 78: }
  1989                           ;Car_demo.c: 79: INTF=0;
  1990  005F  108B               	bcf	(89/8),(89)&7
  1991                           	line	80
  1992                           ;Car_demo.c: 80: }
  1993  0060  2869               	goto	i1l8564
  1994                           	line	81
  1995                           	
  1996  0061                     i1l8567:	
  1997                           ;Car_demo.c: 81: else if(RBIF == 1)
  1998  0061  1C0B               	btfss	(88/8),(88)&7
  1999  0062  2864               	goto	u380_21
  2000  0063  2865               	goto	u380_20
  2001  0064                     u380_21:
  2002  0064  2869               	goto	i1l8564
  2003  0065                     u380_20:
  2004                           	line	83
  2005                           	
  2006  0065                     i1l11659:	
  2007                           ;Car_demo.c: 82: {
  2008                           ;Car_demo.c: 83: RBIF=0;
  2009  0065  100B               	bcf	(88/8),(88)&7
  2010  0066  2869               	goto	i1l8564
  2011                           	line	84
  2012                           	
  2013  0067                     i1l8570:	
  2014  0067  2869               	goto	i1l8564
  2015                           	line	85
  2016                           	
  2017  0068                     i1l8569:	
  2018  0068  2869               	goto	i1l8564
  2019                           	
  2020  0069                     i1l8566:	
  2021                           	
  2022  0069                     i1l8564:	
  2023                           ;Car_demo.c: 84: }
  2024                           ;Car_demo.c: 85: TMR1IF=0;
  2025  0069  100C               	bcf	(96/8),(96)&7
  2026                           	line	86
  2027                           	
  2028  006A                     i1l8571:	
  2029  006A  0874               	movf	(??_Service+4),w
  2030  006B  00FF               	movwf	btemp+1
  2031  006C  0873               	movf	(??_Service+3),w
  2032  006D  008A               	movwf	pclath
  2033  006E  0872               	movf	(??_Service+2),w
  2034  006F  0084               	movwf	fsr0
  2035  0070  0E71               	swapf	(??_Service+1)^0FFFFFF80h,w
  2036  0071  0083               	movwf	status
  2037  0072  0EFE               	swapf	saved_w,f
  2038  0073  0E7E               	swapf	saved_w,w
  2039  0074  0009               	retfie
  2040                           	opt stack 0
  2041                           GLOBAL	__end_of_Service
  2042  0075                     	__end_of_Service:
  2043 ;; =============== function _Service ends ============
  2044                           
  2045                           	signat	_Service,88
  2046                           psect	text516,local,class=CODE,delta=2
  2047                           global __ptext516
  2048  0000                     __ptext516:
  2049                           	global	btemp
  2050  007E                     	btemp set 07Eh
  2051                           
  2052                           	DABS	1,126,2	;btemp
  2053                           	global	wtemp0
  2054  007E                     	wtemp0 set btemp


HI-TECH Software PICC Macro Assembler V9.82 build 9453 
Symbol Table                                                                                   Wed Jun 19 22:54:13 2024

    __end_of_Usart_GPIO_Init 01CD                            _x 0077                            _y 0078  
                          pc 0002                           _RD 0C60                           _Kd 0024  
                         _WR 0C61                           _Kp 004D                           fsr 0004  
                        _GIE 005F                          _RA0 0028                          _RA1 0029  
                        _RA2 002A                          _RA3 002B                          _RC0 0038  
                        _RA4 002C                          _RA5 002D                          _RB4 0034  
                        _RC3 003B                          _RB5 0035                          _RE0 0048  
                        _RC4 003C                          _RB6 0036                          _RE1 0049  
                        _RC5 003D                          _RB7 0037                          _RE2 004A  
                        _PR2 0092               _Bifurcate_Flag 0030                          _dis 0028  
                        fsr0 0004                          indf 0000                         l5014 0120  
                       l5015 011E                         l5016 0133                         l5017 0133  
                       l3602 0170                         l3610 00F5                         l3611 00FD  
                       l3612 00FD                         l4316 01CC                         l4319 0193  
                       l3608 00D9                         l3609 00E1                         l3599 01BF  
                       l7096 01AD                         l6399 01A2                         l7813 0148  
                       l8584 00A9                         l8585 00BF                         l8586 00C0  
                       l8587 00C0                         STR_1 01B4                         _T0IE 005D  
                       _T0IF 005A                         u4610 00D2                         u4611 00D1  
                       _PEIE 005E                         u4620 00EE                         u4621 00ED  
                       _INTE 005C                         u4630 0132                         _INTF 0059  
                       u4615 00CE                         u4631 0131                         _RBIE 005B  
                       _RBIF 0058                         u4625 00EA                         u4635 012E  
                       _RCIE 0465                         _RCIF 0065                         _TMR0 0001  
                       _TMR2 0011                         _TRMT 04C1                         _WREN 0C62  
                       _main 0075                         btemp 007E                         start 0012  
 __end_of_Motor_CCP_PWM_Init 0171              __end_of_Service 0075                        l12001 00C3  
                      l12011 00EE                        l12003 00D2                        l12013 00F2  
                      l12005 00D6                        l12021 0190                        l12015 00F9  
                      l12007 00DD                        l12023 0191                        l12031 019C  
                      l12009 00E1                        l12017 01C8                        l12025 0192  
                      l12033 019D                        l12041 013F                        l12019 0184  
                      l12027 0194                        l12035 01A3                        l12051 0146  
                      l12043 0140                        l12029 019A                        l12053 0147  
                      l12045 0143                        l12037 0134                        l12061 007A  
                      l12047 0144                        l12039 013D                        l12055 011D  
                      l12063 0084                        l12049 0145                        l12057 0120  
                      l12065 0089                        l12067 00A9                        l12059 0075  
                      l11991 01B7                        l11993 015D                        l11995 016D  
                      l11997 016E                        l11999 016F                        ?_main 0070  
          ??_Motor_GPIO_Init 0051                        _EEADR 010D                        _CARRY 0018  
                      _T1CON 0010                        _T2CON 0012                        _RCREG 001A  
                      _RCSTA 0018                        _TMR1H 000F                        _TMR1L 000E  
                      _SPBRG 0099                        _PORTB 0006                        _PORTD 0008  
                      _TRISB 0086                        _TRISD 0088                        _TXREG 0019  
                      _TXSTA 0098     __size_of_Motor_Speed_Set 003B                        _nRBPU 040F  
                      _table 003D               __pbitbssCOMMON 03C8                        pclath 000A  
      Motor_Speed_Set@Speed1 0051        Motor_Speed_Set@Speed2 0053                        status 0003  
                      wtemp0 007E             __end_of_Delay_ms 0134         __end_of_Encoder_Init 01A3  
               __end_of_main 00C3             ?_Usart_GPIO_Init 0070                  _Circle_Mode 0031  
                     ??_main 0055                       _ADCON1 009F               _Timer0_Counter 0026  
                     _EEDATA 010C                       _CCPR1L 0015                       _CCPR2L 001B  
                     _EECON1 018C                       _EECON2 018D                       i1l8560 0027  
                     i1l8561 0031                       i1l8570 0067                       i1l8562 003B  
                     i1l8571 006A                       i1l8563 0046                       i1l8564 0069  
                     i1l8565 0050                       i1l8566 0069                       i1l8567 0061  
                     i1l8559 0048                       i1l8568 005F                       i1l8569 0068  
                     u380_20 0065                       u372_20 0019                       u380_21 0064  
                     u372_21 0018                       u373_20 0023                       u373_21 0022  
                     u374_20 002D                       u374_21 002C                       u375_20 0037  
                     u375_21 0036                       u376_20 0041                       u376_21 0040  
                     u377_20 004C                       u377_21 004B                       u378_20 0054  
                     u378_21 0053                       u379_20 0058                       _TMR1IE 0460  
                     _TMR1IF 0060                       _TMR2IE 0461                       _TMR2IF 0061  
                     _TMR1ON 0080                       _TMR2ON 0092                       _TRISA0 0428  
                     _TRISA1 0429                       _TRISB0 0430                       _TRISA2 042A  
                     _TRISB1 0431                       _TRISA3 042B                       _TRISC0 0438  
                     _TRISA4 042C                       _TRISC1 0439                       _TRISA5 042D  
                     _TRISC2 043A                       _TRISB4 0434                       _TRISC3 043B  
                     _TRISB5 0435                       _TRISE0 0448                       _TRISC4 043C  
                     _TRISB6 0436                       _TRISE1 0449                       _TRISC5 043D  
                     _TRISB7 0437                       _TRISE2 044A                       _TRISC6 043E  
                     _TRISC7 043F             __end_of_csb_init 0149                   _Motor_Flag 0034  
                  ??_Service 0070                   _Speed_left 0035                   _Trace_Byte 003B  
                     clrloop 01C1                       saved_w 007E            ??_Motor_Speed_Set 0055  
                 _Usart_Init 0184               __pcstackCOMMON 0070                 __pidataBANK0 0149  
                  ?_Delay_ms 0051                   __pbssBANK0 0020        __size_of_Encoder_Init 000F  
             _err_difference 002A     __size_of_Trace_GPIO_Init 000B              _Motor_GPIO_Init 01B7  
                 __pmaintext 0075                   __pintentry 0004                      _CCP1CON 0017  
                    _CCP2CON 001D                      i1l11641 002D                      i1l11651 004E  
                    i1l11643 0037                      i1l11635 0015                      i1l11653 0054  
                    i1l11645 0041                      i1l11637 0019                      i1l11655 0058  
                    i1l11647 0046                      i1l11639 0023                      i1l11657 005F  
                    i1l11649 004C                      i1l11659 0065                   ??_Delay_ms 0053  
               _Encoder_Init 0194                    ?_csb_init 0070           _Motor_CCP_PWM_Init 015D  
                    _IO_flag 0032               _Speed_measure1 0036               _Speed_measure2 0037  
                ?_Usart_Init 0070          ?_Motor_CCP_PWM_Init 0070                      _Key_Val 0033  
                    _Service 0015         ??_Motor_CCP_PWM_Init 0051                  _Speed_right 0038  
                 ??_csb_init 0051         end_of_initialization 0119      __end_of_Motor_GPIO_Init 01C0  
                  _RBIF_FLAG 03C8                    Delay_ms@x 0051                      init_ram 0175  
          ??_Trace_GPIO_Init 0051          __size_of_Usart_Init 0010              _Motor_Speed_Set 00C3  
   __size_of_Usart_GPIO_Init 0005                 _Counter_temp 0020          start_initialization 00FE  
          __size_of_Delay_ms 0017             ?_Motor_GPIO_Init 0070              _Start_Find_flag 0039  
    __end_of_Motor_Speed_Set 00FE                  __pdataBANK0 003D                    _Stop_Flag 003A  
                __pbssCOMMON 0075                __pcstackBANK0 0051            ??_Usart_GPIO_Init 0051  
          __size_of_csb_init 0015                 ??_Usart_Init 0051              _Speed_Velcolity 0050  
                   ?_Service 0070                    __ptext510 0184                    __ptext511 01C8  
                  __ptext512 00C3                    __ptext513 015D                    __ptext514 01B7  
                  __ptext506 011D                    __ptext515 0015                    __ptext507 0134  
                  __ptext516 0000                    __ptext508 01A3                    __ptext509 0194  
                  __pstrings 01AE                    _bluetooth 0075           __end_of_Usart_Init 0194  
          interrupt_function 0004                    _recv_data 0076              _Trace_GPIO_Init 01A3  
           ?_Motor_Speed_Set 0051                  __stringbase 01B3  __size_of_Motor_CCP_PWM_Init 0014  
                   _Delay_ms 011D                    init_fetch 0171             __size_of_Service 0060  
                   _Turn_PWM 003C      __end_of_Trace_GPIO_Init 01AE                     _csb_init 0134  
                   _last_err 002C                __size_of_main 004E                     clear_ram 01C0  
                   _turn_err 002E              _Usart_GPIO_Init 01C8                ?_Encoder_Init 0070  
                   intlevel1 0000              _Encoder_Counter 0022                    stringcode 01AE  
   __size_of_Motor_GPIO_Init 0009                   _OPTION_REG 0081               ??_Encoder_Init 0051  
                   stringdir 01AE                     stringtab 01AE             ?_Trace_GPIO_Init 0070  
