

HI-TECH Software PIC LITE Macro Assembler V9.82 build 9453 
                                                                                               Thu Jun 20 11:41:38 2024

HI-TECH Software Omniscient Code Generator (Lite mode) build 9453
     1  0000                     opt subtitle "HI-TECH Software Omniscient Code Generator (Lite mode) build 9453"
     2                           
     3                           opt pagewidth 120
     4                           
     5                           	opt lm
     6                           
     7                           	processor	16F877A
     8                           clrc	macro
     9                           	bcf	3,0
    10  0000                     	endm
    11                           clrz	macro
    12                           	bcf	3,2
    13  0000                     	endm
    14                           setc	macro
    15                           	bsf	3,0
    16  0000                     	endm
    17                           setz	macro
    18                           	bsf	3,2
    19  0000                     	endm
    20                           skipc	macro
    21                           	btfss	3,0
    22  0000                     	endm
    23                           skipz	macro
    24                           	btfss	3,2
    25  0000                     	endm
    26                           skipnc	macro
    27                           	btfsc	3,0
    28  0000                     	endm
    29                           skipnz	macro
    30                           	btfsc	3,2
    31  0000                     	endm
    32  0000                     indf	equ	0
    33  0000                     indf0	equ	0
    34  0002                     pc	equ	2
    35  0002                     pcl	equ	2
    36  0003                     status	equ	3
    37  0004                     fsr	equ	4
    38  0004                     fsr0	equ	4
    39  0001                     c	equ	1
    40  0000                     z	equ	0
    41  000A                     pclath	equ	10
    42                           # 2 "D:\6_pic_project\00_Design_Flow_Car\User\Car_demo\Car_demo.c"
    43                           	psect config,class=CONFIG,delta=2 ;#
    44                           # 2 "D:\6_pic_project\00_Design_Flow_Car\User\Car_demo\Car_demo.c"
    45  2007  FF29               	dw 0xFF29 ;#
    46                           	FNCALL	_main,_Trace_GPIO_Init
    47                           	FNCALL	_main,_Usart_GPIO_Init
    48                           	FNCALL	_main,_Usart_Init
    49                           	FNCALL	_main,_Motor_GPIO_Init
    50                           	FNCALL	_main,_Motor_CCP_PWM_Init
    51                           	FNCALL	_main,_csb_init
    52                           	FNCALL	_main,_Delay_ms
    53                           	FNCALL	_main,_Encoder_Init
    54                           	FNCALL	_main,_Trace_Control
    55                           	FNCALL	_Trace_Control,_Motor_Speed_Set
    56                           	FNCALL	_Trace_Control,_Start_PD
    57                           	FNCALL	_Trace_Control,_Trace_PID
    58                           	FNCALL	_Trace_Control,_putch
    59                           	FNCALL	_Trace_PID,___awtoft
    60                           	FNCALL	_Trace_PID,___ftmul
    61                           	FNCALL	_Trace_PID,___wmul
    62                           	FNCALL	_Trace_PID,___ftadd
    63                           	FNCALL	_Trace_PID,___fttol
    64                           	FNCALL	___awtoft,___ftpack
    65                           	FNCALL	___ftmul,___ftpack
    66                           	FNCALL	___ftadd,___ftpack
    67                           	FNROOT	_main
    68                           	FNCALL	intlevel1,_Service
    69                           	global	intlevel1
    70                           	FNROOT	intlevel1
    71                           	global	_Speed_Velcolity
    72                           	global	_table
    73                           	global	_Kp
    74                           psect	idataBANK0,class=CODE,space=0,delta=2
    75                           global __pidataBANK0
    76  0003                     __pidataBANK0:
    77                           	file	"D:\6_pic_project\00_Design_Flow_Car\User\Car_demo\Car_demo.c"
    78                           	line	33
    79                           
    80                           ;initializer for _Speed_Velcolity
    81  0003  342D               	retlw	02Dh
    82                           psect	idataBANK1,class=CODE,space=0,delta=2
    83                           global __pidataBANK1
    84  0E8D                     __pidataBANK1:
    85                           	file	"D:\6_pic_project\00_Design_Flow_Car\Driver\csb.c"
    86                           	line	9
    87                           
    88                           ;initializer for _table
    89  0E8D  3430               	retlw	030h
    90  0E8E  3431               	retlw	031h
    91  0E8F  3432               	retlw	032h
    92  0E90  3433               	retlw	033h
    93  0E91  3434               	retlw	034h
    94  0E92  3435               	retlw	035h
    95  0E93  3436               	retlw	036h
    96  0E94  3437               	retlw	037h
    97  0E95  3438               	retlw	038h
    98  0E96  3439               	retlw	039h
    99  0E97  3441               	retlw	041h
   100  0E98  3442               	retlw	042h
   101  0E99  3443               	retlw	043h
   102  0E9A  3444               	retlw	044h
   103  0E9B  3445               	retlw	045h
   104  0E9C  3446               	retlw	046h
   105                           	file	"D:\6_pic_project\00_Design_Flow_Car\Driver\pid.c"
   106                           	line	14
   107                           
   108                           ;initializer for _Kp
   109  0E9D  34CD               	retlw	0xcd
   110  0E9E  344C               	retlw	0x4c
   111  0E9F  3440               	retlw	0x40
   112                           
   113                           	global	_Encoder_Counter
   114                           	global	_Circle_Mode
   115                           	global	_IO_flag
   116                           	global	_Speed_left
   117                           	global	_Speed_right
   118                           	global	_Start_Find_flag
   119                           	global	_Stop_Flag
   120                           	global	_Trace_Byte
   121                           	global	_Trace_Mode
   122                           	global	_Turn_PWM
   123                           	global	_bluetooth
   124                           	global	_recv_data
   125                           	global	_x
   126                           	global	_y
   127                           	global	_RBIF_FLAG
   128                           	global	_Counter_temp
   129                           	global	_Kd
   130                           	global	_Timer0_Counter
   131                           	global	_dis
   132                           	global	_err_difference
   133                           	global	_last_err
   134                           	global	_turn_err
   135                           	global	_Bifurcate_Flag
   136                           	global	_Key_Val
   137                           	global	_Motor_Flag
   138                           	global	_Speed_measure1
   139                           	global	_Speed_measure2
   140                           	global	_CCP1CON
   141  0017                     _CCP1CON	set	23
   142                           	global	_CCP2CON
   143  001D                     _CCP2CON	set	29
   144                           	global	_CCPR1L
   145  0015                     _CCPR1L	set	21
   146                           	global	_CCPR2L
   147  001B                     _CCPR2L	set	27
   148                           	global	_PORTB
   149  0006                     _PORTB	set	6
   150                           	global	_PORTD
   151  0008                     _PORTD	set	8
   152                           	global	_RCREG
   153  001A                     _RCREG	set	26
   154                           	global	_RCSTA
   155  0018                     _RCSTA	set	24
   156                           	global	_T1CON
   157  0010                     _T1CON	set	16
   158                           	global	_T2CON
   159  0012                     _T2CON	set	18
   160                           	global	_TMR0
   161  0001                     _TMR0	set	1
   162                           	global	_TMR1H
   163  000F                     _TMR1H	set	15
   164                           	global	_TMR1L
   165  000E                     _TMR1L	set	14
   166                           	global	_TMR2
   167  0011                     _TMR2	set	17
   168                           	global	_TXREG
   169  0019                     _TXREG	set	25
   170                           	global	_CARRY
   171  0018                     _CARRY	set	24
   172                           	global	_GIE
   173  005F                     _GIE	set	95
   174                           	global	_INTE
   175  005C                     _INTE	set	92
   176                           	global	_INTF
   177  0059                     _INTF	set	89
   178                           	global	_PEIE
   179  005E                     _PEIE	set	94
   180                           	global	_RA0
   181  0028                     _RA0	set	40
   182                           	global	_RA1
   183  0029                     _RA1	set	41
   184                           	global	_RA2
   185  002A                     _RA2	set	42
   186                           	global	_RA3
   187  002B                     _RA3	set	43
   188                           	global	_RA4
   189  002C                     _RA4	set	44
   190                           	global	_RA5
   191  002D                     _RA5	set	45
   192                           	global	_RB4
   193  0034                     _RB4	set	52
   194                           	global	_RB5
   195  0035                     _RB5	set	53
   196                           	global	_RB6
   197  0036                     _RB6	set	54
   198                           	global	_RB7
   199  0037                     _RB7	set	55
   200                           	global	_RBIE
   201  005B                     _RBIE	set	91
   202                           	global	_RBIF
   203  0058                     _RBIF	set	88
   204                           	global	_RC0
   205  0038                     _RC0	set	56
   206                           	global	_RC3
   207  003B                     _RC3	set	59
   208                           	global	_RC4
   209  003C                     _RC4	set	60
   210                           	global	_RC5
   211  003D                     _RC5	set	61
   212                           	global	_RCIF
   213  0065                     _RCIF	set	101
   214                           	global	_RE0
   215  0048                     _RE0	set	72
   216                           	global	_RE1
   217  0049                     _RE1	set	73
   218                           	global	_RE2
   219  004A                     _RE2	set	74
   220                           	global	_T0IE
   221  005D                     _T0IE	set	93
   222                           	global	_T0IF
   223  005A                     _T0IF	set	90
   224                           	global	_TMR1IF
   225  0060                     _TMR1IF	set	96
   226                           	global	_TMR1ON
   227  0080                     _TMR1ON	set	128
   228                           	global	_TMR2IF
   229  0061                     _TMR2IF	set	97
   230                           	global	_TMR2ON
   231  0092                     _TMR2ON	set	146
   232                           	global	_ADCON1
   233  009F                     _ADCON1	set	159
   234                           	global	_OPTION_REG
   235  0081                     _OPTION_REG	set	129
   236                           	global	_PR2
   237  0092                     _PR2	set	146
   238                           	global	_SPBRG
   239  0099                     _SPBRG	set	153
   240                           	global	_TRISB
   241  0086                     _TRISB	set	134
   242                           	global	_TRISD
   243  0088                     _TRISD	set	136
   244                           	global	_TXSTA
   245  0098                     _TXSTA	set	152
   246                           	global	_RCIE
   247  0465                     _RCIE	set	1125
   248                           	global	_TMR1IE
   249  0460                     _TMR1IE	set	1120
   250                           	global	_TMR2IE
   251  0461                     _TMR2IE	set	1121
   252                           	global	_TRISA0
   253  0428                     _TRISA0	set	1064
   254                           	global	_TRISA1
   255  0429                     _TRISA1	set	1065
   256                           	global	_TRISA2
   257  042A                     _TRISA2	set	1066
   258                           	global	_TRISA3
   259  042B                     _TRISA3	set	1067
   260                           	global	_TRISA4
   261  042C                     _TRISA4	set	1068
   262                           	global	_TRISA5
   263  042D                     _TRISA5	set	1069
   264                           	global	_TRISB0
   265  0430                     _TRISB0	set	1072
   266                           	global	_TRISB1
   267  0431                     _TRISB1	set	1073
   268                           	global	_TRISB4
   269  0434                     _TRISB4	set	1076
   270                           	global	_TRISB5
   271  0435                     _TRISB5	set	1077
   272                           	global	_TRISB6
   273  0436                     _TRISB6	set	1078
   274                           	global	_TRISB7
   275  0437                     _TRISB7	set	1079
   276                           	global	_TRISC0
   277  0438                     _TRISC0	set	1080
   278                           	global	_TRISC1
   279  0439                     _TRISC1	set	1081
   280                           	global	_TRISC2
   281  043A                     _TRISC2	set	1082
   282                           	global	_TRISC3
   283  043B                     _TRISC3	set	1083
   284                           	global	_TRISC4
   285  043C                     _TRISC4	set	1084
   286                           	global	_TRISC5
   287  043D                     _TRISC5	set	1085
   288                           	global	_TRISC6
   289  043E                     _TRISC6	set	1086
   290                           	global	_TRISC7
   291  043F                     _TRISC7	set	1087
   292                           	global	_TRISE0
   293  0448                     _TRISE0	set	1096
   294                           	global	_TRISE1
   295  0449                     _TRISE1	set	1097
   296                           	global	_TRISE2
   297  044A                     _TRISE2	set	1098
   298                           	global	_TRMT
   299  04C1                     _TRMT	set	1217
   300                           	global	_nRBPU
   301  040F                     _nRBPU	set	1039
   302                           	global	_EEADR
   303  010D                     _EEADR	set	269
   304                           	global	_EEDATA
   305  010C                     _EEDATA	set	268
   306                           	global	_EECON1
   307  018C                     _EECON1	set	396
   308                           	global	_EECON2
   309  018D                     _EECON2	set	397
   310                           	global	_RD
   311  0C60                     _RD	set	3168
   312                           	global	_WR
   313  0C61                     _WR	set	3169
   314                           	global	_WREN
   315  0C62                     _WREN	set	3170
   316                           psect	strings,class=STRING,delta=2
   317                           global __pstrings
   318  0800                     __pstrings:
   319                           ;	global	stringdir,stringtab,__stringbase
   320  0800                     stringtab:
   321                           ;	String table - string pointers are 1 byte each
   322  0800                     stringcode:stringdir:
      + 0800                     stringdir:	
   323  0800  3008               movlw high(stringdir)
   324  0801  008A               movwf pclath
   325  0802  0804               movf fsr,w
   326  0803  0A84               incf fsr
   327  0804  0782               	addwf pc
   328  0805                     __stringbase:
   329  0805  3400               	retlw	0
   330                           psect	strings
   331                           	
   332  0806                     STR_1:	
   333  0806  3425               	retlw	37	;'%'
   334  0807  3463               	retlw	99	;'c'
   335  0808  3400               	retlw	0
   336                           psect	strings
   337                           	file	"202121365038.as"
   338                           	line	#
   339                           psect cinit,class=CODE,delta=2
   340                           global start_initialization
   341  0F38                     start_initialization:
   342                           
   343                           psect	bitbssCOMMON,class=COMMON,bit,space=1
   344                           global __pbitbssCOMMON
   345  03C8                     __pbitbssCOMMON:
   346  03C8                     _RBIF_FLAG:
   347  03C8                            ds      1
   348                           
   349                           psect	bssCOMMON,class=COMMON,space=1
   350                           global __pbssCOMMON
   351  0075                     __pbssCOMMON:
   352  0075                     _bluetooth:
   353  0075                            ds      1
   354                           
   355  0076                     _recv_data:
   356  0076                            ds      1
   357                           
   358  0077                     _x:
   359  0077                            ds      1
   360                           
   361  0078                     _y:
   362  0078                            ds      1
   363                           
   364                           psect	bssBANK0,class=BANK0,space=1
   365                           global __pbssBANK0
   366  0063                     __pbssBANK0:
   367  0063                     _Encoder_Counter:
   368  0063                            ds      2
   369                           
   370  0065                     _Circle_Mode:
   371  0065                            ds      1
   372                           
   373  0066                     _IO_flag:
   374  0066                            ds      1
   375                           
   376  0067                     _Speed_left:
   377  0067                            ds      1
   378                           
   379  0068                     _Speed_right:
   380  0068                            ds      1
   381                           
   382  0069                     _Start_Find_flag:
   383  0069                            ds      1
   384                           
   385  006A                     _Stop_Flag:
   386  006A                            ds      1
   387                           
   388  006B                     _Trace_Byte:
   389  006B                            ds      1
   390                           
   391  006C                     _Trace_Mode:
   392  006C                            ds      1
   393                           
   394  006D                     _Turn_PWM:
   395  006D                            ds      1
   396                           
   397                           psect	dataBANK0,class=BANK0,space=1
   398                           global __pdataBANK0
   399  006E                     __pdataBANK0:
   400                           	file	"D:\6_pic_project\00_Design_Flow_Car\User\Car_demo\Car_demo.c"
   401                           	line	33
   402  006E                     _Speed_Velcolity:
   403  006E                            ds      1
   404                           
   405                           psect	bssBANK1,class=BANK1,space=1
   406                           global __pbssBANK1
   407  00A0                     __pbssBANK1:
   408  00A0                     _Counter_temp:
   409  00A0                            ds      2
   410                           
   411  00A2                     _Kd:
   412  00A2                            ds      2
   413                           
   414  00A4                     _Timer0_Counter:
   415  00A4                            ds      2
   416                           
   417  00A6                     _dis:
   418  00A6                            ds      2
   419                           
   420  00A8                     _err_difference:
   421  00A8                            ds      2
   422                           
   423  00AA                     _last_err:
   424  00AA                            ds      2
   425                           
   426  00AC                     _turn_err:
   427  00AC                            ds      2
   428                           
   429  00AE                     _Bifurcate_Flag:
   430  00AE                            ds      1
   431                           
   432  00AF                     _Key_Val:
   433  00AF                            ds      1
   434                           
   435  00B0                     _Motor_Flag:
   436  00B0                            ds      1
   437                           
   438  00B1                     _Speed_measure1:
   439  00B1                            ds      1
   440                           
   441  00B2                     _Speed_measure2:
   442  00B2                            ds      1
   443                           
   444                           psect	dataBANK1,class=BANK1,space=1
   445                           global __pdataBANK1
   446  00B3                     __pdataBANK1:
   447                           	file	"D:\6_pic_project\00_Design_Flow_Car\Driver\csb.c"
   448                           	line	9
   449  00B3                     _table:
   450  00B3                            ds      16
   451                           
   452                           psect	dataBANK1
   453                           	file	"D:\6_pic_project\00_Design_Flow_Car\Driver\pid.c"
   454                           	line	14
   455  00C3                     _Kp:
   456  00C3                            ds      3
   457                           
   458                           psect clrtext,class=CODE,delta=2
   459                           global clear_ram
   460                           ;	Called with FSR containing the base address, and
   461                           ;	W with the last address+1
   462  0E3F                     clear_ram:
   463  0E3F  0064               	clrwdt			;clear the watchdog before getting into this loop
   464  0E40                     clrloop:
   465  0E40  0180               	clrf	indf		;clear RAM location pointed to by FSR
   466  0E41  0A84               	incf	fsr,f		;increment pointer
   467  0E42  0604               	xorwf	fsr,w		;XOR with final address
   468  0E43  1903               	btfsc	status,2	;have we reached the end yet?
   469  0E44  3400               	retlw	0		;all done for this memory range, return
   470  0E45  0604               	xorwf	fsr,w		;XOR again to restore value
   471  0E46  2E40               	goto	clrloop		;do the next byte
   472                           
   473                           ; Clear objects allocated to BITCOMMON
   474                           psect cinit,class=CODE,delta=2
   475  0F38  01F9               	clrf	((__pbitbssCOMMON/8)+0)&07Fh
   476                           ; Clear objects allocated to COMMON
   477                           psect cinit,class=CODE,delta=2
   478  0F39  01F5               	clrf	((__pbssCOMMON)+0)&07Fh
   479  0F3A  01F6               	clrf	((__pbssCOMMON)+1)&07Fh
   480  0F3B  01F7               	clrf	((__pbssCOMMON)+2)&07Fh
   481  0F3C  01F8               	clrf	((__pbssCOMMON)+3)&07Fh
   482                           ; Clear objects allocated to BANK0
   483                           psect cinit,class=CODE,delta=2
   484  0F3D  1383               	bcf	status, 7	;select IRP bank0
   485  0F3E  3063               	movlw	low(__pbssBANK0)
   486  0F3F  0084               	movwf	fsr
   487  0F40  306E               	movlw	low((__pbssBANK0)+0Bh)
   488  0F41  120A  158A  263F   	fcall	clear_ram
              120A  158A         
   489                           ; Clear objects allocated to BANK1
   490                           psect cinit,class=CODE,delta=2
   491  0F46  30A0               	movlw	low(__pbssBANK1)
   492  0F47  0084               	movwf	fsr
   493  0F48  30B3               	movlw	low((__pbssBANK1)+013h)
   494  0F49  120A  158A  263F   	fcall	clear_ram
              120A  158A         
   495                           global btemp
   496                           psect inittext,class=CODE,delta=2
   497                           global init_fetch,btemp
   498                           ;	Called with low address in FSR and high address in W
   499  0E7A                     init_fetch:
   500  0E7A  087E               	movf btemp,w
   501  0E7B  008A               	movwf pclath
   502  0E7C  087F               	movf btemp+1,w
   503  0E7D  0082               	movwf pc
   504                           global init_ram
   505                           ;Called with:
   506                           ;	high address of idata address in btemp 
   507                           ;	low address of idata address in btemp+1 
   508                           ;	low address of data in FSR
   509                           ;	high address + 1 of data in btemp-1
   510  0E7E                     init_ram:
   511  0E7E  120A  158A  267A   	fcall init_fetch
              120A  158A         
   512  0E83  0080               	movwf indf,f
   513  0E84  0A84               	incf fsr,f
   514  0E85  0804               	movf fsr,w
   515  0E86  067D               	xorwf btemp-1,w
   516  0E87  1903               	btfsc status,2
   517  0E88  3400               	retlw 0
   518  0E89  0AFF               	incf btemp+1,f
   519  0E8A  1903               	btfsc status,2
   520  0E8B  0AFE               	incf btemp,f
   521  0E8C  2E7E               	goto init_ram
   522                           ; Initialize objects allocated to BANK1
   523                           psect cinit,class=CODE,delta=2
   524                           global init_ram, __pidataBANK1
   525  0F4E  30C6               	movlw low(__pdataBANK1+19)
   526  0F4F  00FD               	movwf btemp-1,f
   527  0F50  300E               	movlw high(__pidataBANK1)
   528  0F51  00FE               	movwf btemp,f
   529  0F52  308D               	movlw low(__pidataBANK1)
   530  0F53  00FF               	movwf btemp+1,f
   531  0F54  30B3               	movlw low(__pdataBANK1)
   532  0F55  0084               	movwf fsr,f
   533  0F56  120A  158A  267E   	fcall init_ram
              120A  158A         
   534                           ; Initialize objects allocated to BANK0
   535                           	global __pidataBANK0
   536                           psect cinit,class=CODE,delta=2
   537  0F5B  120A  118A  2003   	fcall	__pidataBANK0+0		;fetch initializer
              120A  158A         
   538  0F60  00EE               	movwf	__pdataBANK0+0&07fh		
   539                           psect cinit,class=CODE,delta=2
   540                           global end_of_initialization
   541                           
   542                           ;End of C runtime variable initialization code
   543                           
   544  0F61                     end_of_initialization:
   545  0F61  0183               clrf status
   546  0F62  120A  118A  2FB3   ljmp _main	;jump to C main() function
   547                           psect	cstackBANK1,class=BANK1,space=1
   548                           global __pcstackBANK1
   549  00C6                     __pcstackBANK1:
   550                           	global	??_Trace_Control
   551  00C6                     ??_Trace_Control:	; 0 bytes @ 0x0
   552  00C6                     	ds	4
   553                           psect	cstackCOMMON,class=COMMON,space=1
   554                           global __pcstackCOMMON
   555  0070                     __pcstackCOMMON:
   556                           	global	?_Motor_GPIO_Init
   557  0070                     ?_Motor_GPIO_Init:	; 0 bytes @ 0x0
   558                           	global	?_Motor_CCP_PWM_Init
   559  0070                     ?_Motor_CCP_PWM_Init:	; 0 bytes @ 0x0
   560                           	global	?_putch
   561  0070                     ?_putch:	; 0 bytes @ 0x0
   562                           	global	?_Usart_GPIO_Init
   563  0070                     ?_Usart_GPIO_Init:	; 0 bytes @ 0x0
   564                           	global	?_Usart_Init
   565  0070                     ?_Usart_Init:	; 0 bytes @ 0x0
   566                           	global	?_Encoder_Init
   567  0070                     ?_Encoder_Init:	; 0 bytes @ 0x0
   568                           	global	?_Trace_GPIO_Init
   569  0070                     ?_Trace_GPIO_Init:	; 0 bytes @ 0x0
   570                           	global	?_csb_init
   571  0070                     ?_csb_init:	; 0 bytes @ 0x0
   572                           	global	?_Trace_Control
   573  0070                     ?_Trace_Control:	; 0 bytes @ 0x0
   574                           	global	?_Service
   575  0070                     ?_Service:	; 0 bytes @ 0x0
   576                           	global	??_Service
   577  0070                     ??_Service:	; 0 bytes @ 0x0
   578                           	global	?_main
   579  0070                     ?_main:	; 0 bytes @ 0x0
   580  0070                     	ds	5
   581                           psect	cstackBANK0,class=BANK0,space=1
   582                           global __pcstackBANK0
   583  0020                     __pcstackBANK0:
   584                           	global	??_Motor_GPIO_Init
   585  0020                     ??_Motor_GPIO_Init:	; 0 bytes @ 0x0
   586                           	global	??_Motor_CCP_PWM_Init
   587  0020                     ??_Motor_CCP_PWM_Init:	; 0 bytes @ 0x0
   588                           	global	?_Motor_Speed_Set
   589  0020                     ?_Motor_Speed_Set:	; 0 bytes @ 0x0
   590                           	global	??_putch
   591  0020                     ??_putch:	; 0 bytes @ 0x0
   592                           	global	??_Usart_GPIO_Init
   593  0020                     ??_Usart_GPIO_Init:	; 0 bytes @ 0x0
   594                           	global	??_Usart_Init
   595  0020                     ??_Usart_Init:	; 0 bytes @ 0x0
   596                           	global	?_Delay_ms
   597  0020                     ?_Delay_ms:	; 0 bytes @ 0x0
   598                           	global	??_Encoder_Init
   599  0020                     ??_Encoder_Init:	; 0 bytes @ 0x0
   600                           	global	??_Trace_GPIO_Init
   601  0020                     ??_Trace_GPIO_Init:	; 0 bytes @ 0x0
   602                           	global	??_csb_init
   603  0020                     ??_csb_init:	; 0 bytes @ 0x0
   604                           	global	?_Start_PD
   605  0020                     ?_Start_PD:	; 2 bytes @ 0x0
   606                           	global	?___wmul
   607  0020                     ?___wmul:	; 2 bytes @ 0x0
   608                           	global	?___ftpack
   609  0020                     ?___ftpack:	; 3 bytes @ 0x0
   610                           	global	putch@ch
   611  0020                     putch@ch:	; 1 bytes @ 0x0
   612                           	global	Motor_Speed_Set@Speed1
   613  0020                     Motor_Speed_Set@Speed1:	; 2 bytes @ 0x0
   614                           	global	Delay_ms@x
   615  0020                     Delay_ms@x:	; 2 bytes @ 0x0
   616                           	global	___wmul@multiplier
   617  0020                     ___wmul@multiplier:	; 2 bytes @ 0x0
   618                           	global	___ftpack@arg
   619  0020                     ___ftpack@arg:	; 3 bytes @ 0x0
   620  0020                     	ds	2
   621                           	global	??_Delay_ms
   622  0022                     ??_Delay_ms:	; 0 bytes @ 0x2
   623                           	global	??_Start_PD
   624  0022                     ??_Start_PD:	; 0 bytes @ 0x2
   625                           	global	Motor_Speed_Set@Speed2
   626  0022                     Motor_Speed_Set@Speed2:	; 2 bytes @ 0x2
   627                           	global	___wmul@multiplicand
   628  0022                     ___wmul@multiplicand:	; 2 bytes @ 0x2
   629  0022                     	ds	1
   630                           	global	___ftpack@exp
   631  0023                     ___ftpack@exp:	; 1 bytes @ 0x3
   632  0023                     	ds	1
   633                           	global	??_Motor_Speed_Set
   634  0024                     ??_Motor_Speed_Set:	; 0 bytes @ 0x4
   635                           	global	??___wmul
   636  0024                     ??___wmul:	; 0 bytes @ 0x4
   637                           	global	___ftpack@sign
   638  0024                     ___ftpack@sign:	; 1 bytes @ 0x4
   639                           	global	___wmul@product
   640  0024                     ___wmul@product:	; 2 bytes @ 0x4
   641  0024                     	ds	1
   642                           	global	??___ftpack
   643  0025                     ??___ftpack:	; 0 bytes @ 0x5
   644  0025                     	ds	3
   645                           	global	?___fttol
   646  0028                     ?___fttol:	; 4 bytes @ 0x8
   647                           	global	___fttol@f1
   648  0028                     ___fttol@f1:	; 3 bytes @ 0x8
   649  0028                     	ds	4
   650                           	global	??___fttol
   651  002C                     ??___fttol:	; 0 bytes @ 0xC
   652  002C                     	ds	4
   653                           	global	___fttol@sign1
   654  0030                     ___fttol@sign1:	; 1 bytes @ 0x10
   655  0030                     	ds	1
   656                           	global	___fttol@lval
   657  0031                     ___fttol@lval:	; 4 bytes @ 0x11
   658  0031                     	ds	4
   659                           	global	___fttol@exp1
   660  0035                     ___fttol@exp1:	; 1 bytes @ 0x15
   661  0035                     	ds	1
   662                           	global	?___awtoft
   663  0036                     ?___awtoft:	; 3 bytes @ 0x16
   664                           	global	___awtoft@c
   665  0036                     ___awtoft@c:	; 2 bytes @ 0x16
   666  0036                     	ds	3
   667                           	global	??___awtoft
   668  0039                     ??___awtoft:	; 0 bytes @ 0x19
   669  0039                     	ds	2
   670                           	global	___awtoft@sign
   671  003B                     ___awtoft@sign:	; 1 bytes @ 0x1B
   672  003B                     	ds	1
   673                           	global	?___ftmul
   674  003C                     ?___ftmul:	; 3 bytes @ 0x1C
   675                           	global	___ftmul@f1
   676  003C                     ___ftmul@f1:	; 3 bytes @ 0x1C
   677  003C                     	ds	3
   678                           	global	___ftmul@f2
   679  003F                     ___ftmul@f2:	; 3 bytes @ 0x1F
   680  003F                     	ds	3
   681                           	global	??___ftmul
   682  0042                     ??___ftmul:	; 0 bytes @ 0x22
   683  0042                     	ds	4
   684                           	global	___ftmul@exp
   685  0046                     ___ftmul@exp:	; 1 bytes @ 0x26
   686  0046                     	ds	1
   687                           	global	___ftmul@f3_as_product
   688  0047                     ___ftmul@f3_as_product:	; 3 bytes @ 0x27
   689  0047                     	ds	3
   690                           	global	___ftmul@cntr
   691  004A                     ___ftmul@cntr:	; 1 bytes @ 0x2A
   692  004A                     	ds	1
   693                           	global	___ftmul@sign
   694  004B                     ___ftmul@sign:	; 1 bytes @ 0x2B
   695  004B                     	ds	1
   696                           	global	?___ftadd
   697  004C                     ?___ftadd:	; 3 bytes @ 0x2C
   698                           	global	___ftadd@f1
   699  004C                     ___ftadd@f1:	; 3 bytes @ 0x2C
   700  004C                     	ds	3
   701                           	global	___ftadd@f2
   702  004F                     ___ftadd@f2:	; 3 bytes @ 0x2F
   703  004F                     	ds	3
   704                           	global	??___ftadd
   705  0052                     ??___ftadd:	; 0 bytes @ 0x32
   706  0052                     	ds	4
   707                           	global	___ftadd@sign
   708  0056                     ___ftadd@sign:	; 1 bytes @ 0x36
   709  0056                     	ds	1
   710                           	global	___ftadd@exp2
   711  0057                     ___ftadd@exp2:	; 1 bytes @ 0x37
   712  0057                     	ds	1
   713                           	global	___ftadd@exp1
   714  0058                     ___ftadd@exp1:	; 1 bytes @ 0x38
   715  0058                     	ds	1
   716                           	global	?_Trace_PID
   717  0059                     ?_Trace_PID:	; 2 bytes @ 0x39
   718  0059                     	ds	2
   719                           	global	??_Trace_PID
   720  005B                     ??_Trace_PID:	; 0 bytes @ 0x3B
   721  005B                     	ds	8
   722                           	global	??_main
   723  0063                     ??_main:	; 0 bytes @ 0x43
   724 ;;Data sizes: Strings 3, constant 0, data 20, bss 34, persistent 0 stack 0
   725 ;;Auto spaces:   Size  Autos    Used
   726 ;; COMMON          14      5      10
   727 ;; BANK0           80     67      79
   728 ;; BANK1           80      4      42
   729 ;; BANK3           96      0       0
   730 ;; BANK2           96      0       0
   731                           
   732 ;;
   733 ;; Pointer list with targets:
   734                           
   735 ;; ?___ftpack	float  size(1) Largest target is 0
   736 ;;
   737 ;; ?_Trace_PID	int  size(1) Largest target is 0
   738 ;;
   739 ;; ?___fttol	long  size(1) Largest target is 0
   740 ;;
   741 ;; ?___ftmul	float  size(1) Largest target is 0
   742 ;;
   743 ;; ?___wmul	unsigned int  size(1) Largest target is 0
   744 ;;
   745 ;; ?___ftadd	float  size(1) Largest target is 0
   746 ;;
   747 ;; ?___awtoft	float  size(1) Largest target is 0
   748 ;;
   749 ;; S10478$_cp	PTR const unsigned char  size(1) Largest target is 0
   750 ;;
   751 ;; _val._str._cp	PTR const unsigned char  size(1) Largest target is 0
   752 ;;
   753                           
   754                           
   755 ;;
   756 ;; Critical Paths under _main in COMMON
   757 ;;
   758 ;;   None.
   759 ;;
   760 ;; Critical Paths under _Service in COMMON
   761 ;;
   762 ;;   None.
   763 ;;
   764 ;; Critical Paths under _main in BANK0
   765 ;;
   766 ;;   _Trace_Control->_Trace_PID
   767 ;;   _Trace_PID->___ftadd
   768 ;;   ___awtoft->___fttol
   769 ;;   ___ftmul->___awtoft
   770 ;;   ___ftadd->___ftmul
   771 ;;   ___fttol->___ftpack
   772 ;;
   773 ;; Critical Paths under _Service in BANK0
   774 ;;
   775 ;;   None.
   776 ;;
   777 ;; Critical Paths under _main in BANK1
   778 ;;
   779 ;;   _main->_Trace_Control
   780 ;;
   781 ;; Critical Paths under _Service in BANK1
   782 ;;
   783 ;;   None.
   784 ;;
   785 ;; Critical Paths under _main in BANK3
   786 ;;
   787 ;;   None.
   788 ;;
   789 ;; Critical Paths under _Service in BANK3
   790 ;;
   791 ;;   None.
   792 ;;
   793 ;; Critical Paths under _main in BANK2
   794 ;;
   795 ;;   None.
   796 ;;
   797 ;; Critical Paths under _Service in BANK2
   798 ;;
   799 ;;   None.
   800                           
   801 ;;
   802 ;;Main: autosize = 0, tempsize = 0, incstack = 0, save=0
   803 ;;
   804                           
   805 ;;
   806 ;;Call Graph Tables:
   807 ;;
   808 ;; ---------------------------------------------------------------------------------
   809 ;; (Depth) Function   	        Calls       Base Space   Used Autos Params    Refs
   810 ;; ---------------------------------------------------------------------------------
   811 ;; (0) _main                                                 0     0      0    3409
   812 ;;                    _Trace_GPIO_Init
   813 ;;                    _Usart_GPIO_Init
   814 ;;                         _Usart_Init
   815 ;;                    _Motor_GPIO_Init
   816 ;;                 _Motor_CCP_PWM_Init
   817 ;;                           _csb_init
   818 ;;                           _Delay_ms
   819 ;;                       _Encoder_Init
   820 ;;                      _Trace_Control
   821 ;; ---------------------------------------------------------------------------------
   822 ;; (1) _Trace_Control                                        4     4      0    3387
   823 ;;                                              0 BANK1      4     4      0
   824 ;;                    _Motor_Speed_Set
   825 ;;                           _Start_PD
   826 ;;                          _Trace_PID
   827 ;;                              _putch
   828 ;; ---------------------------------------------------------------------------------
   829 ;; (2) _Trace_PID                                           10     8      2    3170
   830 ;;                                             57 BANK0     10     8      2
   831 ;;                           ___awtoft
   832 ;;                            ___ftmul
   833 ;;                             ___wmul
   834 ;;                            ___ftadd
   835 ;;                            ___fttol
   836 ;; ---------------------------------------------------------------------------------
   837 ;; (3) ___awtoft                                             6     3      3     445
   838 ;;                                             22 BANK0      6     3      3
   839 ;;                           ___ftpack
   840 ;;                             ___wmul (ARG)
   841 ;;                            ___fttol (ARG)
   842 ;; ---------------------------------------------------------------------------------
   843 ;; (3) ___ftmul                                             16    10      6     800
   844 ;;                                             28 BANK0     16    10      6
   845 ;;                           ___ftpack
   846 ;;                           ___awtoft (ARG)
   847 ;;                            ___fttol (ARG)
   848 ;; ---------------------------------------------------------------------------------
   849 ;; (3) ___ftadd                                             13     7      6    1537
   850 ;;                                             44 BANK0     13     7      6
   851 ;;                           ___ftpack
   852 ;;                            ___ftmul (ARG)
   853 ;;                           ___awtoft (ARG)
   854 ;;                             ___wmul (ARG)
   855 ;;                            ___fttol (ARG)
   856 ;; ---------------------------------------------------------------------------------
   857 ;; (1) _Delay_ms                                             2     0      2      22
   858 ;;                                              0 BANK0      2     0      2
   859 ;; ---------------------------------------------------------------------------------
   860 ;; (3) ___fttol                                             14    10      4     252
   861 ;;                                              8 BANK0     14    10      4
   862 ;;                           ___ftpack (ARG)
   863 ;;                             ___wmul (ARG)
   864 ;; ---------------------------------------------------------------------------------
   865 ;; (4) ___ftpack                                             8     3      5     312
   866 ;;                                              0 BANK0      8     3      5
   867 ;; ---------------------------------------------------------------------------------
   868 ;; (3) ___wmul                                               6     2      4     136
   869 ;;                                              0 BANK0      6     2      4
   870 ;; ---------------------------------------------------------------------------------
   871 ;; (2) _Start_PD                                            10     8      2       0
   872 ;;                                              0 BANK0     10     8      2
   873 ;; ---------------------------------------------------------------------------------
   874 ;; (1) _csb_init                                             0     0      0       0
   875 ;; ---------------------------------------------------------------------------------
   876 ;; (1) _Trace_GPIO_Init                                      0     0      0       0
   877 ;; ---------------------------------------------------------------------------------
   878 ;; (1) _Encoder_Init                                         0     0      0       0
   879 ;; ---------------------------------------------------------------------------------
   880 ;; (1) _Usart_Init                                           0     0      0       0
   881 ;; ---------------------------------------------------------------------------------
   882 ;; (1) _Usart_GPIO_Init                                      0     0      0       0
   883 ;; ---------------------------------------------------------------------------------
   884 ;; (2) _putch                                                1     1      0      31
   885 ;;                                              0 BANK0      1     1      0
   886 ;; ---------------------------------------------------------------------------------
   887 ;; (2) _Motor_Speed_Set                                      4     0      4     186
   888 ;;                                              0 BANK0      4     0      4
   889 ;; ---------------------------------------------------------------------------------
   890 ;; (1) _Motor_CCP_PWM_Init                                   0     0      0       0
   891 ;; ---------------------------------------------------------------------------------
   892 ;; (1) _Motor_GPIO_Init                                      0     0      0       0
   893 ;; ---------------------------------------------------------------------------------
   894 ;; Estimated maximum stack depth 4
   895 ;; ---------------------------------------------------------------------------------
   896 ;; (Depth) Function   	        Calls       Base Space   Used Autos Params    Refs
   897 ;; ---------------------------------------------------------------------------------
   898 ;; (5) _Service                                              5     5      0       0
   899 ;;                                              0 COMMON     5     5      0
   900 ;; ---------------------------------------------------------------------------------
   901 ;; Estimated maximum stack depth 5
   902 ;; ---------------------------------------------------------------------------------
   903                           
   904 ;; Call Graph Graphs:
   905                           
   906 ;; _main (ROOT)
   907 ;;   _Trace_GPIO_Init
   908 ;;   _Usart_GPIO_Init
   909 ;;   _Usart_Init
   910 ;;   _Motor_GPIO_Init
   911 ;;   _Motor_CCP_PWM_Init
   912 ;;   _csb_init
   913 ;;   _Delay_ms
   914 ;;   _Encoder_Init
   915 ;;   _Trace_Control
   916 ;;     _Motor_Speed_Set
   917 ;;     _Start_PD
   918 ;;     _Trace_PID
   919 ;;       ___awtoft
   920 ;;         ___ftpack
   921 ;;         ___wmul (ARG)
   922 ;;         ___fttol (ARG)
   923 ;;           ___ftpack (ARG)
   924 ;;           ___wmul (ARG)
   925 ;;       ___ftmul
   926 ;;         ___ftpack
   927 ;;         ___awtoft (ARG)
   928 ;;           ___ftpack
   929 ;;           ___wmul (ARG)
   930 ;;           ___fttol (ARG)
   931 ;;             ___ftpack (ARG)
   932 ;;             ___wmul (ARG)
   933 ;;         ___fttol (ARG)
   934 ;;           ___ftpack (ARG)
   935 ;;           ___wmul (ARG)
   936 ;;       ___wmul
   937 ;;       ___ftadd
   938 ;;         ___ftpack
   939 ;;         ___ftmul (ARG)
   940 ;;           ___ftpack
   941 ;;           ___awtoft (ARG)
   942 ;;             ___ftpack
   943 ;;             ___wmul (ARG)
   944 ;;             ___fttol (ARG)
   945 ;;               ___ftpack (ARG)
   946 ;;               ___wmul (ARG)
   947 ;;           ___fttol (ARG)
   948 ;;             ___ftpack (ARG)
   949 ;;             ___wmul (ARG)
   950 ;;         ___awtoft (ARG)
   951 ;;           ___ftpack
   952 ;;           ___wmul (ARG)
   953 ;;           ___fttol (ARG)
   954 ;;             ___ftpack (ARG)
   955 ;;             ___wmul (ARG)
   956 ;;         ___wmul (ARG)
   957 ;;         ___fttol (ARG)
   958 ;;           ___ftpack (ARG)
   959 ;;           ___wmul (ARG)
   960 ;;       ___fttol
   961 ;;         ___ftpack (ARG)
   962 ;;         ___wmul (ARG)
   963 ;;     _putch
   964 ;;
   965 ;; _Service (ROOT)
   966 ;;
   967                           
   968 ;; Address spaces:
   969                           
   970 ;;Name               Size   Autos  Total    Cost      Usage
   971 ;;BANK3               60      0       0       9        0.0%
   972 ;;BITBANK3            60      0       0       8        0.0%
   973 ;;SFR3                 0      0       0       4        0.0%
   974 ;;BITSFR3              0      0       0       4        0.0%
   975 ;;BANK2               60      0       0      11        0.0%
   976 ;;BITBANK2            60      0       0      10        0.0%
   977 ;;SFR2                 0      0       0       5        0.0%
   978 ;;BITSFR2              0      0       0       5        0.0%
   979 ;;SFR1                 0      0       0       2        0.0%
   980 ;;BITSFR1              0      0       0       2        0.0%
   981 ;;BANK1               50      4      2A       7       52.5%
   982 ;;BITBANK1            50      0       0       6        0.0%
   983 ;;CODE                 0      0       0       0        0.0%
   984 ;;DATA                 0      0      87      12        0.0%
   985 ;;ABS                  0      0      83       3        0.0%
   986 ;;NULL                 0      0       0       0        0.0%
   987 ;;STACK                0      0       4       2        0.0%
   988 ;;BANK0               50     43      4F       5       98.8%
   989 ;;BITBANK0            50      0       0       4        0.0%
   990 ;;SFR0                 0      0       0       1        0.0%
   991 ;;BITSFR0              0      0       0       1        0.0%
   992 ;;COMMON               E      5       A       1       71.4%
   993 ;;BITCOMMON            E      0       1       0        7.1%
   994 ;;EEDATA             100      0       0       0        0.0%
   995                           
   996                           	global	_main
   997                           psect	maintext,global,class=CODE,delta=2
   998                           global __pmaintext
   999  07B3                     __pmaintext:
  1000                           
  1001 ;; *************** function _main *****************
  1002 ;; Defined at:
  1003 ;;		line 227 in file "D:\6_pic_project\00_Design_Flow_Car\User\Car_demo\Car_demo.c"
  1004 ;; Parameters:    Size  Location     Type
  1005 ;;		None
  1006 ;; Auto vars:     Size  Location     Type
  1007 ;;		None
  1008 ;; Return value:  Size  Location     Type
  1009 ;;		None               void
  1010 ;; Registers used:
  1011 ;;		wreg, fsr0l, fsr0h, status,2, status,0, btemp+1, pclath, cstack
  1012 ;; Tracked objects:
  1013 ;;		On entry : 17F/0
  1014 ;;		On exit  : 0/0
  1015 ;;		Unchanged: 0/0
  1016 ;; Data sizes:     COMMON   BANK0   BANK1   BANK3   BANK2
  1017 ;;      Params:         0       0       0       0       0
  1018 ;;      Locals:         0       0       0       0       0
  1019 ;;      Temps:          0       0       0       0       0
  1020 ;;      Totals:         0       0       0       0       0
  1021 ;;Total ram usage:        0 bytes
  1022 ;; Hardware stack levels required when called:    5
  1023 ;; This function calls:
  1024 ;;		_Trace_GPIO_Init
  1025 ;;		_Usart_GPIO_Init
  1026 ;;		_Usart_Init
  1027 ;;		_Motor_GPIO_Init
  1028 ;;		_Motor_CCP_PWM_Init
  1029 ;;		_csb_init
  1030 ;;		_Delay_ms
  1031 ;;		_Encoder_Init
  1032 ;;		_Trace_Control
  1033 ;; This function is called by:
  1034 ;;		Startup code after reset
  1035 ;; This function uses a non-reentrant model
  1036 ;;
  1037                           psect	maintext
  1038                           	file	"D:\6_pic_project\00_Design_Flow_Car\User\Car_demo\Car_demo.c"
  1039                           	line	227
  1040                           	global	__size_of_main
  1041  003F                     	__size_of_main	equ	__end_of_main-_main
  1042                           	
  1043  07B3                     _main:	
  1044                           	opt	stack 3
  1045                           ; Regs used in _main: [wreg-fsr0h+status,2+status,0+btemp+1+pclath+cstack]
  1046                           	line	229
  1047                           	
  1048  07B3                     l12828:	
  1049                           ;Car_demo.c: 229: TRISB1=0;
  1050  07B3  1683               	bsf	status, 5	;RP0=1, select bank1
  1051  07B4  1303               	bcf	status, 6	;RP1=0, select bank1
  1052  07B5  1086               	bcf	(1073/8)^080h,(1073)&7
  1053                           	line	230
  1054                           ;Car_demo.c: 230: TRISA0=0;
  1055  07B6  1005               	bcf	(1064/8)^080h,(1064)&7
  1056                           	line	231
  1057                           ;Car_demo.c: 231: TRISA1=0;
  1058  07B7  1085               	bcf	(1065/8)^080h,(1065)&7
  1059                           	line	232
  1060                           ;Car_demo.c: 232: TRISA2=0;
  1061  07B8  1105               	bcf	(1066/8)^080h,(1066)&7
  1062                           	line	233
  1063                           	
  1064  07B9                     l12830:	
  1065                           ;Car_demo.c: 233: Trace_GPIO_Init();
  1066  07B9  120A  158A  2650   	fcall	_Trace_GPIO_Init
              120A  118A         
  1067                           	line	235
  1068                           ;Car_demo.c: 235: Usart_GPIO_Init();
  1069  07BE  120A  158A  263A   	fcall	_Usart_GPIO_Init
              120A  118A         
  1070                           	line	236
  1071                           	
  1072  07C3                     l12832:	
  1073                           ;Car_demo.c: 236: Usart_Init();
  1074  07C3  120A  158A  266A   	fcall	_Usart_Init
              120A  118A         
  1075                           	line	238
  1076                           	
  1077  07C8                     l12834:	
  1078                           ;Car_demo.c: 238: Motor_GPIO_Init();
  1079  07C8  120A  158A  2647   	fcall	_Motor_GPIO_Init
              120A  118A         
  1080                           	line	239
  1081                           ;Car_demo.c: 239: Motor_CCP_PWM_Init();
  1082  07CD  120A  158A  26A0   	fcall	_Motor_CCP_PWM_Init
              120A  118A         
  1083                           	line	240
  1084                           ;Car_demo.c: 240: csb_init();
  1085  07D2  120A  158A  26B4   	fcall	_csb_init
              120A  118A         
  1086                           	line	241
  1087                           ;Car_demo.c: 241: Delay_ms(5000);
  1088  07D7  3088               	movlw	low(01388h)
  1089  07D8  1283               	bcf	status, 5	;RP0=0, select bank0
  1090  07D9  1303               	bcf	status, 6	;RP1=0, select bank0
  1091  07DA  00A0               	movwf	(?_Delay_ms)
  1092  07DB  3013               	movlw	high(01388h)
  1093  07DC  00A1               	movwf	((?_Delay_ms))+1
  1094  07DD  120A  158A  26C9   	fcall	_Delay_ms
              120A  118A         
  1095                           	line	242
  1096                           ;Car_demo.c: 242: Encoder_Init();
  1097  07E2  120A  158A  265B   	fcall	_Encoder_Init
              120A  118A         
  1098  07E7  2FE8               	goto	l12836
  1099                           	line	247
  1100                           ;Car_demo.c: 247: while(1)
  1101                           	
  1102  07E8                     l8621:	
  1103                           	line	249
  1104                           	
  1105  07E8                     l12836:	
  1106                           ;Car_demo.c: 248: {
  1107                           ;Car_demo.c: 249: Trace_Control();
  1108  07E8  120A  118A  2015   	fcall	_Trace_Control
              120A  118A         
  1109  07ED  2FE8               	goto	l12836
  1110                           	line	250
  1111                           	
  1112  07EE                     l8622:	
  1113                           	line	247
  1114  07EE  2FE8               	goto	l12836
  1115                           	
  1116  07EF                     l8623:	
  1117                           	line	252
  1118                           	
  1119  07EF                     l8624:	
  1120                           	global	start
  1121  07EF  120A  118A  2812   	ljmp	start
  1122                           	opt stack 0
  1123                           GLOBAL	__end_of_main
  1124  07F2                     	__end_of_main:
  1125 ;; =============== function _main ends ============
  1126                           
  1127                           	signat	_main,88
  1128                           	global	_Trace_Control
  1129                           psect	text842,local,class=CODE,delta=2
  1130                           global __ptext842
  1131  0015                     __ptext842:
  1132                           
  1133 ;; *************** function _Trace_Control *****************
  1134 ;; Defined at:
  1135 ;;		line 74 in file "D:\6_pic_project\00_Design_Flow_Car\User\Car_demo\Car_demo.c"
  1136 ;; Parameters:    Size  Location     Type
  1137 ;;		None
  1138 ;; Auto vars:     Size  Location     Type
  1139 ;;		None
  1140 ;; Return value:  Size  Location     Type
  1141 ;;		None               void
  1142 ;; Registers used:
  1143 ;;		wreg, fsr0l, fsr0h, status,2, status,0, btemp+1, pclath, cstack
  1144 ;; Tracked objects:
  1145 ;;		On entry : 0/0
  1146 ;;		On exit  : 0/0
  1147 ;;		Unchanged: 0/0
  1148 ;; Data sizes:     COMMON   BANK0   BANK1   BANK3   BANK2
  1149 ;;      Params:         0       0       0       0       0
  1150 ;;      Locals:         0       0       0       0       0
  1151 ;;      Temps:          0       0       4       0       0
  1152 ;;      Totals:         0       0       4       0       0
  1153 ;;Total ram usage:        4 bytes
  1154 ;; Hardware stack levels used:    1
  1155 ;; Hardware stack levels required when called:    4
  1156 ;; This function calls:
  1157 ;;		_Motor_Speed_Set
  1158 ;;		_Start_PD
  1159 ;;		_Trace_PID
  1160 ;;		_putch
  1161 ;; This function is called by:
  1162 ;;		_main
  1163 ;; This function uses a non-reentrant model
  1164 ;;
  1165                           psect	text842
  1166                           	file	"D:\6_pic_project\00_Design_Flow_Car\User\Car_demo\Car_demo.c"
  1167                           	line	74
  1168                           	global	__size_of_Trace_Control
  1169  0238                     	__size_of_Trace_Control	equ	__end_of_Trace_Control-_Trace_Control
  1170                           	
  1171  0015                     _Trace_Control:	
  1172                           	opt	stack 3
  1173                           ; Regs used in _Trace_Control: [wreg-fsr0h+status,2+status,0+btemp+1+pclath+cstack]
  1174                           	line	75
  1175                           	
  1176  0015                     l12728:	
  1177                           ;Car_demo.c: 75: if(Circle_Mode == 0)
  1178  0015  1283               	bcf	status, 5	;RP0=0, select bank0
  1179  0016  1303               	bcf	status, 6	;RP1=0, select bank0
  1180  0017  08E5               	movf	(_Circle_Mode),f
  1181  0018  1D03               	skipz
  1182  0019  281B               	goto	u5971
  1183  001A  281C               	goto	u5970
  1184  001B                     u5971:
  1185  001B  2862               	goto	l12744
  1186  001C                     u5970:
  1187                           	line	77
  1188                           	
  1189  001C                     l12730:	
  1190                           ;Car_demo.c: 76: {
  1191                           ;Car_demo.c: 77: Motor_Speed_Set(Speed_Velcolity,Speed_Velcolity);
  1192  001C  086E               	movf	(_Speed_Velcolity),w
  1193  001D  1683               	bsf	status, 5	;RP0=1, select bank1
  1194  001E  1303               	bcf	status, 6	;RP1=0, select bank1
  1195  001F  00C6               	movwf	(??_Trace_Control+0)^080h+0
  1196  0020  01C7               	clrf	(??_Trace_Control+0)^080h+0+1
  1197  0021  0846               	movf	0+(??_Trace_Control+0)^080h+0,w
  1198  0022  1283               	bcf	status, 5	;RP0=0, select bank0
  1199  0023  1303               	bcf	status, 6	;RP1=0, select bank0
  1200  0024  00A0               	movwf	(?_Motor_Speed_Set)
  1201  0025  1683               	bsf	status, 5	;RP0=1, select bank1
  1202  0026  1303               	bcf	status, 6	;RP1=0, select bank1
  1203  0027  0847               	movf	1+(??_Trace_Control+0)^080h+0,w
  1204  0028  1283               	bcf	status, 5	;RP0=0, select bank0
  1205  0029  1303               	bcf	status, 6	;RP1=0, select bank0
  1206  002A  00A1               	movwf	(?_Motor_Speed_Set+1)
  1207  002B  086E               	movf	(_Speed_Velcolity),w
  1208  002C  1683               	bsf	status, 5	;RP0=1, select bank1
  1209  002D  1303               	bcf	status, 6	;RP1=0, select bank1
  1210  002E  00C8               	movwf	(??_Trace_Control+2)^080h+0
  1211  002F  01C9               	clrf	(??_Trace_Control+2)^080h+0+1
  1212  0030  0848               	movf	0+(??_Trace_Control+2)^080h+0,w
  1213  0031  1283               	bcf	status, 5	;RP0=0, select bank0
  1214  0032  1303               	bcf	status, 6	;RP1=0, select bank0
  1215  0033  00A2               	movwf	0+(?_Motor_Speed_Set)+02h
  1216  0034  1683               	bsf	status, 5	;RP0=1, select bank1
  1217  0035  1303               	bcf	status, 6	;RP1=0, select bank1
  1218  0036  0849               	movf	1+(??_Trace_Control+2)^080h+0,w
  1219  0037  1283               	bcf	status, 5	;RP0=0, select bank0
  1220  0038  1303               	bcf	status, 6	;RP1=0, select bank0
  1221  0039  00A3               	movwf	1+(?_Motor_Speed_Set)+02h
  1222  003A  120A  158A  2765   	fcall	_Motor_Speed_Set
              120A  118A         
  1223                           	line	79
  1224                           	
  1225  003F                     l12732:	
  1226                           ;Car_demo.c: 79: if(Start_PD() == 1)
  1227  003F  120A  118A  273D   	fcall	_Start_PD
              120A  118A         
  1228  0044  3001               	movlw	01h
  1229  0045  1283               	bcf	status, 5	;RP0=0, select bank0
  1230  0046  1303               	bcf	status, 6	;RP1=0, select bank0
  1231  0047  0620               	xorwf	(0+(?_Start_PD)),w
  1232  0048  0421               	iorwf	(1+(?_Start_PD)),w
  1233  0049  1D03               	skipz
  1234  004A  284C               	goto	u5981
  1235  004B  284D               	goto	u5980
  1236  004C                     u5981:
  1237  004C  2851               	goto	l12736
  1238  004D                     u5980:
  1239                           	line	81
  1240                           	
  1241  004D                     l12734:	
  1242                           ;Car_demo.c: 80: {
  1243                           ;Car_demo.c: 81: Start_Find_flag = 1;
  1244  004D  01E9               	clrf	(_Start_Find_flag)
  1245  004E  1403               	bsf	status,0
  1246  004F  0DE9               	rlf	(_Start_Find_flag),f
  1247  0050  2851               	goto	l12736
  1248                           	line	82
  1249                           	
  1250  0051                     l8577:	
  1251                           	line	84
  1252                           	
  1253  0051                     l12736:	
  1254                           ;Car_demo.c: 82: }
  1255                           ;Car_demo.c: 84: if(Encoder_Counter >200)
  1256  0051  3000               	movlw	high(0C9h)
  1257  0052  0264               	subwf	(_Encoder_Counter+1),w
  1258  0053  30C9               	movlw	low(0C9h)
  1259  0054  1903               	skipnz
  1260  0055  0263               	subwf	(_Encoder_Counter),w
  1261  0056  1C03               	skipc
  1262  0057  2859               	goto	u5991
  1263  0058  285A               	goto	u5990
  1264  0059                     u5991:
  1265  0059  2A4C               	goto	l8599
  1266  005A                     u5990:
  1267                           	line	86
  1268                           	
  1269  005A                     l12738:	
  1270                           ;Car_demo.c: 85: {
  1271                           ;Car_demo.c: 86: Start_Find_flag = 0;
  1272  005A  01E9               	clrf	(_Start_Find_flag)
  1273                           	line	87
  1274                           	
  1275  005B                     l12740:	
  1276                           ;Car_demo.c: 87: Encoder_Counter=0;
  1277  005B  01E3               	clrf	(_Encoder_Counter)
  1278  005C  01E4               	clrf	(_Encoder_Counter+1)
  1279                           	line	88
  1280                           	
  1281  005D                     l12742:	
  1282                           ;Car_demo.c: 88: Circle_Mode = 1;
  1283  005D  01E5               	clrf	(_Circle_Mode)
  1284  005E  1403               	bsf	status,0
  1285  005F  0DE5               	rlf	(_Circle_Mode),f
  1286  0060  2A4C               	goto	l8599
  1287                           	line	89
  1288                           	
  1289  0061                     l8578:	
  1290                           	line	90
  1291                           ;Car_demo.c: 89: }
  1292                           ;Car_demo.c: 90: }
  1293  0061  2A4C               	goto	l8599
  1294                           	line	91
  1295                           	
  1296  0062                     l8576:	
  1297                           	
  1298  0062                     l12744:	
  1299                           ;Car_demo.c: 91: else if(Circle_Mode == 1)
  1300  0062  0865               	movf	(_Circle_Mode),w
  1301  0063  3A01               	xorlw	01h
  1302  0064  1D03               	skipz
  1303  0065  2867               	goto	u6001
  1304  0066  2868               	goto	u6000
  1305  0067                     u6001:
  1306  0067  2904               	goto	l12770
  1307  0068                     u6000:
  1308                           	line	93
  1309                           	
  1310  0068                     l12746:	
  1311                           ;Car_demo.c: 92: {
  1312                           ;Car_demo.c: 93: if(Start_PD() == 1)
  1313  0068  120A  118A  273D   	fcall	_Start_PD
              120A  118A         
  1314  006D  3001               	movlw	01h
  1315  006E  1283               	bcf	status, 5	;RP0=0, select bank0
  1316  006F  1303               	bcf	status, 6	;RP1=0, select bank0
  1317  0070  0620               	xorwf	(0+(?_Start_PD)),w
  1318  0071  0421               	iorwf	(1+(?_Start_PD)),w
  1319  0072  1D03               	skipz
  1320  0073  2875               	goto	u6011
  1321  0074  2876               	goto	u6010
  1322  0075                     u6011:
  1323  0075  287A               	goto	l12750
  1324  0076                     u6010:
  1325                           	line	95
  1326                           	
  1327  0076                     l12748:	
  1328                           ;Car_demo.c: 94: {
  1329                           ;Car_demo.c: 95: Start_Find_flag =1;
  1330  0076  01E9               	clrf	(_Start_Find_flag)
  1331  0077  1403               	bsf	status,0
  1332  0078  0DE9               	rlf	(_Start_Find_flag),f
  1333  0079  287A               	goto	l12750
  1334                           	line	96
  1335                           	
  1336  007A                     l8581:	
  1337                           	line	98
  1338                           	
  1339  007A                     l12750:	
  1340                           ;Car_demo.c: 96: }
  1341                           ;Car_demo.c: 98: if(Start_Find_flag == 1)
  1342  007A  0869               	movf	(_Start_Find_flag),w
  1343  007B  3A01               	xorlw	01h
  1344  007C  1D03               	skipz
  1345  007D  287F               	goto	u6021
  1346  007E  2880               	goto	u6020
  1347  007F                     u6021:
  1348  007F  28BD               	goto	l12762
  1349  0080                     u6020:
  1350                           	line	100
  1351                           	
  1352  0080                     l12752:	
  1353                           ;Car_demo.c: 99: {
  1354                           ;Car_demo.c: 100: Motor_Speed_Set(Speed_Velcolity,Speed_Velcolity);
  1355  0080  086E               	movf	(_Speed_Velcolity),w
  1356  0081  1683               	bsf	status, 5	;RP0=1, select bank1
  1357  0082  1303               	bcf	status, 6	;RP1=0, select bank1
  1358  0083  00C6               	movwf	(??_Trace_Control+0)^080h+0
  1359  0084  01C7               	clrf	(??_Trace_Control+0)^080h+0+1
  1360  0085  0846               	movf	0+(??_Trace_Control+0)^080h+0,w
  1361  0086  1283               	bcf	status, 5	;RP0=0, select bank0
  1362  0087  1303               	bcf	status, 6	;RP1=0, select bank0
  1363  0088  00A0               	movwf	(?_Motor_Speed_Set)
  1364  0089  1683               	bsf	status, 5	;RP0=1, select bank1
  1365  008A  1303               	bcf	status, 6	;RP1=0, select bank1
  1366  008B  0847               	movf	1+(??_Trace_Control+0)^080h+0,w
  1367  008C  1283               	bcf	status, 5	;RP0=0, select bank0
  1368  008D  1303               	bcf	status, 6	;RP1=0, select bank0
  1369  008E  00A1               	movwf	(?_Motor_Speed_Set+1)
  1370  008F  086E               	movf	(_Speed_Velcolity),w
  1371  0090  1683               	bsf	status, 5	;RP0=1, select bank1
  1372  0091  1303               	bcf	status, 6	;RP1=0, select bank1
  1373  0092  00C8               	movwf	(??_Trace_Control+2)^080h+0
  1374  0093  01C9               	clrf	(??_Trace_Control+2)^080h+0+1
  1375  0094  0848               	movf	0+(??_Trace_Control+2)^080h+0,w
  1376  0095  1283               	bcf	status, 5	;RP0=0, select bank0
  1377  0096  1303               	bcf	status, 6	;RP1=0, select bank0
  1378  0097  00A2               	movwf	0+(?_Motor_Speed_Set)+02h
  1379  0098  1683               	bsf	status, 5	;RP0=1, select bank1
  1380  0099  1303               	bcf	status, 6	;RP1=0, select bank1
  1381  009A  0849               	movf	1+(??_Trace_Control+2)^080h+0,w
  1382  009B  1283               	bcf	status, 5	;RP0=0, select bank0
  1383  009C  1303               	bcf	status, 6	;RP1=0, select bank0
  1384  009D  00A3               	movwf	1+(?_Motor_Speed_Set)+02h
  1385  009E  120A  158A  2765   	fcall	_Motor_Speed_Set
              120A  118A         
  1386                           	line	101
  1387                           	
  1388  00A3                     l12754:	
  1389                           ;Car_demo.c: 101: if(Encoder_Counter > 200)
  1390  00A3  3000               	movlw	high(0C9h)
  1391  00A4  1283               	bcf	status, 5	;RP0=0, select bank0
  1392  00A5  1303               	bcf	status, 6	;RP1=0, select bank0
  1393  00A6  0264               	subwf	(_Encoder_Counter+1),w
  1394  00A7  30C9               	movlw	low(0C9h)
  1395  00A8  1903               	skipnz
  1396  00A9  0263               	subwf	(_Encoder_Counter),w
  1397  00AA  1C03               	skipc
  1398  00AB  28AD               	goto	u6031
  1399  00AC  28AE               	goto	u6030
  1400  00AD                     u6031:
  1401  00AD  2A4C               	goto	l8599
  1402  00AE                     u6030:
  1403                           	line	103
  1404                           	
  1405  00AE                     l12756:	
  1406                           ;Car_demo.c: 102: {
  1407                           ;Car_demo.c: 103: IO_flag = 1;
  1408  00AE  01E6               	clrf	(_IO_flag)
  1409  00AF  1403               	bsf	status,0
  1410  00B0  0DE6               	rlf	(_IO_flag),f
  1411                           	line	104
  1412                           	
  1413  00B1                     l12758:	
  1414                           ;Car_demo.c: 104: Encoder_Counter=0;
  1415  00B1  01E3               	clrf	(_Encoder_Counter)
  1416  00B2  01E4               	clrf	(_Encoder_Counter+1)
  1417                           	line	105
  1418                           	
  1419  00B3                     l12760:	
  1420                           ;Car_demo.c: 105: Circle_Mode = 2;
  1421  00B3  3002               	movlw	(02h)
  1422  00B4  1683               	bsf	status, 5	;RP0=1, select bank1
  1423  00B5  1303               	bcf	status, 6	;RP1=0, select bank1
  1424  00B6  00C6               	movwf	(??_Trace_Control+0)^080h+0
  1425  00B7  0846               	movf	(??_Trace_Control+0)^080h+0,w
  1426  00B8  1283               	bcf	status, 5	;RP0=0, select bank0
  1427  00B9  1303               	bcf	status, 6	;RP1=0, select bank0
  1428  00BA  00E5               	movwf	(_Circle_Mode)
  1429  00BB  2A4C               	goto	l8599
  1430                           	line	106
  1431                           	
  1432  00BC                     l8583:	
  1433                           	line	107
  1434                           ;Car_demo.c: 106: }
  1435                           ;Car_demo.c: 107: }
  1436  00BC  2A4C               	goto	l8599
  1437                           	line	108
  1438                           	
  1439  00BD                     l8582:	
  1440                           	line	110
  1441                           	
  1442  00BD                     l12762:	
  1443                           ;Car_demo.c: 108: else
  1444                           ;Car_demo.c: 109: {
  1445                           ;Car_demo.c: 110: Turn_PWM = Trace_PID();
  1446  00BD  120A  118A  224D   	fcall	_Trace_PID
              120A  118A         
  1447  00C2  1283               	bcf	status, 5	;RP0=0, select bank0
  1448  00C3  1303               	bcf	status, 6	;RP1=0, select bank0
  1449  00C4  0859               	movf	(0+(?_Trace_PID)),w
  1450  00C5  1683               	bsf	status, 5	;RP0=1, select bank1
  1451  00C6  1303               	bcf	status, 6	;RP1=0, select bank1
  1452  00C7  00C6               	movwf	(??_Trace_Control+0)^080h+0
  1453  00C8  0846               	movf	(??_Trace_Control+0)^080h+0,w
  1454  00C9  1283               	bcf	status, 5	;RP0=0, select bank0
  1455  00CA  1303               	bcf	status, 6	;RP1=0, select bank0
  1456  00CB  00ED               	movwf	(_Turn_PWM)
  1457                           	line	111
  1458                           	
  1459  00CC                     l12764:	
  1460                           ;Car_demo.c: 111: Speed_left = Speed_Velcolity - Turn_PWM;
  1461  00CC  036D               	decf	(_Turn_PWM),w
  1462  00CD  3AFF               	xorlw	0ffh
  1463  00CE  076E               	addwf	(_Speed_Velcolity),w
  1464  00CF  1683               	bsf	status, 5	;RP0=1, select bank1
  1465  00D0  1303               	bcf	status, 6	;RP1=0, select bank1
  1466  00D1  00C6               	movwf	(??_Trace_Control+0)^080h+0
  1467  00D2  0846               	movf	(??_Trace_Control+0)^080h+0,w
  1468  00D3  1283               	bcf	status, 5	;RP0=0, select bank0
  1469  00D4  1303               	bcf	status, 6	;RP1=0, select bank0
  1470  00D5  00E7               	movwf	(_Speed_left)
  1471                           	line	112
  1472                           	
  1473  00D6                     l12766:	
  1474                           ;Car_demo.c: 112: Speed_right = Speed_Velcolity + Turn_PWM;
  1475  00D6  086D               	movf	(_Turn_PWM),w
  1476  00D7  076E               	addwf	(_Speed_Velcolity),w
  1477  00D8  1683               	bsf	status, 5	;RP0=1, select bank1
  1478  00D9  1303               	bcf	status, 6	;RP1=0, select bank1
  1479  00DA  00C6               	movwf	(??_Trace_Control+0)^080h+0
  1480  00DB  0846               	movf	(??_Trace_Control+0)^080h+0,w
  1481  00DC  1283               	bcf	status, 5	;RP0=0, select bank0
  1482  00DD  1303               	bcf	status, 6	;RP1=0, select bank0
  1483  00DE  00E8               	movwf	(_Speed_right)
  1484                           	line	113
  1485                           	
  1486  00DF                     l12768:	
  1487                           ;Car_demo.c: 113: Motor_Speed_Set(Speed_left,Speed_right);
  1488  00DF  0867               	movf	(_Speed_left),w
  1489  00E0  1683               	bsf	status, 5	;RP0=1, select bank1
  1490  00E1  1303               	bcf	status, 6	;RP1=0, select bank1
  1491  00E2  00C6               	movwf	(??_Trace_Control+0)^080h+0
  1492  00E3  01C7               	clrf	(??_Trace_Control+0)^080h+0+1
  1493  00E4  0846               	movf	0+(??_Trace_Control+0)^080h+0,w
  1494  00E5  1283               	bcf	status, 5	;RP0=0, select bank0
  1495  00E6  1303               	bcf	status, 6	;RP1=0, select bank0
  1496  00E7  00A0               	movwf	(?_Motor_Speed_Set)
  1497  00E8  1683               	bsf	status, 5	;RP0=1, select bank1
  1498  00E9  1303               	bcf	status, 6	;RP1=0, select bank1
  1499  00EA  0847               	movf	1+(??_Trace_Control+0)^080h+0,w
  1500  00EB  1283               	bcf	status, 5	;RP0=0, select bank0
  1501  00EC  1303               	bcf	status, 6	;RP1=0, select bank0
  1502  00ED  00A1               	movwf	(?_Motor_Speed_Set+1)
  1503  00EE  0868               	movf	(_Speed_right),w
  1504  00EF  1683               	bsf	status, 5	;RP0=1, select bank1
  1505  00F0  1303               	bcf	status, 6	;RP1=0, select bank1
  1506  00F1  00C8               	movwf	(??_Trace_Control+2)^080h+0
  1507  00F2  01C9               	clrf	(??_Trace_Control+2)^080h+0+1
  1508  00F3  0848               	movf	0+(??_Trace_Control+2)^080h+0,w
  1509  00F4  1283               	bcf	status, 5	;RP0=0, select bank0
  1510  00F5  1303               	bcf	status, 6	;RP1=0, select bank0
  1511  00F6  00A2               	movwf	0+(?_Motor_Speed_Set)+02h
  1512  00F7  1683               	bsf	status, 5	;RP0=1, select bank1
  1513  00F8  1303               	bcf	status, 6	;RP1=0, select bank1
  1514  00F9  0849               	movf	1+(??_Trace_Control+2)^080h+0,w
  1515  00FA  1283               	bcf	status, 5	;RP0=0, select bank0
  1516  00FB  1303               	bcf	status, 6	;RP1=0, select bank0
  1517  00FC  00A3               	movwf	1+(?_Motor_Speed_Set)+02h
  1518  00FD  120A  158A  2765   	fcall	_Motor_Speed_Set
              120A  118A         
  1519  0102  2A4C               	goto	l8599
  1520                           	line	114
  1521                           	
  1522  0103                     l8584:	
  1523                           	line	115
  1524                           ;Car_demo.c: 114: }
  1525                           ;Car_demo.c: 115: }
  1526  0103  2A4C               	goto	l8599
  1527                           	line	116
  1528                           	
  1529  0104                     l8580:	
  1530                           	
  1531  0104                     l12770:	
  1532                           ;Car_demo.c: 116: else if(Circle_Mode == 2)
  1533  0104  1283               	bcf	status, 5	;RP0=0, select bank0
  1534  0105  1303               	bcf	status, 6	;RP1=0, select bank0
  1535  0106  0865               	movf	(_Circle_Mode),w
  1536  0107  3A02               	xorlw	02h
  1537  0108  1D03               	skipz
  1538  0109  290B               	goto	u6041
  1539  010A  290C               	goto	u6040
  1540  010B                     u6041:
  1541  010B  29D3               	goto	l12810
  1542  010C                     u6040:
  1543                           	line	118
  1544                           	
  1545  010C                     l12772:	
  1546                           ;Car_demo.c: 117: {
  1547                           ;Car_demo.c: 118: if(IO_flag == 0)
  1548  010C  08E6               	movf	(_IO_flag),f
  1549  010D  1D03               	skipz
  1550  010E  2910               	goto	u6051
  1551  010F  2911               	goto	u6050
  1552  0110                     u6051:
  1553  0110  29B2               	goto	l12800
  1554  0111                     u6050:
  1555                           	line	120
  1556                           	
  1557  0111                     l12774:	
  1558                           ;Car_demo.c: 119: {
  1559                           ;Car_demo.c: 120: if(Start_PD() == 1)
  1560  0111  120A  118A  273D   	fcall	_Start_PD
              120A  118A         
  1561  0116  3001               	movlw	01h
  1562  0117  1283               	bcf	status, 5	;RP0=0, select bank0
  1563  0118  1303               	bcf	status, 6	;RP1=0, select bank0
  1564  0119  0620               	xorwf	(0+(?_Start_PD)),w
  1565  011A  0421               	iorwf	(1+(?_Start_PD)),w
  1566  011B  1D03               	skipz
  1567  011C  291E               	goto	u6061
  1568  011D  291F               	goto	u6060
  1569  011E                     u6061:
  1570  011E  292B               	goto	l12780
  1571  011F                     u6060:
  1572                           	line	122
  1573                           	
  1574  011F                     l12776:	
  1575                           ;Car_demo.c: 121: {
  1576                           ;Car_demo.c: 122: putch(3);
  1577  011F  3003               	movlw	(03h)
  1578  0120  120A  118A  27F2   	fcall	_putch
              120A  118A         
  1579                           	line	123
  1580                           	
  1581  0125                     l12778:	
  1582                           ;Car_demo.c: 123: Start_Find_flag = 1;
  1583  0125  1283               	bcf	status, 5	;RP0=0, select bank0
  1584  0126  1303               	bcf	status, 6	;RP1=0, select bank0
  1585  0127  01E9               	clrf	(_Start_Find_flag)
  1586  0128  1403               	bsf	status,0
  1587  0129  0DE9               	rlf	(_Start_Find_flag),f
  1588  012A  292B               	goto	l12780
  1589                           	line	124
  1590                           	
  1591  012B                     l8588:	
  1592                           	line	126
  1593                           	
  1594  012B                     l12780:	
  1595                           ;Car_demo.c: 124: }
  1596                           ;Car_demo.c: 126: if(Start_Find_flag)
  1597  012B  0869               	movf	(_Start_Find_flag),w
  1598  012C  1D03               	skipz
  1599  012D  292F               	goto	u6070
  1600  012E  296B               	goto	l12792
  1601  012F                     u6070:
  1602                           	line	128
  1603                           	
  1604  012F                     l12782:	
  1605                           ;Car_demo.c: 127: {
  1606                           ;Car_demo.c: 128: Motor_Speed_Set(Speed_Velcolity,Speed_Velcolity);
  1607  012F  086E               	movf	(_Speed_Velcolity),w
  1608  0130  1683               	bsf	status, 5	;RP0=1, select bank1
  1609  0131  1303               	bcf	status, 6	;RP1=0, select bank1
  1610  0132  00C6               	movwf	(??_Trace_Control+0)^080h+0
  1611  0133  01C7               	clrf	(??_Trace_Control+0)^080h+0+1
  1612  0134  0846               	movf	0+(??_Trace_Control+0)^080h+0,w
  1613  0135  1283               	bcf	status, 5	;RP0=0, select bank0
  1614  0136  1303               	bcf	status, 6	;RP1=0, select bank0
  1615  0137  00A0               	movwf	(?_Motor_Speed_Set)
  1616  0138  1683               	bsf	status, 5	;RP0=1, select bank1
  1617  0139  1303               	bcf	status, 6	;RP1=0, select bank1
  1618  013A  0847               	movf	1+(??_Trace_Control+0)^080h+0,w
  1619  013B  1283               	bcf	status, 5	;RP0=0, select bank0
  1620  013C  1303               	bcf	status, 6	;RP1=0, select bank0
  1621  013D  00A1               	movwf	(?_Motor_Speed_Set+1)
  1622  013E  086E               	movf	(_Speed_Velcolity),w
  1623  013F  1683               	bsf	status, 5	;RP0=1, select bank1
  1624  0140  1303               	bcf	status, 6	;RP1=0, select bank1
  1625  0141  00C8               	movwf	(??_Trace_Control+2)^080h+0
  1626  0142  01C9               	clrf	(??_Trace_Control+2)^080h+0+1
  1627  0143  0848               	movf	0+(??_Trace_Control+2)^080h+0,w
  1628  0144  1283               	bcf	status, 5	;RP0=0, select bank0
  1629  0145  1303               	bcf	status, 6	;RP1=0, select bank0
  1630  0146  00A2               	movwf	0+(?_Motor_Speed_Set)+02h
  1631  0147  1683               	bsf	status, 5	;RP0=1, select bank1
  1632  0148  1303               	bcf	status, 6	;RP1=0, select bank1
  1633  0149  0849               	movf	1+(??_Trace_Control+2)^080h+0,w
  1634  014A  1283               	bcf	status, 5	;RP0=0, select bank0
  1635  014B  1303               	bcf	status, 6	;RP1=0, select bank0
  1636  014C  00A3               	movwf	1+(?_Motor_Speed_Set)+02h
  1637  014D  120A  158A  2765   	fcall	_Motor_Speed_Set
              120A  118A         
  1638                           	line	129
  1639                           	
  1640  0152                     l12784:	
  1641                           ;Car_demo.c: 129: if(Encoder_Counter > 120)
  1642  0152  3000               	movlw	high(079h)
  1643  0153  1283               	bcf	status, 5	;RP0=0, select bank0
  1644  0154  1303               	bcf	status, 6	;RP1=0, select bank0
  1645  0155  0264               	subwf	(_Encoder_Counter+1),w
  1646  0156  3079               	movlw	low(079h)
  1647  0157  1903               	skipnz
  1648  0158  0263               	subwf	(_Encoder_Counter),w
  1649  0159  1C03               	skipc
  1650  015A  295C               	goto	u6081
  1651  015B  295D               	goto	u6080
  1652  015C                     u6081:
  1653  015C  2A4C               	goto	l8599
  1654  015D                     u6080:
  1655                           	line	131
  1656                           	
  1657  015D                     l12786:	
  1658                           ;Car_demo.c: 130: {
  1659                           ;Car_demo.c: 131: Start_Find_flag = 0;
  1660  015D  01E9               	clrf	(_Start_Find_flag)
  1661                           	line	132
  1662                           ;Car_demo.c: 132: IO_flag = 0;
  1663  015E  01E6               	clrf	(_IO_flag)
  1664                           	line	133
  1665                           	
  1666  015F                     l12788:	
  1667                           ;Car_demo.c: 133: Encoder_Counter=0;
  1668  015F  01E3               	clrf	(_Encoder_Counter)
  1669  0160  01E4               	clrf	(_Encoder_Counter+1)
  1670                           	line	134
  1671                           	
  1672  0161                     l12790:	
  1673                           ;Car_demo.c: 134: Circle_Mode = 3;
  1674  0161  3003               	movlw	(03h)
  1675  0162  1683               	bsf	status, 5	;RP0=1, select bank1
  1676  0163  1303               	bcf	status, 6	;RP1=0, select bank1
  1677  0164  00C6               	movwf	(??_Trace_Control+0)^080h+0
  1678  0165  0846               	movf	(??_Trace_Control+0)^080h+0,w
  1679  0166  1283               	bcf	status, 5	;RP0=0, select bank0
  1680  0167  1303               	bcf	status, 6	;RP1=0, select bank0
  1681  0168  00E5               	movwf	(_Circle_Mode)
  1682  0169  2A4C               	goto	l8599
  1683                           	line	135
  1684                           	
  1685  016A                     l8590:	
  1686                           	line	136
  1687                           ;Car_demo.c: 135: }
  1688                           ;Car_demo.c: 136: }
  1689  016A  2A4C               	goto	l8599
  1690                           	line	137
  1691                           	
  1692  016B                     l8589:	
  1693                           	line	139
  1694                           	
  1695  016B                     l12792:	
  1696                           ;Car_demo.c: 137: else
  1697                           ;Car_demo.c: 138: {
  1698                           ;Car_demo.c: 139: Turn_PWM = Trace_PID();
  1699  016B  120A  118A  224D   	fcall	_Trace_PID
              120A  118A         
  1700  0170  1283               	bcf	status, 5	;RP0=0, select bank0
  1701  0171  1303               	bcf	status, 6	;RP1=0, select bank0
  1702  0172  0859               	movf	(0+(?_Trace_PID)),w
  1703  0173  1683               	bsf	status, 5	;RP0=1, select bank1
  1704  0174  1303               	bcf	status, 6	;RP1=0, select bank1
  1705  0175  00C6               	movwf	(??_Trace_Control+0)^080h+0
  1706  0176  0846               	movf	(??_Trace_Control+0)^080h+0,w
  1707  0177  1283               	bcf	status, 5	;RP0=0, select bank0
  1708  0178  1303               	bcf	status, 6	;RP1=0, select bank0
  1709  0179  00ED               	movwf	(_Turn_PWM)
  1710                           	line	140
  1711                           	
  1712  017A                     l12794:	
  1713                           ;Car_demo.c: 140: Speed_left = Speed_Velcolity - Turn_PWM;
  1714  017A  036D               	decf	(_Turn_PWM),w
  1715  017B  3AFF               	xorlw	0ffh
  1716  017C  076E               	addwf	(_Speed_Velcolity),w
  1717  017D  1683               	bsf	status, 5	;RP0=1, select bank1
  1718  017E  1303               	bcf	status, 6	;RP1=0, select bank1
  1719  017F  00C6               	movwf	(??_Trace_Control+0)^080h+0
  1720  0180  0846               	movf	(??_Trace_Control+0)^080h+0,w
  1721  0181  1283               	bcf	status, 5	;RP0=0, select bank0
  1722  0182  1303               	bcf	status, 6	;RP1=0, select bank0
  1723  0183  00E7               	movwf	(_Speed_left)
  1724                           	line	141
  1725                           	
  1726  0184                     l12796:	
  1727                           ;Car_demo.c: 141: Speed_right = Speed_Velcolity + Turn_PWM;
  1728  0184  086D               	movf	(_Turn_PWM),w
  1729  0185  076E               	addwf	(_Speed_Velcolity),w
  1730  0186  1683               	bsf	status, 5	;RP0=1, select bank1
  1731  0187  1303               	bcf	status, 6	;RP1=0, select bank1
  1732  0188  00C6               	movwf	(??_Trace_Control+0)^080h+0
  1733  0189  0846               	movf	(??_Trace_Control+0)^080h+0,w
  1734  018A  1283               	bcf	status, 5	;RP0=0, select bank0
  1735  018B  1303               	bcf	status, 6	;RP1=0, select bank0
  1736  018C  00E8               	movwf	(_Speed_right)
  1737                           	line	142
  1738                           	
  1739  018D                     l12798:	
  1740                           ;Car_demo.c: 142: Motor_Speed_Set(Speed_left,Speed_right);
  1741  018D  0867               	movf	(_Speed_left),w
  1742  018E  1683               	bsf	status, 5	;RP0=1, select bank1
  1743  018F  1303               	bcf	status, 6	;RP1=0, select bank1
  1744  0190  00C6               	movwf	(??_Trace_Control+0)^080h+0
  1745  0191  01C7               	clrf	(??_Trace_Control+0)^080h+0+1
  1746  0192  0846               	movf	0+(??_Trace_Control+0)^080h+0,w
  1747  0193  1283               	bcf	status, 5	;RP0=0, select bank0
  1748  0194  1303               	bcf	status, 6	;RP1=0, select bank0
  1749  0195  00A0               	movwf	(?_Motor_Speed_Set)
  1750  0196  1683               	bsf	status, 5	;RP0=1, select bank1
  1751  0197  1303               	bcf	status, 6	;RP1=0, select bank1
  1752  0198  0847               	movf	1+(??_Trace_Control+0)^080h+0,w
  1753  0199  1283               	bcf	status, 5	;RP0=0, select bank0
  1754  019A  1303               	bcf	status, 6	;RP1=0, select bank0
  1755  019B  00A1               	movwf	(?_Motor_Speed_Set+1)
  1756  019C  0868               	movf	(_Speed_right),w
  1757  019D  1683               	bsf	status, 5	;RP0=1, select bank1
  1758  019E  1303               	bcf	status, 6	;RP1=0, select bank1
  1759  019F  00C8               	movwf	(??_Trace_Control+2)^080h+0
  1760  01A0  01C9               	clrf	(??_Trace_Control+2)^080h+0+1
  1761  01A1  0848               	movf	0+(??_Trace_Control+2)^080h+0,w
  1762  01A2  1283               	bcf	status, 5	;RP0=0, select bank0
  1763  01A3  1303               	bcf	status, 6	;RP1=0, select bank0
  1764  01A4  00A2               	movwf	0+(?_Motor_Speed_Set)+02h
  1765  01A5  1683               	bsf	status, 5	;RP0=1, select bank1
  1766  01A6  1303               	bcf	status, 6	;RP1=0, select bank1
  1767  01A7  0849               	movf	1+(??_Trace_Control+2)^080h+0,w
  1768  01A8  1283               	bcf	status, 5	;RP0=0, select bank0
  1769  01A9  1303               	bcf	status, 6	;RP1=0, select bank0
  1770  01AA  00A3               	movwf	1+(?_Motor_Speed_Set)+02h
  1771  01AB  120A  158A  2765   	fcall	_Motor_Speed_Set
              120A  118A         
  1772  01B0  2A4C               	goto	l8599
  1773                           	line	143
  1774                           	
  1775  01B1                     l8591:	
  1776                           	line	144
  1777                           ;Car_demo.c: 143: }
  1778                           ;Car_demo.c: 144: }
  1779  01B1  2A4C               	goto	l8599
  1780                           	line	145
  1781                           	
  1782  01B2                     l8587:	
  1783                           	line	147
  1784                           	
  1785  01B2                     l12800:	
  1786                           ;Car_demo.c: 145: else
  1787                           ;Car_demo.c: 146: {
  1788                           ;Car_demo.c: 147: Motor_Speed_Set(20,60);
  1789  01B2  3014               	movlw	low(014h)
  1790  01B3  1283               	bcf	status, 5	;RP0=0, select bank0
  1791  01B4  1303               	bcf	status, 6	;RP1=0, select bank0
  1792  01B5  00A0               	movwf	(?_Motor_Speed_Set)
  1793  01B6  3000               	movlw	high(014h)
  1794  01B7  00A1               	movwf	((?_Motor_Speed_Set))+1
  1795  01B8  303C               	movlw	low(03Ch)
  1796  01B9  00A2               	movwf	0+(?_Motor_Speed_Set)+02h
  1797  01BA  3000               	movlw	high(03Ch)
  1798  01BB  00A3               	movwf	(0+(?_Motor_Speed_Set)+02h)+1
  1799  01BC  120A  158A  2765   	fcall	_Motor_Speed_Set
              120A  118A         
  1800                           	line	148
  1801                           	
  1802  01C1                     l12802:	
  1803                           ;Car_demo.c: 148: if(Encoder_Counter > 320)
  1804  01C1  3001               	movlw	high(0141h)
  1805  01C2  1283               	bcf	status, 5	;RP0=0, select bank0
  1806  01C3  1303               	bcf	status, 6	;RP1=0, select bank0
  1807  01C4  0264               	subwf	(_Encoder_Counter+1),w
  1808  01C5  3041               	movlw	low(0141h)
  1809  01C6  1903               	skipnz
  1810  01C7  0263               	subwf	(_Encoder_Counter),w
  1811  01C8  1C03               	skipc
  1812  01C9  29CB               	goto	u6091
  1813  01CA  29CC               	goto	u6090
  1814  01CB                     u6091:
  1815  01CB  2A4C               	goto	l8599
  1816  01CC                     u6090:
  1817                           	line	150
  1818                           	
  1819  01CC                     l12804:	
  1820                           ;Car_demo.c: 149: {
  1821                           ;Car_demo.c: 150: Start_Find_flag = 0;
  1822  01CC  01E9               	clrf	(_Start_Find_flag)
  1823                           	line	151
  1824                           	
  1825  01CD                     l12806:	
  1826                           ;Car_demo.c: 151: Encoder_Counter=0;
  1827  01CD  01E3               	clrf	(_Encoder_Counter)
  1828  01CE  01E4               	clrf	(_Encoder_Counter+1)
  1829                           	line	152
  1830                           	
  1831  01CF                     l12808:	
  1832                           ;Car_demo.c: 152: IO_flag = 0;
  1833  01CF  01E6               	clrf	(_IO_flag)
  1834  01D0  2A4C               	goto	l8599
  1835                           	line	153
  1836                           	
  1837  01D1                     l8593:	
  1838  01D1  2A4C               	goto	l8599
  1839                           	line	155
  1840                           	
  1841  01D2                     l8592:	
  1842                           	line	156
  1843                           ;Car_demo.c: 153: }
  1844                           ;Car_demo.c: 155: }
  1845                           ;Car_demo.c: 156: }
  1846  01D2  2A4C               	goto	l8599
  1847                           	line	157
  1848                           	
  1849  01D3                     l8586:	
  1850                           	
  1851  01D3                     l12810:	
  1852                           ;Car_demo.c: 157: else if(Circle_Mode == 3)
  1853  01D3  0865               	movf	(_Circle_Mode),w
  1854  01D4  3A03               	xorlw	03h
  1855  01D5  1D03               	skipz
  1856  01D6  29D8               	goto	u6101
  1857  01D7  29D9               	goto	u6100
  1858  01D8                     u6101:
  1859  01D8  2A4C               	goto	l8599
  1860  01D9                     u6100:
  1861                           	line	159
  1862                           	
  1863  01D9                     l12812:	
  1864                           ;Car_demo.c: 158: {
  1865                           ;Car_demo.c: 159: if(Start_PD() == 1)
  1866  01D9  120A  118A  273D   	fcall	_Start_PD
              120A  118A         
  1867  01DE  3001               	movlw	01h
  1868  01DF  1283               	bcf	status, 5	;RP0=0, select bank0
  1869  01E0  1303               	bcf	status, 6	;RP1=0, select bank0
  1870  01E1  0620               	xorwf	(0+(?_Start_PD)),w
  1871  01E2  0421               	iorwf	(1+(?_Start_PD)),w
  1872  01E3  1D03               	skipz
  1873  01E4  29E6               	goto	u6111
  1874  01E5  29E7               	goto	u6110
  1875  01E6                     u6111:
  1876  01E6  29EE               	goto	l12816
  1877  01E7                     u6110:
  1878                           	line	161
  1879                           	
  1880  01E7                     l12814:	
  1881                           ;Car_demo.c: 160: {
  1882                           ;Car_demo.c: 161: Start_Find_flag = 1;
  1883  01E7  01E9               	clrf	(_Start_Find_flag)
  1884  01E8  1403               	bsf	status,0
  1885  01E9  0DE9               	rlf	(_Start_Find_flag),f
  1886                           	line	162
  1887                           ;Car_demo.c: 162: Stop_Flag=1;
  1888  01EA  01EA               	clrf	(_Stop_Flag)
  1889  01EB  1403               	bsf	status,0
  1890  01EC  0DEA               	rlf	(_Stop_Flag),f
  1891  01ED  29EE               	goto	l12816
  1892                           	line	163
  1893                           	
  1894  01EE                     l8596:	
  1895                           	line	165
  1896                           	
  1897  01EE                     l12816:	
  1898                           ;Car_demo.c: 163: }
  1899                           ;Car_demo.c: 165: if(Stop_Flag == 1)
  1900  01EE  086A               	movf	(_Stop_Flag),w
  1901  01EF  3A01               	xorlw	01h
  1902  01F0  1D03               	skipz
  1903  01F1  29F3               	goto	u6121
  1904  01F2  29F4               	goto	u6120
  1905  01F3                     u6121:
  1906  01F3  2A02               	goto	l12820
  1907  01F4                     u6120:
  1908                           	line	167
  1909                           	
  1910  01F4                     l12818:	
  1911                           ;Car_demo.c: 166: {
  1912                           ;Car_demo.c: 167: Motor_Speed_Set(0,0);
  1913  01F4  3000               	movlw	low(0)
  1914  01F5  00A0               	movwf	(?_Motor_Speed_Set)
  1915  01F6  3000               	movlw	high(0)
  1916  01F7  00A1               	movwf	((?_Motor_Speed_Set))+1
  1917  01F8  3000               	movlw	low(0)
  1918  01F9  00A2               	movwf	0+(?_Motor_Speed_Set)+02h
  1919  01FA  3000               	movlw	high(0)
  1920  01FB  00A3               	movwf	(0+(?_Motor_Speed_Set)+02h)+1
  1921  01FC  120A  158A  2765   	fcall	_Motor_Speed_Set
              120A  118A         
  1922                           	line	168
  1923                           ;Car_demo.c: 168: }
  1924  0201  2A4C               	goto	l8599
  1925                           	line	169
  1926                           	
  1927  0202                     l8597:	
  1928                           	line	171
  1929                           	
  1930  0202                     l12820:	
  1931                           ;Car_demo.c: 169: else
  1932                           ;Car_demo.c: 170: {
  1933                           ;Car_demo.c: 171: Turn_PWM = Trace_PID();
  1934  0202  120A  118A  224D   	fcall	_Trace_PID
              120A  118A         
  1935  0207  1283               	bcf	status, 5	;RP0=0, select bank0
  1936  0208  1303               	bcf	status, 6	;RP1=0, select bank0
  1937  0209  0859               	movf	(0+(?_Trace_PID)),w
  1938  020A  1683               	bsf	status, 5	;RP0=1, select bank1
  1939  020B  1303               	bcf	status, 6	;RP1=0, select bank1
  1940  020C  00C6               	movwf	(??_Trace_Control+0)^080h+0
  1941  020D  0846               	movf	(??_Trace_Control+0)^080h+0,w
  1942  020E  1283               	bcf	status, 5	;RP0=0, select bank0
  1943  020F  1303               	bcf	status, 6	;RP1=0, select bank0
  1944  0210  00ED               	movwf	(_Turn_PWM)
  1945                           	line	172
  1946                           	
  1947  0211                     l12822:	
  1948                           ;Car_demo.c: 172: Speed_left = Speed_Velcolity - Turn_PWM;
  1949  0211  036D               	decf	(_Turn_PWM),w
  1950  0212  3AFF               	xorlw	0ffh
  1951  0213  076E               	addwf	(_Speed_Velcolity),w
  1952  0214  1683               	bsf	status, 5	;RP0=1, select bank1
  1953  0215  1303               	bcf	status, 6	;RP1=0, select bank1
  1954  0216  00C6               	movwf	(??_Trace_Control+0)^080h+0
  1955  0217  0846               	movf	(??_Trace_Control+0)^080h+0,w
  1956  0218  1283               	bcf	status, 5	;RP0=0, select bank0
  1957  0219  1303               	bcf	status, 6	;RP1=0, select bank0
  1958  021A  00E7               	movwf	(_Speed_left)
  1959                           	line	173
  1960                           	
  1961  021B                     l12824:	
  1962                           ;Car_demo.c: 173: Speed_right = Speed_Velcolity + Turn_PWM;
  1963  021B  086D               	movf	(_Turn_PWM),w
  1964  021C  076E               	addwf	(_Speed_Velcolity),w
  1965  021D  1683               	bsf	status, 5	;RP0=1, select bank1
  1966  021E  1303               	bcf	status, 6	;RP1=0, select bank1
  1967  021F  00C6               	movwf	(??_Trace_Control+0)^080h+0
  1968  0220  0846               	movf	(??_Trace_Control+0)^080h+0,w
  1969  0221  1283               	bcf	status, 5	;RP0=0, select bank0
  1970  0222  1303               	bcf	status, 6	;RP1=0, select bank0
  1971  0223  00E8               	movwf	(_Speed_right)
  1972                           	line	174
  1973                           	
  1974  0224                     l12826:	
  1975                           ;Car_demo.c: 174: Motor_Speed_Set(Speed_left,Speed_right);
  1976  0224  0867               	movf	(_Speed_left),w
  1977  0225  1683               	bsf	status, 5	;RP0=1, select bank1
  1978  0226  1303               	bcf	status, 6	;RP1=0, select bank1
  1979  0227  00C6               	movwf	(??_Trace_Control+0)^080h+0
  1980  0228  01C7               	clrf	(??_Trace_Control+0)^080h+0+1
  1981  0229  0846               	movf	0+(??_Trace_Control+0)^080h+0,w
  1982  022A  1283               	bcf	status, 5	;RP0=0, select bank0
  1983  022B  1303               	bcf	status, 6	;RP1=0, select bank0
  1984  022C  00A0               	movwf	(?_Motor_Speed_Set)
  1985  022D  1683               	bsf	status, 5	;RP0=1, select bank1
  1986  022E  1303               	bcf	status, 6	;RP1=0, select bank1
  1987  022F  0847               	movf	1+(??_Trace_Control+0)^080h+0,w
  1988  0230  1283               	bcf	status, 5	;RP0=0, select bank0
  1989  0231  1303               	bcf	status, 6	;RP1=0, select bank0
  1990  0232  00A1               	movwf	(?_Motor_Speed_Set+1)
  1991  0233  0868               	movf	(_Speed_right),w
  1992  0234  1683               	bsf	status, 5	;RP0=1, select bank1
  1993  0235  1303               	bcf	status, 6	;RP1=0, select bank1
  1994  0236  00C8               	movwf	(??_Trace_Control+2)^080h+0
  1995  0237  01C9               	clrf	(??_Trace_Control+2)^080h+0+1
  1996  0238  0848               	movf	0+(??_Trace_Control+2)^080h+0,w
  1997  0239  1283               	bcf	status, 5	;RP0=0, select bank0
  1998  023A  1303               	bcf	status, 6	;RP1=0, select bank0
  1999  023B  00A2               	movwf	0+(?_Motor_Speed_Set)+02h
  2000  023C  1683               	bsf	status, 5	;RP0=1, select bank1
  2001  023D  1303               	bcf	status, 6	;RP1=0, select bank1
  2002  023E  0849               	movf	1+(??_Trace_Control+2)^080h+0,w
  2003  023F  1283               	bcf	status, 5	;RP0=0, select bank0
  2004  0240  1303               	bcf	status, 6	;RP1=0, select bank0
  2005  0241  00A3               	movwf	1+(?_Motor_Speed_Set)+02h
  2006  0242  120A  158A  2765   	fcall	_Motor_Speed_Set
              120A  118A         
  2007  0247  2A4C               	goto	l8599
  2008                           	line	175
  2009                           	
  2010  0248                     l8598:	
  2011  0248  2A4C               	goto	l8599
  2012                           	line	176
  2013                           	
  2014  0249                     l8595:	
  2015  0249  2A4C               	goto	l8599
  2016                           	line	177
  2017                           	
  2018  024A                     l8594:	
  2019  024A  2A4C               	goto	l8599
  2020                           	
  2021  024B                     l8585:	
  2022  024B  2A4C               	goto	l8599
  2023                           	
  2024  024C                     l8579:	
  2025                           	
  2026  024C                     l8599:	
  2027  024C  0008               	return
  2028                           	opt stack 0
  2029                           GLOBAL	__end_of_Trace_Control
  2030  024D                     	__end_of_Trace_Control:
  2031 ;; =============== function _Trace_Control ends ============
  2032                           
  2033                           	signat	_Trace_Control,88
  2034                           	global	_Trace_PID
  2035                           psect	text843,local,class=CODE,delta=2
  2036                           global __ptext843
  2037  024D                     __ptext843:
  2038                           
  2039 ;; *************** function _Trace_PID *****************
  2040 ;; Defined at:
  2041 ;;		line 33 in file "D:\6_pic_project\00_Design_Flow_Car\Driver\pid.c"
  2042 ;; Parameters:    Size  Location     Type
  2043 ;;		None
  2044 ;; Auto vars:     Size  Location     Type
  2045 ;;		None
  2046 ;; Return value:  Size  Location     Type
  2047 ;;                  2   57[BANK0 ] int 
  2048 ;; Registers used:
  2049 ;;		wreg, fsr0l, fsr0h, status,2, status,0, pclath, cstack
  2050 ;; Tracked objects:
  2051 ;;		On entry : 0/0
  2052 ;;		On exit  : 0/0
  2053 ;;		Unchanged: 0/0
  2054 ;; Data sizes:     COMMON   BANK0   BANK1   BANK3   BANK2
  2055 ;;      Params:         0       2       0       0       0
  2056 ;;      Locals:         0       0       0       0       0
  2057 ;;      Temps:          0       8       0       0       0
  2058 ;;      Totals:         0      10       0       0       0
  2059 ;;Total ram usage:       10 bytes
  2060 ;; Hardware stack levels used:    1
  2061 ;; Hardware stack levels required when called:    3
  2062 ;; This function calls:
  2063 ;;		___awtoft
  2064 ;;		___ftmul
  2065 ;;		___wmul
  2066 ;;		___ftadd
  2067 ;;		___fttol
  2068 ;; This function is called by:
  2069 ;;		_Trace_Control
  2070 ;; This function uses a non-reentrant model
  2071 ;;
  2072                           psect	text843
  2073                           	file	"D:\6_pic_project\00_Design_Flow_Car\Driver\pid.c"
  2074                           	line	33
  2075                           	global	__size_of_Trace_PID
  2076  0199                     	__size_of_Trace_PID	equ	__end_of_Trace_PID-_Trace_PID
  2077                           	
  2078  024D                     _Trace_PID:	
  2079                           	opt	stack 3
  2080                           ; Regs used in _Trace_PID: [wreg-fsr0h+status,2+status,0+pclath+cstack]
  2081                           	line	34
  2082                           	
  2083  024D                     l12686:	
  2084                           ;pid.c: 34: Trace_Byte = (RC0<<7|RC3<<6|RE0<<5|RE1<<4|RE2<<3|RA4<<2|RC4<<1|RC5);
  2085  024D  3000               	movlw	0
  2086  024E  1283               	bcf	status, 5	;RP0=0, select bank0
  2087  024F  1303               	bcf	status, 6	;RP1=0, select bank0
  2088  0250  1A87               	btfsc	(61/8),(61)&7
  2089  0251  3001               	movlw	1
  2090  0252  00DB               	movwf	(??_Trace_PID+0)+0
  2091  0253  3000               	movlw	0
  2092  0254  1A07               	btfsc	(60/8),(60)&7
  2093  0255  3001               	movlw	1
  2094  0256  00DC               	movwf	(??_Trace_PID+1)+0
  2095  0257  3001               	movlw	01h
  2096  0258                     u5915:
  2097  0258  1003               	clrc
  2098  0259  0DDC               	rlf	(??_Trace_PID+1)+0,f
  2099  025A  3EFF               	addlw	-1
  2100  025B  1D03               	skipz
  2101  025C  2A58               	goto	u5915
  2102  025D  3000               	movlw	0
  2103  025E  1A05               	btfsc	(44/8),(44)&7
  2104  025F  3001               	movlw	1
  2105  0260  00DD               	movwf	(??_Trace_PID+2)+0
  2106  0261  3002               	movlw	02h
  2107  0262                     u5925:
  2108  0262  1003               	clrc
  2109  0263  0DDD               	rlf	(??_Trace_PID+2)+0,f
  2110  0264  3EFF               	addlw	-1
  2111  0265  1D03               	skipz
  2112  0266  2A62               	goto	u5925
  2113  0267  3000               	movlw	0
  2114  0268  1909               	btfsc	(74/8),(74)&7
  2115  0269  3001               	movlw	1
  2116  026A  00DE               	movwf	(??_Trace_PID+3)+0
  2117  026B  3003               	movlw	03h
  2118  026C                     u5935:
  2119  026C  1003               	clrc
  2120  026D  0DDE               	rlf	(??_Trace_PID+3)+0,f
  2121  026E  3EFF               	addlw	-1
  2122  026F  1D03               	skipz
  2123  0270  2A6C               	goto	u5935
  2124  0271  3000               	movlw	0
  2125  0272  1889               	btfsc	(73/8),(73)&7
  2126  0273  3001               	movlw	1
  2127  0274  00DF               	movwf	(??_Trace_PID+4)+0
  2128  0275  3004               	movlw	04h
  2129  0276                     u5945:
  2130  0276  1003               	clrc
  2131  0277  0DDF               	rlf	(??_Trace_PID+4)+0,f
  2132  0278  3EFF               	addlw	-1
  2133  0279  1D03               	skipz
  2134  027A  2A76               	goto	u5945
  2135  027B  3000               	movlw	0
  2136  027C  1809               	btfsc	(72/8),(72)&7
  2137  027D  3001               	movlw	1
  2138  027E  00E0               	movwf	(??_Trace_PID+5)+0
  2139  027F  3005               	movlw	05h
  2140  0280                     u5955:
  2141  0280  1003               	clrc
  2142  0281  0DE0               	rlf	(??_Trace_PID+5)+0,f
  2143  0282  3EFF               	addlw	-1
  2144  0283  1D03               	skipz
  2145  0284  2A80               	goto	u5955
  2146  0285  3000               	movlw	0
  2147  0286  1987               	btfsc	(59/8),(59)&7
  2148  0287  3001               	movlw	1
  2149  0288  00E1               	movwf	(??_Trace_PID+6)+0
  2150  0289  3006               	movlw	06h
  2151  028A                     u5965:
  2152  028A  1003               	clrc
  2153  028B  0DE1               	rlf	(??_Trace_PID+6)+0,f
  2154  028C  3EFF               	addlw	-1
  2155  028D  1D03               	skipz
  2156  028E  2A8A               	goto	u5965
  2157  028F  3000               	movlw	0
  2158  0290  1807               	btfsc	(56/8),(56)&7
  2159  0291  3080               	movlw	(1 << (07h))
  2160  0292  0461               	iorwf	0+(??_Trace_PID+6)+0,w
  2161  0293  0460               	iorwf	0+(??_Trace_PID+5)+0,w
  2162  0294  045F               	iorwf	0+(??_Trace_PID+4)+0,w
  2163  0295  045E               	iorwf	0+(??_Trace_PID+3)+0,w
  2164  0296  045D               	iorwf	0+(??_Trace_PID+2)+0,w
  2165  0297  045C               	iorwf	0+(??_Trace_PID+1)+0,w
  2166  0298  045B               	iorwf	(??_Trace_PID+0)+0,w
  2167  0299  00E2               	movwf	(??_Trace_PID+7)+0
  2168  029A  0862               	movf	(??_Trace_PID+7)+0,w
  2169  029B  00EB               	movwf	(_Trace_Byte)
  2170                           	line	36
  2171                           ;pid.c: 36: switch(Trace_Byte)
  2172  029C  2B05               	goto	l12720
  2173                           	line	39
  2174                           ;pid.c: 37: {
  2175                           ;pid.c: 39: case 0B11100111:
  2176                           	
  2177  029D                     l7100:	
  2178                           	line	40
  2179                           	
  2180  029D                     l12688:	
  2181                           ;pid.c: 40: turn_err=0;
  2182  029D  1683               	bsf	status, 5	;RP0=1, select bank1
  2183  029E  1303               	bcf	status, 6	;RP1=0, select bank1
  2184  029F  01AC               	clrf	(_turn_err)^080h
  2185  02A0  01AD               	clrf	(_turn_err+1)^080h
  2186                           	line	41
  2187                           ;pid.c: 41: break;
  2188  02A1  2B35               	goto	l12722
  2189                           	line	42
  2190                           ;pid.c: 42: case 0B11110111:
  2191                           	
  2192  02A2                     l7102:	
  2193                           	line	43
  2194                           	
  2195  02A2                     l12690:	
  2196                           ;pid.c: 43: turn_err=-1;
  2197  02A2  30FF               	movlw	low(-1)
  2198  02A3  1683               	bsf	status, 5	;RP0=1, select bank1
  2199  02A4  1303               	bcf	status, 6	;RP1=0, select bank1
  2200  02A5  00AC               	movwf	(_turn_err)^080h
  2201  02A6  30FF               	movlw	high(-1)
  2202  02A7  00AD               	movwf	((_turn_err)^080h)+1
  2203                           	line	44
  2204                           ;pid.c: 44: break;
  2205  02A8  2B35               	goto	l12722
  2206                           	line	45
  2207                           ;pid.c: 45: case 0B11101111:
  2208                           	
  2209  02A9                     l7103:	
  2210                           	line	46
  2211                           	
  2212  02A9                     l12692:	
  2213                           ;pid.c: 46: turn_err=1;
  2214  02A9  3001               	movlw	low(01h)
  2215  02AA  1683               	bsf	status, 5	;RP0=1, select bank1
  2216  02AB  1303               	bcf	status, 6	;RP1=0, select bank1
  2217  02AC  00AC               	movwf	(_turn_err)^080h
  2218  02AD  3000               	movlw	high(01h)
  2219  02AE  00AD               	movwf	((_turn_err)^080h)+1
  2220                           	line	47
  2221                           ;pid.c: 47: break;
  2222  02AF  2B35               	goto	l12722
  2223                           	line	49
  2224                           ;pid.c: 49: case 0B11001111:
  2225                           	
  2226  02B0                     l7104:	
  2227                           	line	50
  2228                           	
  2229  02B0                     l12694:	
  2230                           ;pid.c: 50: turn_err=2;
  2231  02B0  3002               	movlw	low(02h)
  2232  02B1  1683               	bsf	status, 5	;RP0=1, select bank1
  2233  02B2  1303               	bcf	status, 6	;RP1=0, select bank1
  2234  02B3  00AC               	movwf	(_turn_err)^080h
  2235  02B4  3000               	movlw	high(02h)
  2236  02B5  00AD               	movwf	((_turn_err)^080h)+1
  2237                           	line	51
  2238                           ;pid.c: 51: break;
  2239  02B6  2B35               	goto	l12722
  2240                           	line	52
  2241                           ;pid.c: 52: case 0B11011111:
  2242                           	
  2243  02B7                     l7105:	
  2244                           	line	53
  2245                           	
  2246  02B7                     l12696:	
  2247                           ;pid.c: 53: turn_err=3;
  2248  02B7  3003               	movlw	low(03h)
  2249  02B8  1683               	bsf	status, 5	;RP0=1, select bank1
  2250  02B9  1303               	bcf	status, 6	;RP1=0, select bank1
  2251  02BA  00AC               	movwf	(_turn_err)^080h
  2252  02BB  3000               	movlw	high(03h)
  2253  02BC  00AD               	movwf	((_turn_err)^080h)+1
  2254                           	line	54
  2255                           ;pid.c: 54: break;
  2256  02BD  2B35               	goto	l12722
  2257                           	line	55
  2258                           ;pid.c: 55: case 0B10011111:
  2259                           	
  2260  02BE                     l7106:	
  2261                           	line	56
  2262                           	
  2263  02BE                     l12698:	
  2264                           ;pid.c: 56: turn_err=4;
  2265  02BE  3004               	movlw	low(04h)
  2266  02BF  1683               	bsf	status, 5	;RP0=1, select bank1
  2267  02C0  1303               	bcf	status, 6	;RP1=0, select bank1
  2268  02C1  00AC               	movwf	(_turn_err)^080h
  2269  02C2  3000               	movlw	high(04h)
  2270  02C3  00AD               	movwf	((_turn_err)^080h)+1
  2271                           	line	57
  2272                           ;pid.c: 57: break;
  2273  02C4  2B35               	goto	l12722
  2274                           	line	58
  2275                           ;pid.c: 58: case 0B10111111:
  2276                           	
  2277  02C5                     l7107:	
  2278                           	line	59
  2279                           	
  2280  02C5                     l12700:	
  2281                           ;pid.c: 59: turn_err=5;
  2282  02C5  3005               	movlw	low(05h)
  2283  02C6  1683               	bsf	status, 5	;RP0=1, select bank1
  2284  02C7  1303               	bcf	status, 6	;RP1=0, select bank1
  2285  02C8  00AC               	movwf	(_turn_err)^080h
  2286  02C9  3000               	movlw	high(05h)
  2287  02CA  00AD               	movwf	((_turn_err)^080h)+1
  2288                           	line	60
  2289                           ;pid.c: 60: break;
  2290  02CB  2B35               	goto	l12722
  2291                           	line	61
  2292                           ;pid.c: 61: case 0B00111111:
  2293                           	
  2294  02CC                     l7108:	
  2295                           	line	62
  2296                           	
  2297  02CC                     l12702:	
  2298                           ;pid.c: 62: turn_err=6;
  2299  02CC  3006               	movlw	low(06h)
  2300  02CD  1683               	bsf	status, 5	;RP0=1, select bank1
  2301  02CE  1303               	bcf	status, 6	;RP1=0, select bank1
  2302  02CF  00AC               	movwf	(_turn_err)^080h
  2303  02D0  3000               	movlw	high(06h)
  2304  02D1  00AD               	movwf	((_turn_err)^080h)+1
  2305                           	line	63
  2306                           ;pid.c: 63: break;
  2307  02D2  2B35               	goto	l12722
  2308                           	line	64
  2309                           ;pid.c: 64: case 0B01111111:
  2310                           	
  2311  02D3                     l7109:	
  2312                           	line	65
  2313                           	
  2314  02D3                     l12704:	
  2315                           ;pid.c: 65: turn_err=7;
  2316  02D3  3007               	movlw	low(07h)
  2317  02D4  1683               	bsf	status, 5	;RP0=1, select bank1
  2318  02D5  1303               	bcf	status, 6	;RP1=0, select bank1
  2319  02D6  00AC               	movwf	(_turn_err)^080h
  2320  02D7  3000               	movlw	high(07h)
  2321  02D8  00AD               	movwf	((_turn_err)^080h)+1
  2322                           	line	66
  2323                           ;pid.c: 66: break;
  2324  02D9  2B35               	goto	l12722
  2325                           	line	69
  2326                           ;pid.c: 69: case 0B11110011:
  2327                           	
  2328  02DA                     l7110:	
  2329                           	line	70
  2330                           	
  2331  02DA                     l12706:	
  2332                           ;pid.c: 70: turn_err=-2;
  2333  02DA  30FE               	movlw	low(-2)
  2334  02DB  1683               	bsf	status, 5	;RP0=1, select bank1
  2335  02DC  1303               	bcf	status, 6	;RP1=0, select bank1
  2336  02DD  00AC               	movwf	(_turn_err)^080h
  2337  02DE  30FF               	movlw	high(-2)
  2338  02DF  00AD               	movwf	((_turn_err)^080h)+1
  2339                           	line	71
  2340                           ;pid.c: 71: break;
  2341  02E0  2B35               	goto	l12722
  2342                           	line	72
  2343                           ;pid.c: 72: case 0B11111011:
  2344                           	
  2345  02E1                     l7111:	
  2346                           	line	73
  2347                           	
  2348  02E1                     l12708:	
  2349                           ;pid.c: 73: turn_err=-3;
  2350  02E1  30FD               	movlw	low(-3)
  2351  02E2  1683               	bsf	status, 5	;RP0=1, select bank1
  2352  02E3  1303               	bcf	status, 6	;RP1=0, select bank1
  2353  02E4  00AC               	movwf	(_turn_err)^080h
  2354  02E5  30FF               	movlw	high(-3)
  2355  02E6  00AD               	movwf	((_turn_err)^080h)+1
  2356                           	line	74
  2357                           ;pid.c: 74: break;
  2358  02E7  2B35               	goto	l12722
  2359                           	line	75
  2360                           ;pid.c: 75: case 0B11111001:
  2361                           	
  2362  02E8                     l7112:	
  2363                           	line	76
  2364                           	
  2365  02E8                     l12710:	
  2366                           ;pid.c: 76: turn_err=-4;
  2367  02E8  30FC               	movlw	low(-4)
  2368  02E9  1683               	bsf	status, 5	;RP0=1, select bank1
  2369  02EA  1303               	bcf	status, 6	;RP1=0, select bank1
  2370  02EB  00AC               	movwf	(_turn_err)^080h
  2371  02EC  30FF               	movlw	high(-4)
  2372  02ED  00AD               	movwf	((_turn_err)^080h)+1
  2373                           	line	77
  2374                           ;pid.c: 77: break;
  2375  02EE  2B35               	goto	l12722
  2376                           	line	78
  2377                           ;pid.c: 78: case 0B11111101:
  2378                           	
  2379  02EF                     l7113:	
  2380                           	line	79
  2381                           	
  2382  02EF                     l12712:	
  2383                           ;pid.c: 79: turn_err=-5;
  2384  02EF  30FB               	movlw	low(-5)
  2385  02F0  1683               	bsf	status, 5	;RP0=1, select bank1
  2386  02F1  1303               	bcf	status, 6	;RP1=0, select bank1
  2387  02F2  00AC               	movwf	(_turn_err)^080h
  2388  02F3  30FF               	movlw	high(-5)
  2389  02F4  00AD               	movwf	((_turn_err)^080h)+1
  2390                           	line	80
  2391                           ;pid.c: 80: break;
  2392  02F5  2B35               	goto	l12722
  2393                           	line	81
  2394                           ;pid.c: 81: case 0B11111100:
  2395                           	
  2396  02F6                     l7114:	
  2397                           	line	82
  2398                           	
  2399  02F6                     l12714:	
  2400                           ;pid.c: 82: turn_err=-6;
  2401  02F6  30FA               	movlw	low(-6)
  2402  02F7  1683               	bsf	status, 5	;RP0=1, select bank1
  2403  02F8  1303               	bcf	status, 6	;RP1=0, select bank1
  2404  02F9  00AC               	movwf	(_turn_err)^080h
  2405  02FA  30FF               	movlw	high(-6)
  2406  02FB  00AD               	movwf	((_turn_err)^080h)+1
  2407                           	line	83
  2408                           ;pid.c: 83: break;
  2409  02FC  2B35               	goto	l12722
  2410                           	line	84
  2411                           ;pid.c: 84: case 0B11111110:
  2412                           	
  2413  02FD                     l7115:	
  2414                           	line	85
  2415                           	
  2416  02FD                     l12716:	
  2417                           ;pid.c: 85: turn_err=-7;
  2418  02FD  30F9               	movlw	low(-7)
  2419  02FE  1683               	bsf	status, 5	;RP0=1, select bank1
  2420  02FF  1303               	bcf	status, 6	;RP1=0, select bank1
  2421  0300  00AC               	movwf	(_turn_err)^080h
  2422  0301  30FF               	movlw	high(-7)
  2423  0302  00AD               	movwf	((_turn_err)^080h)+1
  2424                           	line	86
  2425                           ;pid.c: 86: break;
  2426  0303  2B35               	goto	l12722
  2427                           	line	87
  2428                           	
  2429  0304                     l12718:	
  2430                           ;pid.c: 87: }
  2431  0304  2B35               	goto	l12722
  2432                           	line	36
  2433                           	
  2434  0305                     l7099:	
  2435                           	
  2436  0305                     l12720:	
  2437  0305  1283               	bcf	status, 5	;RP0=0, select bank0
  2438  0306  086B               	movf	(_Trace_Byte),w
  2439                           	; Switch size 1, requested type "space"
  2440                           ; Number of cases is 15, Range of values is 63 to 254
  2441                           ; switch strategies available:
  2442                           ; Name         Instructions Cycles
  2443                           ; simple_byte           46    24 (average)
  2444                           ; jumptable            263     9 (fixed)
  2445                           ;	Chosen strategy is simple_byte
  2446                           
  2447                           	opt asmopt_off
  2448  0307  3A3F               	xorlw	63^0	; case 63
  2449  0308  1903               	skipnz
  2450  0309  2ACC               	goto	l12702
  2451  030A  3A40               	xorlw	127^63	; case 127
  2452  030B  1903               	skipnz
  2453  030C  2AD3               	goto	l12704
  2454  030D  3AE0               	xorlw	159^127	; case 159
  2455  030E  1903               	skipnz
  2456  030F  2ABE               	goto	l12698
  2457  0310  3A20               	xorlw	191^159	; case 191
  2458  0311  1903               	skipnz
  2459  0312  2AC5               	goto	l12700
  2460  0313  3A70               	xorlw	207^191	; case 207
  2461  0314  1903               	skipnz
  2462  0315  2AB0               	goto	l12694
  2463  0316  3A10               	xorlw	223^207	; case 223
  2464  0317  1903               	skipnz
  2465  0318  2AB7               	goto	l12696
  2466  0319  3A38               	xorlw	231^223	; case 231
  2467  031A  1903               	skipnz
  2468  031B  2A9D               	goto	l12688
  2469  031C  3A08               	xorlw	239^231	; case 239
  2470  031D  1903               	skipnz
  2471  031E  2AA9               	goto	l12692
  2472  031F  3A1C               	xorlw	243^239	; case 243
  2473  0320  1903               	skipnz
  2474  0321  2ADA               	goto	l12706
  2475  0322  3A04               	xorlw	247^243	; case 247
  2476  0323  1903               	skipnz
  2477  0324  2AA2               	goto	l12690
  2478  0325  3A0E               	xorlw	249^247	; case 249
  2479  0326  1903               	skipnz
  2480  0327  2AE8               	goto	l12710
  2481  0328  3A02               	xorlw	251^249	; case 251
  2482  0329  1903               	skipnz
  2483  032A  2AE1               	goto	l12708
  2484  032B  3A07               	xorlw	252^251	; case 252
  2485  032C  1903               	skipnz
  2486  032D  2AF6               	goto	l12714
  2487  032E  3A01               	xorlw	253^252	; case 253
  2488  032F  1903               	skipnz
  2489  0330  2AEF               	goto	l12712
  2490  0331  3A03               	xorlw	254^253	; case 254
  2491  0332  1903               	skipnz
  2492  0333  2AFD               	goto	l12716
  2493  0334  2B35               	goto	l12722
  2494                           	opt asmopt_on
  2495                           
  2496                           	line	87
  2497                           	
  2498  0335                     l7101:	
  2499                           	line	89
  2500                           	
  2501  0335                     l12722:	
  2502                           ;pid.c: 89: err_difference= turn_err - last_err;
  2503  0335  1683               	bsf	status, 5	;RP0=1, select bank1
  2504  0336  1303               	bcf	status, 6	;RP1=0, select bank1
  2505  0337  092A               	comf	(_last_err)^080h,w
  2506  0338  1283               	bcf	status, 5	;RP0=0, select bank0
  2507  0339  1303               	bcf	status, 6	;RP1=0, select bank0
  2508  033A  00DB               	movwf	(??_Trace_PID+0)+0
  2509  033B  1683               	bsf	status, 5	;RP0=1, select bank1
  2510  033C  1303               	bcf	status, 6	;RP1=0, select bank1
  2511  033D  092B               	comf	(_last_err+1)^080h,w
  2512  033E  1283               	bcf	status, 5	;RP0=0, select bank0
  2513  033F  1303               	bcf	status, 6	;RP1=0, select bank0
  2514  0340  00DC               	movwf	((??_Trace_PID+0)+0+1)
  2515  0341  0ADB               	incf	(??_Trace_PID+0)+0,f
  2516  0342  1903               	skipnz
  2517  0343  0ADC               	incf	((??_Trace_PID+0)+0+1),f
  2518  0344  1683               	bsf	status, 5	;RP0=1, select bank1
  2519  0345  1303               	bcf	status, 6	;RP1=0, select bank1
  2520  0346  082C               	movf	(_turn_err)^080h,w
  2521  0347  1283               	bcf	status, 5	;RP0=0, select bank0
  2522  0348  1303               	bcf	status, 6	;RP1=0, select bank0
  2523  0349  075B               	addwf	0+(??_Trace_PID+0)+0,w
  2524  034A  1683               	bsf	status, 5	;RP0=1, select bank1
  2525  034B  1303               	bcf	status, 6	;RP1=0, select bank1
  2526  034C  00A8               	movwf	(_err_difference)^080h
  2527  034D  082D               	movf	(_turn_err+1)^080h,w
  2528  034E  1803               	skipnc
  2529  034F  0A2D               	incf	(_turn_err+1)^080h,w
  2530  0350  1283               	bcf	status, 5	;RP0=0, select bank0
  2531  0351  1303               	bcf	status, 6	;RP1=0, select bank0
  2532  0352  075C               	addwf	1+(??_Trace_PID+0)+0,w
  2533  0353  1683               	bsf	status, 5	;RP0=1, select bank1
  2534  0354  1303               	bcf	status, 6	;RP1=0, select bank1
  2535  0355  00A9               	movwf	1+(_err_difference)^080h
  2536                           	line	91
  2537                           ;pid.c: 91: last_err= turn_err;
  2538  0356  082D               	movf	(_turn_err+1)^080h,w
  2539  0357  01AB               	clrf	(_last_err+1)^080h
  2540  0358  07AB               	addwf	(_last_err+1)^080h
  2541  0359  082C               	movf	(_turn_err)^080h,w
  2542  035A  01AA               	clrf	(_last_err)^080h
  2543  035B  07AA               	addwf	(_last_err)^080h
  2544                           
  2545                           	line	93
  2546                           	
  2547  035C                     l12724:	
  2548                           ;pid.c: 93: return (int)(turn_err*Kp + err_difference*Kd);
  2549  035C  082D               	movf	(_turn_err+1)^080h,w
  2550  035D  1283               	bcf	status, 5	;RP0=0, select bank0
  2551  035E  1303               	bcf	status, 6	;RP1=0, select bank0
  2552  035F  01B7               	clrf	(?___awtoft+1)
  2553  0360  07B7               	addwf	(?___awtoft+1)
  2554  0361  1683               	bsf	status, 5	;RP0=1, select bank1
  2555  0362  1303               	bcf	status, 6	;RP1=0, select bank1
  2556  0363  082C               	movf	(_turn_err)^080h,w
  2557  0364  1283               	bcf	status, 5	;RP0=0, select bank0
  2558  0365  1303               	bcf	status, 6	;RP1=0, select bank0
  2559  0366  01B6               	clrf	(?___awtoft)
  2560  0367  07B6               	addwf	(?___awtoft)
  2561                           
  2562  0368  120A  158A  270C   	fcall	___awtoft
              120A  118A         
  2563  036D  1283               	bcf	status, 5	;RP0=0, select bank0
  2564  036E  1303               	bcf	status, 6	;RP1=0, select bank0
  2565  036F  0836               	movf	(0+(?___awtoft)),w
  2566  0370  00BF               	movwf	0+(?___ftmul)+03h
  2567  0371  0837               	movf	(1+(?___awtoft)),w
  2568  0372  00C0               	movwf	1+(?___ftmul)+03h
  2569  0373  0838               	movf	(2+(?___awtoft)),w
  2570  0374  00C1               	movwf	2+(?___ftmul)+03h
  2571  0375  1683               	bsf	status, 5	;RP0=1, select bank1
  2572  0376  1303               	bcf	status, 6	;RP1=0, select bank1
  2573  0377  0843               	movf	(_Kp)^080h,w
  2574  0378  1283               	bcf	status, 5	;RP0=0, select bank0
  2575  0379  1303               	bcf	status, 6	;RP1=0, select bank0
  2576  037A  00BC               	movwf	(?___ftmul)
  2577  037B  1683               	bsf	status, 5	;RP0=1, select bank1
  2578  037C  1303               	bcf	status, 6	;RP1=0, select bank1
  2579  037D  0844               	movf	(_Kp+1)^080h,w
  2580  037E  1283               	bcf	status, 5	;RP0=0, select bank0
  2581  037F  1303               	bcf	status, 6	;RP1=0, select bank0
  2582  0380  00BD               	movwf	(?___ftmul+1)
  2583  0381  1683               	bsf	status, 5	;RP0=1, select bank1
  2584  0382  1303               	bcf	status, 6	;RP1=0, select bank1
  2585  0383  0845               	movf	(_Kp+2)^080h,w
  2586  0384  1283               	bcf	status, 5	;RP0=0, select bank0
  2587  0385  1303               	bcf	status, 6	;RP1=0, select bank0
  2588  0386  00BE               	movwf	(?___ftmul+2)
  2589  0387  120A  118A  252C   	fcall	___ftmul
              120A  118A         
  2590  038C  1283               	bcf	status, 5	;RP0=0, select bank0
  2591  038D  1303               	bcf	status, 6	;RP1=0, select bank0
  2592  038E  083C               	movf	(0+(?___ftmul)),w
  2593  038F  00CF               	movwf	0+(?___ftadd)+03h
  2594  0390  083D               	movf	(1+(?___ftmul)),w
  2595  0391  00D0               	movwf	1+(?___ftadd)+03h
  2596  0392  083E               	movf	(2+(?___ftmul)),w
  2597  0393  00D1               	movwf	2+(?___ftadd)+03h
  2598  0394  1683               	bsf	status, 5	;RP0=1, select bank1
  2599  0395  1303               	bcf	status, 6	;RP1=0, select bank1
  2600  0396  0823               	movf	(_Kd+1)^080h,w
  2601  0397  1283               	bcf	status, 5	;RP0=0, select bank0
  2602  0398  1303               	bcf	status, 6	;RP1=0, select bank0
  2603  0399  01A3               	clrf	1+(?___wmul)+02h
  2604  039A  07A3               	addwf	1+(?___wmul)+02h
  2605  039B  1683               	bsf	status, 5	;RP0=1, select bank1
  2606  039C  1303               	bcf	status, 6	;RP1=0, select bank1
  2607  039D  0822               	movf	(_Kd)^080h,w
  2608  039E  1283               	bcf	status, 5	;RP0=0, select bank0
  2609  039F  1303               	bcf	status, 6	;RP1=0, select bank0
  2610  03A0  01A2               	clrf	0+(?___wmul)+02h
  2611  03A1  07A2               	addwf	0+(?___wmul)+02h
  2612                           
  2613  03A2  1683               	bsf	status, 5	;RP0=1, select bank1
  2614  03A3  1303               	bcf	status, 6	;RP1=0, select bank1
  2615  03A4  0829               	movf	(_err_difference+1)^080h,w
  2616  03A5  1283               	bcf	status, 5	;RP0=0, select bank0
  2617  03A6  1303               	bcf	status, 6	;RP1=0, select bank0
  2618  03A7  01A1               	clrf	(?___wmul+1)
  2619  03A8  07A1               	addwf	(?___wmul+1)
  2620  03A9  1683               	bsf	status, 5	;RP0=1, select bank1
  2621  03AA  1303               	bcf	status, 6	;RP1=0, select bank1
  2622  03AB  0828               	movf	(_err_difference)^080h,w
  2623  03AC  1283               	bcf	status, 5	;RP0=0, select bank0
  2624  03AD  1303               	bcf	status, 6	;RP1=0, select bank0
  2625  03AE  01A0               	clrf	(?___wmul)
  2626  03AF  07A0               	addwf	(?___wmul)
  2627                           
  2628  03B0  120A  158A  26E0   	fcall	___wmul
              120A  118A         
  2629  03B5  1283               	bcf	status, 5	;RP0=0, select bank0
  2630  03B6  1303               	bcf	status, 6	;RP1=0, select bank0
  2631  03B7  0821               	movf	(1+(?___wmul)),w
  2632  03B8  01B7               	clrf	(?___awtoft+1)
  2633  03B9  07B7               	addwf	(?___awtoft+1)
  2634  03BA  0820               	movf	(0+(?___wmul)),w
  2635  03BB  01B6               	clrf	(?___awtoft)
  2636  03BC  07B6               	addwf	(?___awtoft)
  2637                           
  2638  03BD  120A  158A  270C   	fcall	___awtoft
              120A  118A         
  2639  03C2  1283               	bcf	status, 5	;RP0=0, select bank0
  2640  03C3  1303               	bcf	status, 6	;RP1=0, select bank0
  2641  03C4  0836               	movf	(0+(?___awtoft)),w
  2642  03C5  00CC               	movwf	(?___ftadd)
  2643  03C6  0837               	movf	(1+(?___awtoft)),w
  2644  03C7  00CD               	movwf	(?___ftadd+1)
  2645  03C8  0838               	movf	(2+(?___awtoft)),w
  2646  03C9  00CE               	movwf	(?___ftadd+2)
  2647  03CA  120A  118A  23E6   	fcall	___ftadd
              120A  118A         
  2648  03CF  1283               	bcf	status, 5	;RP0=0, select bank0
  2649  03D0  1303               	bcf	status, 6	;RP1=0, select bank0
  2650  03D1  084C               	movf	(0+(?___ftadd)),w
  2651  03D2  00A8               	movwf	(?___fttol)
  2652  03D3  084D               	movf	(1+(?___ftadd)),w
  2653  03D4  00A9               	movwf	(?___fttol+1)
  2654  03D5  084E               	movf	(2+(?___ftadd)),w
  2655  03D6  00AA               	movwf	(?___fttol+2)
  2656  03D7  120A  118A  261A   	fcall	___fttol
              120A  118A         
  2657  03DC  1283               	bcf	status, 5	;RP0=0, select bank0
  2658  03DD  1303               	bcf	status, 6	;RP1=0, select bank0
  2659  03DE  0829               	movf	1+(((0+(?___fttol)))),w
  2660  03DF  01DA               	clrf	(?_Trace_PID+1)
  2661  03E0  07DA               	addwf	(?_Trace_PID+1)
  2662  03E1  0828               	movf	0+(((0+(?___fttol)))),w
  2663  03E2  01D9               	clrf	(?_Trace_PID)
  2664  03E3  07D9               	addwf	(?_Trace_PID)
  2665                           
  2666  03E4  2BE5               	goto	l7116
  2667                           	
  2668  03E5                     l12726:	
  2669                           	line	94
  2670                           	
  2671  03E5                     l7116:	
  2672  03E5  0008               	return
  2673                           	opt stack 0
  2674                           GLOBAL	__end_of_Trace_PID
  2675  03E6                     	__end_of_Trace_PID:
  2676 ;; =============== function _Trace_PID ends ============
  2677                           
  2678                           	signat	_Trace_PID,90
  2679                           	global	___awtoft
  2680                           psect	text844,local,class=CODE,delta=2
  2681                           global __ptext844
  2682  0F0C                     __ptext844:
  2683                           
  2684 ;; *************** function ___awtoft *****************
  2685 ;; Defined at:
  2686 ;;		line 33 in file "C:\Program Files (x86)\HI-TECH Software\PICC\9.82\sources\awtoft.c"
  2687 ;; Parameters:    Size  Location     Type
  2688 ;;  c               2   22[BANK0 ] int 
  2689 ;; Auto vars:     Size  Location     Type
  2690 ;;  sign            1   27[BANK0 ] unsigned char 
  2691 ;; Return value:  Size  Location     Type
  2692 ;;                  3   22[BANK0 ] float 
  2693 ;; Registers used:
  2694 ;;		wreg, status,2, status,0, pclath, cstack
  2695 ;; Tracked objects:
  2696 ;;		On entry : 0/0
  2697 ;;		On exit  : 0/0
  2698 ;;		Unchanged: 0/0
  2699 ;; Data sizes:     COMMON   BANK0   BANK1   BANK3   BANK2
  2700 ;;      Params:         0       3       0       0       0
  2701 ;;      Locals:         0       1       0       0       0
  2702 ;;      Temps:          0       2       0       0       0
  2703 ;;      Totals:         0       6       0       0       0
  2704 ;;Total ram usage:        6 bytes
  2705 ;; Hardware stack levels used:    1
  2706 ;; Hardware stack levels required when called:    2
  2707 ;; This function calls:
  2708 ;;		___ftpack
  2709 ;; This function is called by:
  2710 ;;		_Trace_PID
  2711 ;; This function uses a non-reentrant model
  2712 ;;
  2713                           psect	text844
  2714                           	file	"C:\Program Files (x86)\HI-TECH Software\PICC\9.82\sources\awtoft.c"
  2715                           	line	33
  2716                           	global	__size_of___awtoft
  2717  002C                     	__size_of___awtoft	equ	__end_of___awtoft-___awtoft
  2718                           	
  2719  0F0C                     ___awtoft:	
  2720                           	opt	stack 3
  2721                           ; Regs used in ___awtoft: [wreg+status,2+status,0+pclath+cstack]
  2722                           	line	36
  2723                           	
  2724  0F0C                     l12678:	
  2725  0F0C  1283               	bcf	status, 5	;RP0=0, select bank0
  2726  0F0D  1303               	bcf	status, 6	;RP1=0, select bank0
  2727  0F0E  01BB               	clrf	(___awtoft@sign)
  2728                           	line	37
  2729  0F0F  1FB7               	btfss	(___awtoft@c+1),7
  2730  0F10  2F12               	goto	u5901
  2731  0F11  2F13               	goto	u5900
  2732  0F12                     u5901:
  2733  0F12  2F1C               	goto	l12682
  2734  0F13                     u5900:
  2735                           	line	38
  2736                           	
  2737  0F13                     l12680:	
  2738  0F13  09B6               	comf	(___awtoft@c),f
  2739  0F14  09B7               	comf	(___awtoft@c+1),f
  2740  0F15  0AB6               	incf	(___awtoft@c),f
  2741  0F16  1903               	skipnz
  2742  0F17  0AB7               	incf	(___awtoft@c+1),f
  2743                           	line	39
  2744  0F18  01BB               	clrf	(___awtoft@sign)
  2745  0F19  1403               	bsf	status,0
  2746  0F1A  0DBB               	rlf	(___awtoft@sign),f
  2747  0F1B  2F1C               	goto	l12682
  2748                           	line	40
  2749                           	
  2750  0F1C                     l9462:	
  2751                           	line	41
  2752                           	
  2753  0F1C                     l12682:	
  2754  0F1C  0836               	movf	(___awtoft@c),w
  2755  0F1D  00A0               	movwf	(?___ftpack)
  2756  0F1E  0837               	movf	(___awtoft@c+1),w
  2757  0F1F  00A1               	movwf	(?___ftpack+1)
  2758  0F20  01A2               	clrf	(?___ftpack+2)
  2759  0F21  308E               	movlw	(08Eh)
  2760  0F22  00B9               	movwf	(??___awtoft+0)+0
  2761  0F23  0839               	movf	(??___awtoft+0)+0,w
  2762  0F24  00A3               	movwf	0+(?___ftpack)+03h
  2763  0F25  083B               	movf	(___awtoft@sign),w
  2764  0F26  00BA               	movwf	(??___awtoft+1)+0
  2765  0F27  083A               	movf	(??___awtoft+1)+0,w
  2766  0F28  00A4               	movwf	0+(?___ftpack)+04h
  2767  0F29  120A  118A  26C0   	fcall	___ftpack
              120A  158A         
  2768  0F2E  1283               	bcf	status, 5	;RP0=0, select bank0
  2769  0F2F  1303               	bcf	status, 6	;RP1=0, select bank0
  2770  0F30  0820               	movf	(0+(?___ftpack)),w
  2771  0F31  00B6               	movwf	(?___awtoft)
  2772  0F32  0821               	movf	(1+(?___ftpack)),w
  2773  0F33  00B7               	movwf	(?___awtoft+1)
  2774  0F34  0822               	movf	(2+(?___ftpack)),w
  2775  0F35  00B8               	movwf	(?___awtoft+2)
  2776  0F36  2F37               	goto	l9463
  2777                           	
  2778  0F37                     l12684:	
  2779                           	line	42
  2780                           	
  2781  0F37                     l9463:	
  2782  0F37  0008               	return
  2783                           	opt stack 0
  2784                           GLOBAL	__end_of___awtoft
  2785  0F38                     	__end_of___awtoft:
  2786 ;; =============== function ___awtoft ends ============
  2787                           
  2788                           	signat	___awtoft,4219
  2789                           	global	___ftmul
  2790                           psect	text845,local,class=CODE,delta=2
  2791                           global __ptext845
  2792  052C                     __ptext845:
  2793                           
  2794 ;; *************** function ___ftmul *****************
  2795 ;; Defined at:
  2796 ;;		line 52 in file "C:\Program Files (x86)\HI-TECH Software\PICC\9.82\sources\ftmul.c"
  2797 ;; Parameters:    Size  Location     Type
  2798 ;;  f1              3   28[BANK0 ] float 
  2799 ;;  f2              3   31[BANK0 ] float 
  2800 ;; Auto vars:     Size  Location     Type
  2801 ;;  f3_as_produc    3   39[BANK0 ] unsigned um
  2802 ;;  sign            1   43[BANK0 ] unsigned char 
  2803 ;;  cntr            1   42[BANK0 ] unsigned char 
  2804 ;;  exp             1   38[BANK0 ] unsigned char 
  2805 ;; Return value:  Size  Location     Type
  2806 ;;                  3   28[BANK0 ] float 
  2807 ;; Registers used:
  2808 ;;		wreg, status,2, status,0, pclath, cstack
  2809 ;; Tracked objects:
  2810 ;;		On entry : 0/0
  2811 ;;		On exit  : 0/0
  2812 ;;		Unchanged: 0/0
  2813 ;; Data sizes:     COMMON   BANK0   BANK1   BANK3   BANK2
  2814 ;;      Params:         0       6       0       0       0
  2815 ;;      Locals:         0       6       0       0       0
  2816 ;;      Temps:          0       4       0       0       0
  2817 ;;      Totals:         0      16       0       0       0
  2818 ;;Total ram usage:       16 bytes
  2819 ;; Hardware stack levels used:    1
  2820 ;; Hardware stack levels required when called:    2
  2821 ;; This function calls:
  2822 ;;		___ftpack
  2823 ;; This function is called by:
  2824 ;;		_Trace_PID
  2825 ;;		_csb
  2826 ;; This function uses a non-reentrant model
  2827 ;;
  2828                           psect	text845
  2829                           	file	"C:\Program Files (x86)\HI-TECH Software\PICC\9.82\sources\ftmul.c"
  2830                           	line	52
  2831                           	global	__size_of___ftmul
  2832  00EE                     	__size_of___ftmul	equ	__end_of___ftmul-___ftmul
  2833                           	
  2834  052C                     ___ftmul:	
  2835                           	opt	stack 3
  2836                           ; Regs used in ___ftmul: [wreg+status,2+status,0+pclath+cstack]
  2837                           	line	56
  2838                           	
  2839  052C                     l12628:	
  2840  052C  1283               	bcf	status, 5	;RP0=0, select bank0
  2841  052D  1303               	bcf	status, 6	;RP1=0, select bank0
  2842  052E  083C               	movf	(___ftmul@f1),w
  2843  052F  00C2               	movwf	((??___ftmul+0)+0)
  2844  0530  083D               	movf	(___ftmul@f1+1),w
  2845  0531  00C3               	movwf	((??___ftmul+0)+0+1)
  2846  0532  083E               	movf	(___ftmul@f1+2),w
  2847  0533  00C4               	movwf	((??___ftmul+0)+0+2)
  2848  0534  1003               	clrc
  2849  0535  0D43               	rlf	(??___ftmul+0)+1,w
  2850  0536  0D44               	rlf	(??___ftmul+0)+2,w
  2851  0537  00C5               	movwf	(??___ftmul+3)+0
  2852  0538  0845               	movf	(??___ftmul+3)+0,w
  2853  0539  00C6               	movwf	(___ftmul@exp)
  2854  053A  08C6               	movf	((___ftmul@exp)),f
  2855  053B  1D03               	skipz
  2856  053C  2D3E               	goto	u5761
  2857  053D  2D3F               	goto	u5760
  2858  053E                     u5761:
  2859  053E  2D47               	goto	l12634
  2860  053F                     u5760:
  2861                           	line	57
  2862                           	
  2863  053F                     l12630:	
  2864  053F  3000               	movlw	0x0
  2865  0540  00BC               	movwf	(?___ftmul)
  2866  0541  3000               	movlw	0x0
  2867  0542  00BD               	movwf	(?___ftmul+1)
  2868  0543  3000               	movlw	0x0
  2869  0544  00BE               	movwf	(?___ftmul+2)
  2870  0545  2E19               	goto	l9425
  2871                           	
  2872  0546                     l12632:	
  2873  0546  2E19               	goto	l9425
  2874                           	
  2875  0547                     l9424:	
  2876                           	line	58
  2877                           	
  2878  0547                     l12634:	
  2879  0547  083F               	movf	(___ftmul@f2),w
  2880  0548  00C2               	movwf	((??___ftmul+0)+0)
  2881  0549  0840               	movf	(___ftmul@f2+1),w
  2882  054A  00C3               	movwf	((??___ftmul+0)+0+1)
  2883  054B  0841               	movf	(___ftmul@f2+2),w
  2884  054C  00C4               	movwf	((??___ftmul+0)+0+2)
  2885  054D  1003               	clrc
  2886  054E  0D43               	rlf	(??___ftmul+0)+1,w
  2887  054F  0D44               	rlf	(??___ftmul+0)+2,w
  2888  0550  00C5               	movwf	(??___ftmul+3)+0
  2889  0551  0845               	movf	(??___ftmul+3)+0,w
  2890  0552  00CB               	movwf	(___ftmul@sign)
  2891  0553  08CB               	movf	((___ftmul@sign)),f
  2892  0554  1D03               	skipz
  2893  0555  2D57               	goto	u5771
  2894  0556  2D58               	goto	u5770
  2895  0557                     u5771:
  2896  0557  2D60               	goto	l12640
  2897  0558                     u5770:
  2898                           	line	59
  2899                           	
  2900  0558                     l12636:	
  2901  0558  3000               	movlw	0x0
  2902  0559  00BC               	movwf	(?___ftmul)
  2903  055A  3000               	movlw	0x0
  2904  055B  00BD               	movwf	(?___ftmul+1)
  2905  055C  3000               	movlw	0x0
  2906  055D  00BE               	movwf	(?___ftmul+2)
  2907  055E  2E19               	goto	l9425
  2908                           	
  2909  055F                     l12638:	
  2910  055F  2E19               	goto	l9425
  2911                           	
  2912  0560                     l9426:	
  2913                           	line	60
  2914                           	
  2915  0560                     l12640:	
  2916  0560  084B               	movf	(___ftmul@sign),w
  2917  0561  3E7B               	addlw	07Bh
  2918  0562  00C2               	movwf	(??___ftmul+0)+0
  2919  0563  0842               	movf	(??___ftmul+0)+0,w
  2920  0564  07C6               	addwf	(___ftmul@exp),f
  2921                           	line	61
  2922  0565  083C               	movf	(___ftmul@f1),w
  2923  0566  00C2               	movwf	((??___ftmul+0)+0)
  2924  0567  083D               	movf	(___ftmul@f1+1),w
  2925  0568  00C3               	movwf	((??___ftmul+0)+0+1)
  2926  0569  083E               	movf	(___ftmul@f1+2),w
  2927  056A  00C4               	movwf	((??___ftmul+0)+0+2)
  2928  056B  3010               	movlw	010h
  2929  056C                     u5785:
  2930  056C  1003               	clrc
  2931  056D  0CC4               	rrf	(??___ftmul+0)+2,f
  2932  056E  0CC3               	rrf	(??___ftmul+0)+1,f
  2933  056F  0CC2               	rrf	(??___ftmul+0)+0,f
  2934  0570                     u5780:
  2935  0570  3EFF               	addlw	-1
  2936  0571  1D03               	skipz
  2937  0572  2D6C               	goto	u5785
  2938  0573  0842               	movf	0+(??___ftmul+0)+0,w
  2939  0574  00C5               	movwf	(??___ftmul+3)+0
  2940  0575  0845               	movf	(??___ftmul+3)+0,w
  2941  0576  00CB               	movwf	(___ftmul@sign)
  2942                           	line	62
  2943  0577  083F               	movf	(___ftmul@f2),w
  2944  0578  00C2               	movwf	((??___ftmul+0)+0)
  2945  0579  0840               	movf	(___ftmul@f2+1),w
  2946  057A  00C3               	movwf	((??___ftmul+0)+0+1)
  2947  057B  0841               	movf	(___ftmul@f2+2),w
  2948  057C  00C4               	movwf	((??___ftmul+0)+0+2)
  2949  057D  3010               	movlw	010h
  2950  057E                     u5795:
  2951  057E  1003               	clrc
  2952  057F  0CC4               	rrf	(??___ftmul+0)+2,f
  2953  0580  0CC3               	rrf	(??___ftmul+0)+1,f
  2954  0581  0CC2               	rrf	(??___ftmul+0)+0,f
  2955  0582                     u5790:
  2956  0582  3EFF               	addlw	-1
  2957  0583  1D03               	skipz
  2958  0584  2D7E               	goto	u5795
  2959  0585  0842               	movf	0+(??___ftmul+0)+0,w
  2960  0586  00C5               	movwf	(??___ftmul+3)+0
  2961  0587  0845               	movf	(??___ftmul+3)+0,w
  2962  0588  06CB               	xorwf	(___ftmul@sign),f
  2963                           	line	63
  2964  0589  3080               	movlw	(080h)
  2965  058A  00C2               	movwf	(??___ftmul+0)+0
  2966  058B  0842               	movf	(??___ftmul+0)+0,w
  2967  058C  05CB               	andwf	(___ftmul@sign),f
  2968                           	line	64
  2969                           	
  2970  058D                     l12642:	
  2971  058D  17BD               	bsf	(___ftmul@f1)+(15/8),(15)&7
  2972                           	line	66
  2973                           	
  2974  058E                     l12644:	
  2975  058E  17C0               	bsf	(___ftmul@f2)+(15/8),(15)&7
  2976                           	line	67
  2977                           	
  2978  058F                     l12646:	
  2979  058F  30FF               	movlw	0FFh
  2980  0590  05BF               	andwf	(___ftmul@f2),f
  2981  0591  30FF               	movlw	0FFh
  2982  0592  05C0               	andwf	(___ftmul@f2+1),f
  2983  0593  3000               	movlw	0
  2984  0594  05C1               	andwf	(___ftmul@f2+2),f
  2985                           	line	68
  2986                           	
  2987  0595                     l12648:	
  2988  0595  3000               	movlw	0
  2989  0596  00C7               	movwf	(___ftmul@f3_as_product)
  2990  0597  3000               	movlw	0
  2991  0598  00C8               	movwf	(___ftmul@f3_as_product+1)
  2992  0599  3000               	movlw	0
  2993  059A  00C9               	movwf	(___ftmul@f3_as_product+2)
  2994                           	line	69
  2995                           	
  2996  059B                     l12650:	
  2997  059B  3007               	movlw	(07h)
  2998  059C  00C2               	movwf	(??___ftmul+0)+0
  2999  059D  0842               	movf	(??___ftmul+0)+0,w
  3000  059E  00CA               	movwf	(___ftmul@cntr)
  3001  059F  2DA0               	goto	l12652
  3002                           	line	70
  3003                           	
  3004  05A0                     l9427:	
  3005                           	line	71
  3006                           	
  3007  05A0                     l12652:	
  3008  05A0  1C3C               	btfss	(___ftmul@f1),(0)&7
  3009  05A1  2DA3               	goto	u5801
  3010  05A2  2DA4               	goto	u5800
  3011  05A3                     u5801:
  3012  05A3  2DB5               	goto	l12656
  3013  05A4                     u5800:
  3014                           	line	72
  3015                           	
  3016  05A4                     l12654:	
  3017  05A4  083F               	movf	(___ftmul@f2),w
  3018  05A5  07C7               	addwf	(___ftmul@f3_as_product),f
  3019  05A6  0840               	movf	(___ftmul@f2+1),w
  3020  05A7  1103               	clrz
  3021  05A8  1803               	skipnc
  3022  05A9  0A40               	incf	(___ftmul@f2+1),w
  3023  05AA  1903               	skipnz
  3024  05AB  2DAD               	goto	u5811
  3025  05AC  07C8               	addwf	(___ftmul@f3_as_product+1),f
  3026  05AD                     u5811:
  3027  05AD  0841               	movf	(___ftmul@f2+2),w
  3028  05AE  1103               	clrz
  3029  05AF  1803               	skipnc
  3030  05B0  0A41               	incf	(___ftmul@f2+2),w
  3031  05B1  1903               	skipnz
  3032  05B2  2DB4               	goto	u5812
  3033  05B3  07C9               	addwf	(___ftmul@f3_as_product+2),f
  3034  05B4                     u5812:
  3035                           
  3036  05B4  2DB5               	goto	l12656
  3037                           	
  3038  05B5                     l9428:	
  3039                           	line	73
  3040                           	
  3041  05B5                     l12656:	
  3042  05B5  3001               	movlw	01h
  3043  05B6                     u5825:
  3044  05B6  1003               	clrc
  3045  05B7  0CBE               	rrf	(___ftmul@f1+2),f
  3046  05B8  0CBD               	rrf	(___ftmul@f1+1),f
  3047  05B9  0CBC               	rrf	(___ftmul@f1),f
  3048  05BA  3EFF               	addlw	-1
  3049  05BB  1D03               	skipz
  3050  05BC  2DB6               	goto	u5825
  3051                           
  3052                           	line	74
  3053                           	
  3054  05BD                     l12658:	
  3055  05BD  3001               	movlw	01h
  3056  05BE                     u5835:
  3057  05BE  1003               	clrc
  3058  05BF  0DBF               	rlf	(___ftmul@f2),f
  3059  05C0  0DC0               	rlf	(___ftmul@f2+1),f
  3060  05C1  0DC1               	rlf	(___ftmul@f2+2),f
  3061  05C2  3EFF               	addlw	-1
  3062  05C3  1D03               	skipz
  3063  05C4  2DBE               	goto	u5835
  3064                           	line	75
  3065                           	
  3066  05C5                     l12660:	
  3067  05C5  3001               	movlw	low(01h)
  3068  05C6  02CA               	subwf	(___ftmul@cntr),f
  3069  05C7  1D03               	btfss	status,2
  3070  05C8  2DCA               	goto	u5841
  3071  05C9  2DCB               	goto	u5840
  3072  05CA                     u5841:
  3073  05CA  2DA0               	goto	l12652
  3074  05CB                     u5840:
  3075  05CB  2DCC               	goto	l12662
  3076                           	
  3077  05CC                     l9429:	
  3078                           	line	76
  3079                           	
  3080  05CC                     l12662:	
  3081  05CC  3009               	movlw	(09h)
  3082  05CD  00C2               	movwf	(??___ftmul+0)+0
  3083  05CE  0842               	movf	(??___ftmul+0)+0,w
  3084  05CF  00CA               	movwf	(___ftmul@cntr)
  3085  05D0  2DD1               	goto	l12664
  3086                           	line	77
  3087                           	
  3088  05D1                     l9430:	
  3089                           	line	78
  3090                           	
  3091  05D1                     l12664:	
  3092  05D1  1C3C               	btfss	(___ftmul@f1),(0)&7
  3093  05D2  2DD4               	goto	u5851
  3094  05D3  2DD5               	goto	u5850
  3095  05D4                     u5851:
  3096  05D4  2DE6               	goto	l12668
  3097  05D5                     u5850:
  3098                           	line	79
  3099                           	
  3100  05D5                     l12666:	
  3101  05D5  083F               	movf	(___ftmul@f2),w
  3102  05D6  07C7               	addwf	(___ftmul@f3_as_product),f
  3103  05D7  0840               	movf	(___ftmul@f2+1),w
  3104  05D8  1103               	clrz
  3105  05D9  1803               	skipnc
  3106  05DA  0A40               	incf	(___ftmul@f2+1),w
  3107  05DB  1903               	skipnz
  3108  05DC  2DDE               	goto	u5861
  3109  05DD  07C8               	addwf	(___ftmul@f3_as_product+1),f
  3110  05DE                     u5861:
  3111  05DE  0841               	movf	(___ftmul@f2+2),w
  3112  05DF  1103               	clrz
  3113  05E0  1803               	skipnc
  3114  05E1  0A41               	incf	(___ftmul@f2+2),w
  3115  05E2  1903               	skipnz
  3116  05E3  2DE5               	goto	u5862
  3117  05E4  07C9               	addwf	(___ftmul@f3_as_product+2),f
  3118  05E5                     u5862:
  3119                           
  3120  05E5  2DE6               	goto	l12668
  3121                           	
  3122  05E6                     l9431:	
  3123                           	line	80
  3124                           	
  3125  05E6                     l12668:	
  3126  05E6  3001               	movlw	01h
  3127  05E7                     u5875:
  3128  05E7  1003               	clrc
  3129  05E8  0CBE               	rrf	(___ftmul@f1+2),f
  3130  05E9  0CBD               	rrf	(___ftmul@f1+1),f
  3131  05EA  0CBC               	rrf	(___ftmul@f1),f
  3132  05EB  3EFF               	addlw	-1
  3133  05EC  1D03               	skipz
  3134  05ED  2DE7               	goto	u5875
  3135                           
  3136                           	line	81
  3137                           	
  3138  05EE                     l12670:	
  3139  05EE  3001               	movlw	01h
  3140  05EF                     u5885:
  3141  05EF  1003               	clrc
  3142  05F0  0CC9               	rrf	(___ftmul@f3_as_product+2),f
  3143  05F1  0CC8               	rrf	(___ftmul@f3_as_product+1),f
  3144  05F2  0CC7               	rrf	(___ftmul@f3_as_product),f
  3145  05F3  3EFF               	addlw	-1
  3146  05F4  1D03               	skipz
  3147  05F5  2DEF               	goto	u5885
  3148                           
  3149                           	line	82
  3150                           	
  3151  05F6                     l12672:	
  3152  05F6  3001               	movlw	low(01h)
  3153  05F7  02CA               	subwf	(___ftmul@cntr),f
  3154  05F8  1D03               	btfss	status,2
  3155  05F9  2DFB               	goto	u5891
  3156  05FA  2DFC               	goto	u5890
  3157  05FB                     u5891:
  3158  05FB  2DD1               	goto	l12664
  3159  05FC                     u5890:
  3160  05FC  2DFD               	goto	l12674
  3161                           	
  3162  05FD                     l9432:	
  3163                           	line	83
  3164                           	
  3165  05FD                     l12674:	
  3166  05FD  0847               	movf	(___ftmul@f3_as_product),w
  3167  05FE  00A0               	movwf	(?___ftpack)
  3168  05FF  0848               	movf	(___ftmul@f3_as_product+1),w
  3169  0600  00A1               	movwf	(?___ftpack+1)
  3170  0601  0849               	movf	(___ftmul@f3_as_product+2),w
  3171  0602  00A2               	movwf	(?___ftpack+2)
  3172  0603  0846               	movf	(___ftmul@exp),w
  3173  0604  00C2               	movwf	(??___ftmul+0)+0
  3174  0605  0842               	movf	(??___ftmul+0)+0,w
  3175  0606  00A3               	movwf	0+(?___ftpack)+03h
  3176  0607  084B               	movf	(___ftmul@sign),w
  3177  0608  00C3               	movwf	(??___ftmul+1)+0
  3178  0609  0843               	movf	(??___ftmul+1)+0,w
  3179  060A  00A4               	movwf	0+(?___ftpack)+04h
  3180  060B  120A  118A  26C0   	fcall	___ftpack
              120A  118A         
  3181  0610  1283               	bcf	status, 5	;RP0=0, select bank0
  3182  0611  1303               	bcf	status, 6	;RP1=0, select bank0
  3183  0612  0820               	movf	(0+(?___ftpack)),w
  3184  0613  00BC               	movwf	(?___ftmul)
  3185  0614  0821               	movf	(1+(?___ftpack)),w
  3186  0615  00BD               	movwf	(?___ftmul+1)
  3187  0616  0822               	movf	(2+(?___ftpack)),w
  3188  0617  00BE               	movwf	(?___ftmul+2)
  3189  0618  2E19               	goto	l9425
  3190                           	
  3191  0619                     l12676:	
  3192                           	line	84
  3193                           	
  3194  0619                     l9425:	
  3195  0619  0008               	return
  3196                           	opt stack 0
  3197                           GLOBAL	__end_of___ftmul
  3198  061A                     	__end_of___ftmul:
  3199 ;; =============== function ___ftmul ends ============
  3200                           
  3201                           	signat	___ftmul,8315
  3202                           	global	___ftadd
  3203                           psect	text846,local,class=CODE,delta=2
  3204                           global __ptext846
  3205  03E6                     __ptext846:
  3206                           
  3207 ;; *************** function ___ftadd *****************
  3208 ;; Defined at:
  3209 ;;		line 87 in file "C:\Program Files (x86)\HI-TECH Software\PICC\9.82\sources\ftadd.c"
  3210 ;; Parameters:    Size  Location     Type
  3211 ;;  f1              3   44[BANK0 ] float 
  3212 ;;  f2              3   47[BANK0 ] float 
  3213 ;; Auto vars:     Size  Location     Type
  3214 ;;  exp1            1   56[BANK0 ] unsigned char 
  3215 ;;  exp2            1   55[BANK0 ] unsigned char 
  3216 ;;  sign            1   54[BANK0 ] unsigned char 
  3217 ;; Return value:  Size  Location     Type
  3218 ;;                  3   44[BANK0 ] float 
  3219 ;; Registers used:
  3220 ;;		wreg, status,2, status,0, pclath, cstack
  3221 ;; Tracked objects:
  3222 ;;		On entry : 0/0
  3223 ;;		On exit  : 0/0
  3224 ;;		Unchanged: 0/0
  3225 ;; Data sizes:     COMMON   BANK0   BANK1   BANK3   BANK2
  3226 ;;      Params:         0       6       0       0       0
  3227 ;;      Locals:         0       3       0       0       0
  3228 ;;      Temps:          0       4       0       0       0
  3229 ;;      Totals:         0      13       0       0       0
  3230 ;;Total ram usage:       13 bytes
  3231 ;; Hardware stack levels used:    1
  3232 ;; Hardware stack levels required when called:    2
  3233 ;; This function calls:
  3234 ;;		___ftpack
  3235 ;; This function is called by:
  3236 ;;		_Trace_PID
  3237 ;;		___ftsub
  3238 ;; This function uses a non-reentrant model
  3239 ;;
  3240                           psect	text846
  3241                           	file	"C:\Program Files (x86)\HI-TECH Software\PICC\9.82\sources\ftadd.c"
  3242                           	line	87
  3243                           	global	__size_of___ftadd
  3244  0146                     	__size_of___ftadd	equ	__end_of___ftadd-___ftadd
  3245                           	
  3246  03E6                     ___ftadd:	
  3247                           	opt	stack 3
  3248                           ; Regs used in ___ftadd: [wreg+status,2+status,0+pclath+cstack]
  3249                           	line	90
  3250                           	
  3251  03E6                     l12558:	
  3252  03E6  1283               	bcf	status, 5	;RP0=0, select bank0
  3253  03E7  1303               	bcf	status, 6	;RP1=0, select bank0
  3254  03E8  084C               	movf	(___ftadd@f1),w
  3255  03E9  00D2               	movwf	((??___ftadd+0)+0)
  3256  03EA  084D               	movf	(___ftadd@f1+1),w
  3257  03EB  00D3               	movwf	((??___ftadd+0)+0+1)
  3258  03EC  084E               	movf	(___ftadd@f1+2),w
  3259  03ED  00D4               	movwf	((??___ftadd+0)+0+2)
  3260  03EE  1003               	clrc
  3261  03EF  0D53               	rlf	(??___ftadd+0)+1,w
  3262  03F0  0D54               	rlf	(??___ftadd+0)+2,w
  3263  03F1  00D5               	movwf	(??___ftadd+3)+0
  3264  03F2  0855               	movf	(??___ftadd+3)+0,w
  3265  03F3  00D8               	movwf	(___ftadd@exp1)
  3266                           	line	91
  3267  03F4  084F               	movf	(___ftadd@f2),w
  3268  03F5  00D2               	movwf	((??___ftadd+0)+0)
  3269  03F6  0850               	movf	(___ftadd@f2+1),w
  3270  03F7  00D3               	movwf	((??___ftadd+0)+0+1)
  3271  03F8  0851               	movf	(___ftadd@f2+2),w
  3272  03F9  00D4               	movwf	((??___ftadd+0)+0+2)
  3273  03FA  1003               	clrc
  3274  03FB  0D53               	rlf	(??___ftadd+0)+1,w
  3275  03FC  0D54               	rlf	(??___ftadd+0)+2,w
  3276  03FD  00D5               	movwf	(??___ftadd+3)+0
  3277  03FE  0855               	movf	(??___ftadd+3)+0,w
  3278  03FF  00D7               	movwf	(___ftadd@exp2)
  3279                           	line	92
  3280                           	
  3281  0400                     l12560:	
  3282  0400  0858               	movf	(___ftadd@exp1),w
  3283  0401  1D03               	skipz
  3284  0402  2C04               	goto	u5520
  3285  0403  2C15               	goto	l12566
  3286  0404                     u5520:
  3287                           	
  3288  0404                     l12562:	
  3289  0404  0857               	movf	(___ftadd@exp2),w
  3290  0405  0258               	subwf	(___ftadd@exp1),w
  3291  0406  1803               	skipnc
  3292  0407  2C09               	goto	u5531
  3293  0408  2C0A               	goto	u5530
  3294  0409                     u5531:
  3295  0409  2C1D               	goto	l12570
  3296  040A                     u5530:
  3297                           	
  3298  040A                     l12564:	
  3299  040A  0358               	decf	(___ftadd@exp1),w
  3300  040B  3AFF               	xorlw	0ffh
  3301  040C  0757               	addwf	(___ftadd@exp2),w
  3302  040D  00D2               	movwf	(??___ftadd+0)+0
  3303  040E  3019               	movlw	(019h)
  3304  040F  0252               	subwf	0+(??___ftadd+0)+0,w
  3305  0410  1C03               	skipc
  3306  0411  2C13               	goto	u5541
  3307  0412  2C14               	goto	u5540
  3308  0413                     u5541:
  3309  0413  2C1D               	goto	l12570
  3310  0414                     u5540:
  3311  0414  2C15               	goto	l12566
  3312                           	
  3313  0415                     l9372:	
  3314                           	line	93
  3315                           	
  3316  0415                     l12566:	
  3317  0415  084F               	movf	(___ftadd@f2),w
  3318  0416  00CC               	movwf	(?___ftadd)
  3319  0417  0850               	movf	(___ftadd@f2+1),w
  3320  0418  00CD               	movwf	(?___ftadd+1)
  3321  0419  0851               	movf	(___ftadd@f2+2),w
  3322  041A  00CE               	movwf	(?___ftadd+2)
  3323  041B  2D2B               	goto	l9373
  3324                           	
  3325  041C                     l12568:	
  3326  041C  2D2B               	goto	l9373
  3327                           	
  3328  041D                     l9370:	
  3329                           	line	94
  3330                           	
  3331  041D                     l12570:	
  3332  041D  0857               	movf	(___ftadd@exp2),w
  3333  041E  1D03               	skipz
  3334  041F  2C21               	goto	u5550
  3335  0420  2C31               	goto	l9376
  3336  0421                     u5550:
  3337                           	
  3338  0421                     l12572:	
  3339  0421  0858               	movf	(___ftadd@exp1),w
  3340  0422  0257               	subwf	(___ftadd@exp2),w
  3341  0423  1803               	skipnc
  3342  0424  2C26               	goto	u5561
  3343  0425  2C27               	goto	u5560
  3344  0426                     u5561:
  3345  0426  2C32               	goto	l12576
  3346  0427                     u5560:
  3347                           	
  3348  0427                     l12574:	
  3349  0427  0357               	decf	(___ftadd@exp2),w
  3350  0428  3AFF               	xorlw	0ffh
  3351  0429  0758               	addwf	(___ftadd@exp1),w
  3352  042A  00D2               	movwf	(??___ftadd+0)+0
  3353  042B  3019               	movlw	(019h)
  3354  042C  0252               	subwf	0+(??___ftadd+0)+0,w
  3355  042D  1C03               	skipc
  3356  042E  2C30               	goto	u5571
  3357  042F  2C31               	goto	u5570
  3358  0430                     u5571:
  3359  0430  2C32               	goto	l12576
  3360  0431                     u5570:
  3361                           	
  3362  0431                     l9376:	
  3363                           	line	95
  3364  0431  2D2B               	goto	l9373
  3365                           	
  3366  0432                     l9374:	
  3367                           	line	96
  3368                           	
  3369  0432                     l12576:	
  3370  0432  3006               	movlw	(06h)
  3371  0433  00D2               	movwf	(??___ftadd+0)+0
  3372  0434  0852               	movf	(??___ftadd+0)+0,w
  3373  0435  00D6               	movwf	(___ftadd@sign)
  3374                           	line	97
  3375                           	
  3376  0436                     l12578:	
  3377  0436  1FCE               	btfss	(___ftadd@f1+2),(23)&7
  3378  0437  2C39               	goto	u5581
  3379  0438  2C3A               	goto	u5580
  3380  0439                     u5581:
  3381  0439  2C3B               	goto	l9377
  3382  043A                     u5580:
  3383                           	line	98
  3384                           	
  3385  043A                     l12580:	
  3386  043A  17D6               	bsf	(___ftadd@sign)+(7/8),(7)&7
  3387                           	
  3388  043B                     l9377:	
  3389                           	line	99
  3390  043B  1FD1               	btfss	(___ftadd@f2+2),(23)&7
  3391  043C  2C3E               	goto	u5591
  3392  043D  2C3F               	goto	u5590
  3393  043E                     u5591:
  3394  043E  2C40               	goto	l9378
  3395  043F                     u5590:
  3396                           	line	100
  3397                           	
  3398  043F                     l12582:	
  3399  043F  1756               	bsf	(___ftadd@sign)+(6/8),(6)&7
  3400                           	
  3401  0440                     l9378:	
  3402                           	line	101
  3403  0440  17CD               	bsf	(___ftadd@f1)+(15/8),(15)&7
  3404                           	line	102
  3405                           	
  3406  0441                     l12584:	
  3407  0441  30FF               	movlw	0FFh
  3408  0442  05CC               	andwf	(___ftadd@f1),f
  3409  0443  30FF               	movlw	0FFh
  3410  0444  05CD               	andwf	(___ftadd@f1+1),f
  3411  0445  3000               	movlw	0
  3412  0446  05CE               	andwf	(___ftadd@f1+2),f
  3413                           	line	103
  3414                           	
  3415  0447                     l12586:	
  3416  0447  17D0               	bsf	(___ftadd@f2)+(15/8),(15)&7
  3417                           	line	104
  3418  0448  30FF               	movlw	0FFh
  3419  0449  05CF               	andwf	(___ftadd@f2),f
  3420  044A  30FF               	movlw	0FFh
  3421  044B  05D0               	andwf	(___ftadd@f2+1),f
  3422  044C  3000               	movlw	0
  3423  044D  05D1               	andwf	(___ftadd@f2+2),f
  3424                           	line	106
  3425  044E  0857               	movf	(___ftadd@exp2),w
  3426  044F  0258               	subwf	(___ftadd@exp1),w
  3427  0450  1803               	skipnc
  3428  0451  2C53               	goto	u5601
  3429  0452  2C54               	goto	u5600
  3430  0453                     u5601:
  3431  0453  2C85               	goto	l12598
  3432  0454                     u5600:
  3433  0454  2C55               	goto	l12588
  3434                           	line	109
  3435                           	
  3436  0455                     l9380:	
  3437                           	line	110
  3438                           	
  3439  0455                     l12588:	
  3440  0455  3001               	movlw	01h
  3441  0456                     u5615:
  3442  0456  1003               	clrc
  3443  0457  0DCF               	rlf	(___ftadd@f2),f
  3444  0458  0DD0               	rlf	(___ftadd@f2+1),f
  3445  0459  0DD1               	rlf	(___ftadd@f2+2),f
  3446  045A  3EFF               	addlw	-1
  3447  045B  1D03               	skipz
  3448  045C  2C56               	goto	u5615
  3449                           	line	111
  3450  045D  3001               	movlw	low(01h)
  3451  045E  02D7               	subwf	(___ftadd@exp2),f
  3452                           	line	112
  3453                           	
  3454  045F                     l12590:	
  3455  045F  0857               	movf	(___ftadd@exp2),w
  3456  0460  0658               	xorwf	(___ftadd@exp1),w
  3457  0461  1903               	skipnz
  3458  0462  2C64               	goto	u5621
  3459  0463  2C65               	goto	u5620
  3460  0464                     u5621:
  3461  0464  2C7D               	goto	l12596
  3462  0465                     u5620:
  3463                           	
  3464  0465                     l12592:	
  3465  0465  3001               	movlw	low(01h)
  3466  0466  02D6               	subwf	(___ftadd@sign),f
  3467  0467  0856               	movf	((___ftadd@sign)),w
  3468  0468  3907               	andlw	07h
  3469  0469  1D03               	btfss	status,2
  3470  046A  2C6C               	goto	u5631
  3471  046B  2C6D               	goto	u5630
  3472  046C                     u5631:
  3473  046C  2C55               	goto	l12588
  3474  046D                     u5630:
  3475  046D  2C7D               	goto	l12596
  3476                           	
  3477  046E                     l9382:	
  3478  046E  2C7D               	goto	l12596
  3479                           	
  3480  046F                     l9383:	
  3481                           	line	113
  3482  046F  2C7D               	goto	l12596
  3483                           	
  3484  0470                     l9385:	
  3485                           	line	114
  3486                           	
  3487  0470                     l12594:	
  3488  0470  3001               	movlw	01h
  3489  0471                     u5645:
  3490  0471  1003               	clrc
  3491  0472  0CCE               	rrf	(___ftadd@f1+2),f
  3492  0473  0CCD               	rrf	(___ftadd@f1+1),f
  3493  0474  0CCC               	rrf	(___ftadd@f1),f
  3494  0475  3EFF               	addlw	-1
  3495  0476  1D03               	skipz
  3496  0477  2C71               	goto	u5645
  3497                           
  3498                           	line	115
  3499  0478  3001               	movlw	(01h)
  3500  0479  00D2               	movwf	(??___ftadd+0)+0
  3501  047A  0852               	movf	(??___ftadd+0)+0,w
  3502  047B  07D8               	addwf	(___ftadd@exp1),f
  3503  047C  2C7D               	goto	l12596
  3504                           	line	116
  3505                           	
  3506  047D                     l9384:	
  3507                           	line	113
  3508                           	
  3509  047D                     l12596:	
  3510  047D  0858               	movf	(___ftadd@exp1),w
  3511  047E  0657               	xorwf	(___ftadd@exp2),w
  3512  047F  1D03               	skipz
  3513  0480  2C82               	goto	u5651
  3514  0481  2C83               	goto	u5650
  3515  0482                     u5651:
  3516  0482  2C70               	goto	l12594
  3517  0483                     u5650:
  3518  0483  2CBC               	goto	l9387
  3519                           	
  3520  0484                     l9386:	
  3521                           	line	117
  3522  0484  2CBC               	goto	l9387
  3523                           	
  3524  0485                     l9379:	
  3525                           	
  3526  0485                     l12598:	
  3527  0485  0858               	movf	(___ftadd@exp1),w
  3528  0486  0257               	subwf	(___ftadd@exp2),w
  3529  0487  1803               	skipnc
  3530  0488  2C8A               	goto	u5661
  3531  0489  2C8B               	goto	u5660
  3532  048A                     u5661:
  3533  048A  2CBC               	goto	l9387
  3534  048B                     u5660:
  3535  048B  2C8C               	goto	l12600
  3536                           	line	120
  3537                           	
  3538  048C                     l9389:	
  3539                           	line	121
  3540                           	
  3541  048C                     l12600:	
  3542  048C  3001               	movlw	01h
  3543  048D                     u5675:
  3544  048D  1003               	clrc
  3545  048E  0DCC               	rlf	(___ftadd@f1),f
  3546  048F  0DCD               	rlf	(___ftadd@f1+1),f
  3547  0490  0DCE               	rlf	(___ftadd@f1+2),f
  3548  0491  3EFF               	addlw	-1
  3549  0492  1D03               	skipz
  3550  0493  2C8D               	goto	u5675
  3551                           	line	122
  3552  0494  3001               	movlw	low(01h)
  3553  0495  02D8               	subwf	(___ftadd@exp1),f
  3554                           	line	123
  3555                           	
  3556  0496                     l12602:	
  3557  0496  0857               	movf	(___ftadd@exp2),w
  3558  0497  0658               	xorwf	(___ftadd@exp1),w
  3559  0498  1903               	skipnz
  3560  0499  2C9B               	goto	u5681
  3561  049A  2C9C               	goto	u5680
  3562  049B                     u5681:
  3563  049B  2CB4               	goto	l12608
  3564  049C                     u5680:
  3565                           	
  3566  049C                     l12604:	
  3567  049C  3001               	movlw	low(01h)
  3568  049D  02D6               	subwf	(___ftadd@sign),f
  3569  049E  0856               	movf	((___ftadd@sign)),w
  3570  049F  3907               	andlw	07h
  3571  04A0  1D03               	btfss	status,2
  3572  04A1  2CA3               	goto	u5691
  3573  04A2  2CA4               	goto	u5690
  3574  04A3                     u5691:
  3575  04A3  2C8C               	goto	l12600
  3576  04A4                     u5690:
  3577  04A4  2CB4               	goto	l12608
  3578                           	
  3579  04A5                     l9391:	
  3580  04A5  2CB4               	goto	l12608
  3581                           	
  3582  04A6                     l9392:	
  3583                           	line	124
  3584  04A6  2CB4               	goto	l12608
  3585                           	
  3586  04A7                     l9394:	
  3587                           	line	125
  3588                           	
  3589  04A7                     l12606:	
  3590  04A7  3001               	movlw	01h
  3591  04A8                     u5705:
  3592  04A8  1003               	clrc
  3593  04A9  0CD1               	rrf	(___ftadd@f2+2),f
  3594  04AA  0CD0               	rrf	(___ftadd@f2+1),f
  3595  04AB  0CCF               	rrf	(___ftadd@f2),f
  3596  04AC  3EFF               	addlw	-1
  3597  04AD  1D03               	skipz
  3598  04AE  2CA8               	goto	u5705
  3599                           
  3600                           	line	126
  3601  04AF  3001               	movlw	(01h)
  3602  04B0  00D2               	movwf	(??___ftadd+0)+0
  3603  04B1  0852               	movf	(??___ftadd+0)+0,w
  3604  04B2  07D7               	addwf	(___ftadd@exp2),f
  3605  04B3  2CB4               	goto	l12608
  3606                           	line	127
  3607                           	
  3608  04B4                     l9393:	
  3609                           	line	124
  3610                           	
  3611  04B4                     l12608:	
  3612  04B4  0858               	movf	(___ftadd@exp1),w
  3613  04B5  0657               	xorwf	(___ftadd@exp2),w
  3614  04B6  1D03               	skipz
  3615  04B7  2CB9               	goto	u5711
  3616  04B8  2CBA               	goto	u5710
  3617  04B9                     u5711:
  3618  04B9  2CA7               	goto	l12606
  3619  04BA                     u5710:
  3620  04BA  2CBC               	goto	l9387
  3621                           	
  3622  04BB                     l9395:	
  3623  04BB  2CBC               	goto	l9387
  3624                           	line	128
  3625                           	
  3626  04BC                     l9388:	
  3627                           	line	129
  3628                           	
  3629  04BC                     l9387:	
  3630  04BC  1FD6               	btfss	(___ftadd@sign),(7)&7
  3631  04BD  2CBF               	goto	u5721
  3632  04BE  2CC0               	goto	u5720
  3633  04BF                     u5721:
  3634  04BF  2CD1               	goto	l12612
  3635  04C0                     u5720:
  3636                           	line	131
  3637                           	
  3638  04C0                     l12610:	
  3639  04C0  30FF               	movlw	0FFh
  3640  04C1  06CC               	xorwf	(___ftadd@f1),f
  3641  04C2  30FF               	movlw	0FFh
  3642  04C3  06CD               	xorwf	(___ftadd@f1+1),f
  3643  04C4  30FF               	movlw	0FFh
  3644  04C5  06CE               	xorwf	(___ftadd@f1+2),f
  3645                           	line	132
  3646  04C6  3001               	movlw	01h
  3647  04C7  07CC               	addwf	(___ftadd@f1),f
  3648  04C8  3000               	movlw	0
  3649  04C9  1803               	skipnc
  3650  04CA  3001               movlw 1
  3651  04CB  07CD               	addwf	(___ftadd@f1+1),f
  3652  04CC  3000               	movlw	0
  3653  04CD  1803               	skipnc
  3654  04CE  3001               movlw 1
  3655  04CF  07CE               	addwf	(___ftadd@f1+2),f
  3656  04D0  2CD1               	goto	l12612
  3657                           	line	133
  3658                           	
  3659  04D1                     l9396:	
  3660                           	line	134
  3661                           	
  3662  04D1                     l12612:	
  3663  04D1  1F56               	btfss	(___ftadd@sign),(6)&7
  3664  04D2  2CD4               	goto	u5731
  3665  04D3  2CD5               	goto	u5730
  3666  04D4                     u5731:
  3667  04D4  2CE6               	goto	l12616
  3668  04D5                     u5730:
  3669                           	line	136
  3670                           	
  3671  04D5                     l12614:	
  3672  04D5  30FF               	movlw	0FFh
  3673  04D6  06CF               	xorwf	(___ftadd@f2),f
  3674  04D7  30FF               	movlw	0FFh
  3675  04D8  06D0               	xorwf	(___ftadd@f2+1),f
  3676  04D9  30FF               	movlw	0FFh
  3677  04DA  06D1               	xorwf	(___ftadd@f2+2),f
  3678                           	line	137
  3679  04DB  3001               	movlw	01h
  3680  04DC  07CF               	addwf	(___ftadd@f2),f
  3681  04DD  3000               	movlw	0
  3682  04DE  1803               	skipnc
  3683  04DF  3001               movlw 1
  3684  04E0  07D0               	addwf	(___ftadd@f2+1),f
  3685  04E1  3000               	movlw	0
  3686  04E2  1803               	skipnc
  3687  04E3  3001               movlw 1
  3688  04E4  07D1               	addwf	(___ftadd@f2+2),f
  3689  04E5  2CE6               	goto	l12616
  3690                           	line	138
  3691                           	
  3692  04E6                     l9397:	
  3693                           	line	139
  3694                           	
  3695  04E6                     l12616:	
  3696  04E6  01D6               	clrf	(___ftadd@sign)
  3697                           	line	140
  3698  04E7  084C               	movf	(___ftadd@f1),w
  3699  04E8  07CF               	addwf	(___ftadd@f2),f
  3700  04E9  084D               	movf	(___ftadd@f1+1),w
  3701  04EA  1103               	clrz
  3702  04EB  1803               	skipnc
  3703  04EC  0A4D               	incf	(___ftadd@f1+1),w
  3704  04ED  1903               	skipnz
  3705  04EE  2CF0               	goto	u5741
  3706  04EF  07D0               	addwf	(___ftadd@f2+1),f
  3707  04F0                     u5741:
  3708  04F0  084E               	movf	(___ftadd@f1+2),w
  3709  04F1  1103               	clrz
  3710  04F2  1803               	skipnc
  3711  04F3  0A4E               	incf	(___ftadd@f1+2),w
  3712  04F4  1903               	skipnz
  3713  04F5  2CF7               	goto	u5742
  3714  04F6  07D1               	addwf	(___ftadd@f2+2),f
  3715  04F7                     u5742:
  3716                           
  3717                           	line	141
  3718                           	
  3719  04F7                     l12618:	
  3720  04F7  1FD1               	btfss	(___ftadd@f2+2),(23)&7
  3721  04F8  2CFA               	goto	u5751
  3722  04F9  2CFB               	goto	u5750
  3723  04FA                     u5751:
  3724  04FA  2D0F               	goto	l12624
  3725  04FB                     u5750:
  3726                           	line	142
  3727                           	
  3728  04FB                     l12620:	
  3729  04FB  30FF               	movlw	0FFh
  3730  04FC  06CF               	xorwf	(___ftadd@f2),f
  3731  04FD  30FF               	movlw	0FFh
  3732  04FE  06D0               	xorwf	(___ftadd@f2+1),f
  3733  04FF  30FF               	movlw	0FFh
  3734  0500  06D1               	xorwf	(___ftadd@f2+2),f
  3735                           	line	143
  3736  0501  3001               	movlw	01h
  3737  0502  07CF               	addwf	(___ftadd@f2),f
  3738  0503  3000               	movlw	0
  3739  0504  1803               	skipnc
  3740  0505  3001               movlw 1
  3741  0506  07D0               	addwf	(___ftadd@f2+1),f
  3742  0507  3000               	movlw	0
  3743  0508  1803               	skipnc
  3744  0509  3001               movlw 1
  3745  050A  07D1               	addwf	(___ftadd@f2+2),f
  3746                           	line	144
  3747                           	
  3748  050B                     l12622:	
  3749  050B  01D6               	clrf	(___ftadd@sign)
  3750  050C  1403               	bsf	status,0
  3751  050D  0DD6               	rlf	(___ftadd@sign),f
  3752  050E  2D0F               	goto	l12624
  3753                           	line	145
  3754                           	
  3755  050F                     l9398:	
  3756                           	line	146
  3757                           	
  3758  050F                     l12624:	
  3759  050F  084F               	movf	(___ftadd@f2),w
  3760  0510  00A0               	movwf	(?___ftpack)
  3761  0511  0850               	movf	(___ftadd@f2+1),w
  3762  0512  00A1               	movwf	(?___ftpack+1)
  3763  0513  0851               	movf	(___ftadd@f2+2),w
  3764  0514  00A2               	movwf	(?___ftpack+2)
  3765  0515  0858               	movf	(___ftadd@exp1),w
  3766  0516  00D2               	movwf	(??___ftadd+0)+0
  3767  0517  0852               	movf	(??___ftadd+0)+0,w
  3768  0518  00A3               	movwf	0+(?___ftpack)+03h
  3769  0519  0856               	movf	(___ftadd@sign),w
  3770  051A  00D3               	movwf	(??___ftadd+1)+0
  3771  051B  0853               	movf	(??___ftadd+1)+0,w
  3772  051C  00A4               	movwf	0+(?___ftpack)+04h
  3773  051D  120A  118A  26C0   	fcall	___ftpack
              120A  118A         
  3774  0522  1283               	bcf	status, 5	;RP0=0, select bank0
  3775  0523  1303               	bcf	status, 6	;RP1=0, select bank0
  3776  0524  0820               	movf	(0+(?___ftpack)),w
  3777  0525  00CC               	movwf	(?___ftadd)
  3778  0526  0821               	movf	(1+(?___ftpack)),w
  3779  0527  00CD               	movwf	(?___ftadd+1)
  3780  0528  0822               	movf	(2+(?___ftpack)),w
  3781  0529  00CE               	movwf	(?___ftadd+2)
  3782  052A  2D2B               	goto	l9373
  3783                           	
  3784  052B                     l12626:	
  3785                           	line	148
  3786                           	
  3787  052B                     l9373:	
  3788  052B  0008               	return
  3789                           	opt stack 0
  3790                           GLOBAL	__end_of___ftadd
  3791  052C                     	__end_of___ftadd:
  3792 ;; =============== function ___ftadd ends ============
  3793                           
  3794                           	signat	___ftadd,8315
  3795                           	global	_Delay_ms
  3796                           psect	text847,local,class=CODE,delta=2
  3797                           global __ptext847
  3798  0EC9                     __ptext847:
  3799                           
  3800 ;; *************** function _Delay_ms *****************
  3801 ;; Defined at:
  3802 ;;		line 4 in file "D:\6_pic_project\00_Design_Flow_Car\System\Delay.c"
  3803 ;; Parameters:    Size  Location     Type
  3804 ;;  x               2    0[BANK0 ] unsigned int 
  3805 ;; Auto vars:     Size  Location     Type
  3806 ;;		None
  3807 ;; Return value:  Size  Location     Type
  3808 ;;		None               void
  3809 ;; Registers used:
  3810 ;;		wreg
  3811 ;; Tracked objects:
  3812 ;;		On entry : 0/0
  3813 ;;		On exit  : 0/0
  3814 ;;		Unchanged: 0/0
  3815 ;; Data sizes:     COMMON   BANK0   BANK1   BANK3   BANK2
  3816 ;;      Params:         0       2       0       0       0
  3817 ;;      Locals:         0       0       0       0       0
  3818 ;;      Temps:          0       0       0       0       0
  3819 ;;      Totals:         0       2       0       0       0
  3820 ;;Total ram usage:        2 bytes
  3821 ;; Hardware stack levels used:    1
  3822 ;; Hardware stack levels required when called:    1
  3823 ;; This function calls:
  3824 ;;		Nothing
  3825 ;; This function is called by:
  3826 ;;		_main
  3827 ;;		_Self_Check
  3828 ;; This function uses a non-reentrant model
  3829 ;;
  3830                           psect	text847
  3831                           	file	"D:\6_pic_project\00_Design_Flow_Car\System\Delay.c"
  3832                           	line	4
  3833                           	global	__size_of_Delay_ms
  3834  0017                     	__size_of_Delay_ms	equ	__end_of_Delay_ms-_Delay_ms
  3835                           	
  3836  0EC9                     _Delay_ms:	
  3837                           	opt	stack 6
  3838                           ; Regs used in _Delay_ms: [wreg]
  3839                           	line	5
  3840                           	
  3841  0EC9                     l12554:	
  3842                           ;Delay.c: 5: while(x--)
  3843  0EC9  2ECC               	goto	l12556
  3844                           	
  3845  0ECA                     l5015:	
  3846                           	line	7
  3847                           ;Delay.c: 6: {
  3848                           ;Delay.c: 7: _nop();
  3849  0ECA  0000               	nop
  3850  0ECB  2ECC               	goto	l12556
  3851                           	line	8
  3852                           	
  3853  0ECC                     l5014:	
  3854                           	line	5
  3855                           	
  3856  0ECC                     l12556:	
  3857  0ECC  3001               	movlw	low(01h)
  3858  0ECD  1283               	bcf	status, 5	;RP0=0, select bank0
  3859  0ECE  1303               	bcf	status, 6	;RP1=0, select bank0
  3860  0ECF  02A0               	subwf	(Delay_ms@x),f
  3861  0ED0  3000               	movlw	high(01h)
  3862  0ED1  1C03               	skipc
  3863  0ED2  03A1               	decf	(Delay_ms@x+1),f
  3864  0ED3  02A1               	subwf	(Delay_ms@x+1),f
  3865  0ED4  30FF               	movlw	high(0FFFFh)
  3866  0ED5  0621               	xorwf	((Delay_ms@x+1)),w
  3867  0ED6  1D03               	skipz
  3868  0ED7  2EDA               	goto	u5515
  3869  0ED8  30FF               	movlw	low(0FFFFh)
  3870  0ED9  0620               	xorwf	((Delay_ms@x)),w
  3871  0EDA                     u5515:
  3872                           
  3873  0EDA  1D03               	skipz
  3874  0EDB  2EDD               	goto	u5511
  3875  0EDC  2EDE               	goto	u5510
  3876  0EDD                     u5511:
  3877  0EDD  2ECA               	goto	l5015
  3878  0EDE                     u5510:
  3879  0EDE  2EDF               	goto	l5017
  3880                           	
  3881  0EDF                     l5016:	
  3882                           	line	9
  3883                           	
  3884  0EDF                     l5017:	
  3885  0EDF  0008               	return
  3886                           	opt stack 0
  3887                           GLOBAL	__end_of_Delay_ms
  3888  0EE0                     	__end_of_Delay_ms:
  3889 ;; =============== function _Delay_ms ends ============
  3890                           
  3891                           	signat	_Delay_ms,4216
  3892                           	global	___fttol
  3893                           psect	text848,local,class=CODE,delta=2
  3894                           global __ptext848
  3895  061A                     __ptext848:
  3896                           
  3897 ;; *************** function ___fttol *****************
  3898 ;; Defined at:
  3899 ;;		line 45 in file "C:\Program Files (x86)\HI-TECH Software\PICC\9.82\sources\fttol.c"
  3900 ;; Parameters:    Size  Location     Type
  3901 ;;  f1              3    8[BANK0 ] float 
  3902 ;; Auto vars:     Size  Location     Type
  3903 ;;  lval            4   17[BANK0 ] unsigned long 
  3904 ;;  exp1            1   21[BANK0 ] unsigned char 
  3905 ;;  sign1           1   16[BANK0 ] unsigned char 
  3906 ;; Return value:  Size  Location     Type
  3907 ;;                  4    8[BANK0 ] long 
  3908 ;; Registers used:
  3909 ;;		wreg, status,2, status,0
  3910 ;; Tracked objects:
  3911 ;;		On entry : 0/0
  3912 ;;		On exit  : 0/0
  3913 ;;		Unchanged: 0/0
  3914 ;; Data sizes:     COMMON   BANK0   BANK1   BANK3   BANK2
  3915 ;;      Params:         0       4       0       0       0
  3916 ;;      Locals:         0       6       0       0       0
  3917 ;;      Temps:          0       4       0       0       0
  3918 ;;      Totals:         0      14       0       0       0
  3919 ;;Total ram usage:       14 bytes
  3920 ;; Hardware stack levels used:    1
  3921 ;; Hardware stack levels required when called:    1
  3922 ;; This function calls:
  3923 ;;		Nothing
  3924 ;; This function is called by:
  3925 ;;		_Trace_PID
  3926 ;; This function uses a non-reentrant model
  3927 ;;
  3928                           psect	text848
  3929                           	file	"C:\Program Files (x86)\HI-TECH Software\PICC\9.82\sources\fttol.c"
  3930                           	line	45
  3931                           	global	__size_of___fttol
  3932  00A6                     	__size_of___fttol	equ	__end_of___fttol-___fttol
  3933                           	
  3934  061A                     ___fttol:	
  3935                           	opt	stack 4
  3936                           ; Regs used in ___fttol: [wreg+status,2+status,0]
  3937                           	line	49
  3938                           	
  3939  061A                     l11868:	
  3940  061A  1283               	bcf	status, 5	;RP0=0, select bank0
  3941  061B  1303               	bcf	status, 6	;RP1=0, select bank0
  3942  061C  0828               	movf	(___fttol@f1),w
  3943  061D  00AC               	movwf	((??___fttol+0)+0)
  3944  061E  0829               	movf	(___fttol@f1+1),w
  3945  061F  00AD               	movwf	((??___fttol+0)+0+1)
  3946  0620  082A               	movf	(___fttol@f1+2),w
  3947  0621  00AE               	movwf	((??___fttol+0)+0+2)
  3948  0622  1003               	clrc
  3949  0623  0D2D               	rlf	(??___fttol+0)+1,w
  3950  0624  0D2E               	rlf	(??___fttol+0)+2,w
  3951  0625  00AF               	movwf	(??___fttol+3)+0
  3952  0626  082F               	movf	(??___fttol+3)+0,w
  3953  0627  00B5               	movwf	(___fttol@exp1)
  3954  0628  08B5               	movf	((___fttol@exp1)),f
  3955  0629  1D03               	skipz
  3956  062A  2E2C               	goto	u4261
  3957  062B  2E2D               	goto	u4260
  3958  062C                     u4261:
  3959  062C  2E37               	goto	l11874
  3960  062D                     u4260:
  3961                           	line	50
  3962                           	
  3963  062D                     l11870:	
  3964  062D  3000               	movlw	0
  3965  062E  00AB               	movwf	(?___fttol+3)
  3966  062F  3000               	movlw	0
  3967  0630  00AA               	movwf	(?___fttol+2)
  3968  0631  3000               	movlw	0
  3969  0632  00A9               	movwf	(?___fttol+1)
  3970  0633  3000               	movlw	0
  3971  0634  00A8               	movwf	(?___fttol)
  3972                           
  3973  0635  2EBF               	goto	l9436
  3974                           	
  3975  0636                     l11872:	
  3976  0636  2EBF               	goto	l9436
  3977                           	
  3978  0637                     l9435:	
  3979                           	line	51
  3980                           	
  3981  0637                     l11874:	
  3982  0637  0828               	movf	(___fttol@f1),w
  3983  0638  00AC               	movwf	((??___fttol+0)+0)
  3984  0639  0829               	movf	(___fttol@f1+1),w
  3985  063A  00AD               	movwf	((??___fttol+0)+0+1)
  3986  063B  082A               	movf	(___fttol@f1+2),w
  3987  063C  00AE               	movwf	((??___fttol+0)+0+2)
  3988  063D  3017               	movlw	017h
  3989  063E                     u4275:
  3990  063E  1003               	clrc
  3991  063F  0CAE               	rrf	(??___fttol+0)+2,f
  3992  0640  0CAD               	rrf	(??___fttol+0)+1,f
  3993  0641  0CAC               	rrf	(??___fttol+0)+0,f
  3994  0642                     u4270:
  3995  0642  3EFF               	addlw	-1
  3996  0643  1D03               	skipz
  3997  0644  2E3E               	goto	u4275
  3998  0645  082C               	movf	0+(??___fttol+0)+0,w
  3999  0646  00AF               	movwf	(??___fttol+3)+0
  4000  0647  082F               	movf	(??___fttol+3)+0,w
  4001  0648  00B0               	movwf	(___fttol@sign1)
  4002                           	line	52
  4003                           	
  4004  0649                     l11876:	
  4005  0649  17A9               	bsf	(___fttol@f1)+(15/8),(15)&7
  4006                           	line	53
  4007                           	
  4008  064A                     l11878:	
  4009  064A  30FF               	movlw	0FFh
  4010  064B  05A8               	andwf	(___fttol@f1),f
  4011  064C  30FF               	movlw	0FFh
  4012  064D  05A9               	andwf	(___fttol@f1+1),f
  4013  064E  3000               	movlw	0
  4014  064F  05AA               	andwf	(___fttol@f1+2),f
  4015                           	line	54
  4016                           	
  4017  0650                     l11880:	
  4018  0650  0828               	movf	(___fttol@f1),w
  4019  0651  00B1               	movwf	(___fttol@lval)
  4020  0652  0829               	movf	(___fttol@f1+1),w
  4021  0653  00B2               	movwf	((___fttol@lval))+1
  4022  0654  082A               	movf	(___fttol@f1+2),w
  4023  0655  00B3               	movwf	((___fttol@lval))+2
  4024  0656  01B4               	clrf	((___fttol@lval))+3
  4025                           	line	55
  4026                           	
  4027  0657                     l11882:	
  4028  0657  308E               	movlw	low(08Eh)
  4029  0658  02B5               	subwf	(___fttol@exp1),f
  4030                           	line	56
  4031                           	
  4032  0659                     l11884:	
  4033  0659  1FB5               	btfss	(___fttol@exp1),7
  4034  065A  2E5C               	goto	u4281
  4035  065B  2E5D               	goto	u4280
  4036  065C                     u4281:
  4037  065C  2E82               	goto	l11894
  4038  065D                     u4280:
  4039                           	line	57
  4040                           	
  4041  065D                     l11886:	
  4042  065D  0835               	movf	(___fttol@exp1),w
  4043  065E  3A80               	xorlw	80h
  4044  065F  3E8F               	addlw	-((-15)^80h)
  4045  0660  1803               	skipnc
  4046  0661  2E63               	goto	u4291
  4047  0662  2E64               	goto	u4290
  4048  0663                     u4291:
  4049  0663  2E6F               	goto	l11892
  4050  0664                     u4290:
  4051                           	line	58
  4052                           	
  4053  0664                     l11888:	
  4054  0664  3000               	movlw	0
  4055  0665  00AB               	movwf	(?___fttol+3)
  4056  0666  3000               	movlw	0
  4057  0667  00AA               	movwf	(?___fttol+2)
  4058  0668  3000               	movlw	0
  4059  0669  00A9               	movwf	(?___fttol+1)
  4060  066A  3000               	movlw	0
  4061  066B  00A8               	movwf	(?___fttol)
  4062                           
  4063  066C  2EBF               	goto	l9436
  4064                           	
  4065  066D                     l11890:	
  4066  066D  2EBF               	goto	l9436
  4067                           	
  4068  066E                     l9438:	
  4069  066E  2E6F               	goto	l11892
  4070                           	line	59
  4071                           	
  4072  066F                     l9439:	
  4073                           	line	60
  4074                           	
  4075  066F                     l11892:	
  4076  066F  3001               	movlw	01h
  4077  0670                     u4305:
  4078  0670  1003               	clrc
  4079  0671  0CB4               	rrf	(___fttol@lval+3),f
  4080  0672  0CB3               	rrf	(___fttol@lval+2),f
  4081  0673  0CB2               	rrf	(___fttol@lval+1),f
  4082  0674  0CB1               	rrf	(___fttol@lval),f
  4083  0675  3EFF               	addlw	-1
  4084  0676  1D03               	skipz
  4085  0677  2E70               	goto	u4305
  4086                           
  4087                           	line	61
  4088  0678  3001               	movlw	(01h)
  4089  0679  00AC               	movwf	(??___fttol+0)+0
  4090  067A  082C               	movf	(??___fttol+0)+0,w
  4091  067B  07B5               	addwf	(___fttol@exp1),f
  4092  067C  1D03               	btfss	status,2
  4093  067D  2E7F               	goto	u4311
  4094  067E  2E80               	goto	u4310
  4095  067F                     u4311:
  4096  067F  2E6F               	goto	l11892
  4097  0680                     u4310:
  4098  0680  2EA6               	goto	l11904
  4099                           	
  4100  0681                     l9440:	
  4101                           	line	62
  4102  0681  2EA6               	goto	l11904
  4103                           	
  4104  0682                     l9437:	
  4105                           	line	63
  4106                           	
  4107  0682                     l11894:	
  4108  0682  3018               	movlw	(018h)
  4109  0683  0235               	subwf	(___fttol@exp1),w
  4110  0684  1C03               	skipc
  4111  0685  2E87               	goto	u4321
  4112  0686  2E88               	goto	u4320
  4113  0687                     u4321:
  4114  0687  2E9F               	goto	l11902
  4115  0688                     u4320:
  4116                           	line	64
  4117                           	
  4118  0688                     l11896:	
  4119  0688  3000               	movlw	0
  4120  0689  00AB               	movwf	(?___fttol+3)
  4121  068A  3000               	movlw	0
  4122  068B  00AA               	movwf	(?___fttol+2)
  4123  068C  3000               	movlw	0
  4124  068D  00A9               	movwf	(?___fttol+1)
  4125  068E  3000               	movlw	0
  4126  068F  00A8               	movwf	(?___fttol)
  4127                           
  4128  0690  2EBF               	goto	l9436
  4129                           	
  4130  0691                     l11898:	
  4131  0691  2EBF               	goto	l9436
  4132                           	
  4133  0692                     l9442:	
  4134                           	line	65
  4135  0692  2E9F               	goto	l11902
  4136                           	
  4137  0693                     l9444:	
  4138                           	line	66
  4139                           	
  4140  0693                     l11900:	
  4141  0693  3001               	movlw	01h
  4142  0694  00AC               	movwf	(??___fttol+0)+0
  4143  0695                     u4335:
  4144  0695  1003               	clrc
  4145  0696  0DB1               	rlf	(___fttol@lval),f
  4146  0697  0DB2               	rlf	(___fttol@lval+1),f
  4147  0698  0DB3               	rlf	(___fttol@lval+2),f
  4148  0699  0DB4               	rlf	(___fttol@lval+3),f
  4149  069A  0BAC               	decfsz	(??___fttol+0)+0
  4150  069B  2E95               	goto	u4335
  4151                           	line	67
  4152  069C  3001               	movlw	low(01h)
  4153  069D  02B5               	subwf	(___fttol@exp1),f
  4154  069E  2E9F               	goto	l11902
  4155                           	line	68
  4156                           	
  4157  069F                     l9443:	
  4158                           	line	65
  4159                           	
  4160  069F                     l11902:	
  4161  069F  08B5               	movf	(___fttol@exp1),f
  4162  06A0  1D03               	skipz
  4163  06A1  2EA3               	goto	u4341
  4164  06A2  2EA4               	goto	u4340
  4165  06A3                     u4341:
  4166  06A3  2E93               	goto	l11900
  4167  06A4                     u4340:
  4168  06A4  2EA6               	goto	l11904
  4169                           	
  4170  06A5                     l9445:	
  4171  06A5  2EA6               	goto	l11904
  4172                           	line	69
  4173                           	
  4174  06A6                     l9441:	
  4175                           	line	70
  4176                           	
  4177  06A6                     l11904:	
  4178  06A6  0830               	movf	(___fttol@sign1),w
  4179  06A7  1D03               	skipz
  4180  06A8  2EAA               	goto	u4350
  4181  06A9  2EB6               	goto	l11908
  4182  06AA                     u4350:
  4183                           	line	71
  4184                           	
  4185  06AA                     l11906:	
  4186  06AA  09B1               	comf	(___fttol@lval),f
  4187  06AB  09B2               	comf	(___fttol@lval+1),f
  4188  06AC  09B3               	comf	(___fttol@lval+2),f
  4189  06AD  09B4               	comf	(___fttol@lval+3),f
  4190  06AE  0AB1               	incf	(___fttol@lval),f
  4191  06AF  1903               	skipnz
  4192  06B0  0AB2               	incf	(___fttol@lval+1),f
  4193  06B1  1903               	skipnz
  4194  06B2  0AB3               	incf	(___fttol@lval+2),f
  4195  06B3  1903               	skipnz
  4196  06B4  0AB4               	incf	(___fttol@lval+3),f
  4197  06B5  2EB6               	goto	l11908
  4198                           	
  4199  06B6                     l9446:	
  4200                           	line	72
  4201                           	
  4202  06B6                     l11908:	
  4203  06B6  0834               	movf	(___fttol@lval+3),w
  4204  06B7  00AB               	movwf	(?___fttol+3)
  4205  06B8  0833               	movf	(___fttol@lval+2),w
  4206  06B9  00AA               	movwf	(?___fttol+2)
  4207  06BA  0832               	movf	(___fttol@lval+1),w
  4208  06BB  00A9               	movwf	(?___fttol+1)
  4209  06BC  0831               	movf	(___fttol@lval),w
  4210  06BD  00A8               	movwf	(?___fttol)
  4211                           
  4212  06BE  2EBF               	goto	l9436
  4213                           	
  4214  06BF                     l11910:	
  4215                           	line	73
  4216                           	
  4217  06BF                     l9436:	
  4218  06BF  0008               	return
  4219                           	opt stack 0
  4220                           GLOBAL	__end_of___fttol
  4221  06C0                     	__end_of___fttol:
  4222 ;; =============== function ___fttol ends ============
  4223                           
  4224                           	signat	___fttol,4220
  4225                           	global	___ftpack
  4226                           psect	text849,local,class=CODE,delta=2
  4227                           global __ptext849
  4228  06C0                     __ptext849:
  4229                           
  4230 ;; *************** function ___ftpack *****************
  4231 ;; Defined at:
  4232 ;;		line 63 in file "C:\Program Files (x86)\HI-TECH Software\PICC\9.82\sources\float.c"
  4233 ;; Parameters:    Size  Location     Type
  4234 ;;  arg             3    0[BANK0 ] unsigned um
  4235 ;;  exp             1    3[BANK0 ] unsigned char 
  4236 ;;  sign            1    4[BANK0 ] unsigned char 
  4237 ;; Auto vars:     Size  Location     Type
  4238 ;;		None
  4239 ;; Return value:  Size  Location     Type
  4240 ;;                  3    0[BANK0 ] float 
  4241 ;; Registers used:
  4242 ;;		wreg, status,2, status,0
  4243 ;; Tracked objects:
  4244 ;;		On entry : 0/0
  4245 ;;		On exit  : 0/0
  4246 ;;		Unchanged: 0/0
  4247 ;; Data sizes:     COMMON   BANK0   BANK1   BANK3   BANK2
  4248 ;;      Params:         0       5       0       0       0
  4249 ;;      Locals:         0       0       0       0       0
  4250 ;;      Temps:          0       3       0       0       0
  4251 ;;      Totals:         0       8       0       0       0
  4252 ;;Total ram usage:        8 bytes
  4253 ;; Hardware stack levels used:    1
  4254 ;; Hardware stack levels required when called:    1
  4255 ;; This function calls:
  4256 ;;		Nothing
  4257 ;; This function is called by:
  4258 ;;		___ftadd
  4259 ;;		___ftmul
  4260 ;;		___awtoft
  4261 ;;		___ftdiv
  4262 ;;		___lbtoft
  4263 ;;		___abtoft
  4264 ;;		___lwtoft
  4265 ;;		___altoft
  4266 ;;		___lltoft
  4267 ;;		___attoft
  4268 ;;		___lttoft
  4269 ;; This function uses a non-reentrant model
  4270 ;;
  4271                           psect	text849
  4272                           	file	"C:\Program Files (x86)\HI-TECH Software\PICC\9.82\sources\float.c"
  4273                           	line	63
  4274                           	global	__size_of___ftpack
  4275  007D                     	__size_of___ftpack	equ	__end_of___ftpack-___ftpack
  4276                           	
  4277  06C0                     ___ftpack:	
  4278                           	opt	stack 3
  4279                           ; Regs used in ___ftpack: [wreg+status,2+status,0]
  4280                           	line	64
  4281                           	
  4282  06C0                     l12422:	
  4283  06C0  1283               	bcf	status, 5	;RP0=0, select bank0
  4284  06C1  1303               	bcf	status, 6	;RP1=0, select bank0
  4285  06C2  0823               	movf	(___ftpack@exp),w
  4286  06C3  1D03               	skipz
  4287  06C4  2EC6               	goto	u5250
  4288  06C5  2ECE               	goto	l12426
  4289  06C6                     u5250:
  4290                           	
  4291  06C6                     l12424:	
  4292  06C6  0822               	movf	(___ftpack@arg+2),w
  4293  06C7  0421               	iorwf	(___ftpack@arg+1),w
  4294  06C8  0420               	iorwf	(___ftpack@arg),w
  4295  06C9  1D03               	skipz
  4296  06CA  2ECC               	goto	u5261
  4297  06CB  2ECD               	goto	u5260
  4298  06CC                     u5261:
  4299  06CC  2EE4               	goto	l12432
  4300  06CD                     u5260:
  4301  06CD  2ECE               	goto	l12426
  4302                           	
  4303  06CE                     l9660:	
  4304                           	line	65
  4305                           	
  4306  06CE                     l12426:	
  4307  06CE  3000               	movlw	0x0
  4308  06CF  00A0               	movwf	(?___ftpack)
  4309  06D0  3000               	movlw	0x0
  4310  06D1  00A1               	movwf	(?___ftpack+1)
  4311  06D2  3000               	movlw	0x0
  4312  06D3  00A2               	movwf	(?___ftpack+2)
  4313  06D4  2F3C               	goto	l9661
  4314                           	
  4315  06D5                     l12428:	
  4316  06D5  2F3C               	goto	l9661
  4317                           	
  4318  06D6                     l9658:	
  4319                           	line	66
  4320  06D6  2EE4               	goto	l12432
  4321                           	
  4322  06D7                     l9663:	
  4323                           	line	67
  4324                           	
  4325  06D7                     l12430:	
  4326  06D7  3001               	movlw	(01h)
  4327  06D8  00A5               	movwf	(??___ftpack+0)+0
  4328  06D9  0825               	movf	(??___ftpack+0)+0,w
  4329  06DA  07A3               	addwf	(___ftpack@exp),f
  4330                           	line	68
  4331  06DB  3001               	movlw	01h
  4332  06DC                     u5275:
  4333  06DC  1003               	clrc
  4334  06DD  0CA2               	rrf	(___ftpack@arg+2),f
  4335  06DE  0CA1               	rrf	(___ftpack@arg+1),f
  4336  06DF  0CA0               	rrf	(___ftpack@arg),f
  4337  06E0  3EFF               	addlw	-1
  4338  06E1  1D03               	skipz
  4339  06E2  2EDC               	goto	u5275
  4340                           
  4341  06E3  2EE4               	goto	l12432
  4342                           	line	69
  4343                           	
  4344  06E4                     l9662:	
  4345                           	line	66
  4346                           	
  4347  06E4                     l12432:	
  4348  06E4  30FE               	movlw	low highword(0FE0000h)
  4349  06E5  0522               	andwf	(___ftpack@arg+2),w
  4350  06E6  1D03               	btfss	status,2
  4351  06E7  2EE9               	goto	u5281
  4352  06E8  2EEA               	goto	u5280
  4353  06E9                     u5281:
  4354  06E9  2ED7               	goto	l12430
  4355  06EA                     u5280:
  4356  06EA  2F02               	goto	l9665
  4357                           	
  4358  06EB                     l9664:	
  4359                           	line	70
  4360  06EB  2F02               	goto	l9665
  4361                           	
  4362  06EC                     l9666:	
  4363                           	line	71
  4364                           	
  4365  06EC                     l12434:	
  4366  06EC  3001               	movlw	(01h)
  4367  06ED  00A5               	movwf	(??___ftpack+0)+0
  4368  06EE  0825               	movf	(??___ftpack+0)+0,w
  4369  06EF  07A3               	addwf	(___ftpack@exp),f
  4370                           	line	72
  4371                           	
  4372  06F0                     l12436:	
  4373  06F0  3001               	movlw	01h
  4374  06F1  07A0               	addwf	(___ftpack@arg),f
  4375  06F2  3000               	movlw	0
  4376  06F3  1803               	skipnc
  4377  06F4  3001               movlw 1
  4378  06F5  07A1               	addwf	(___ftpack@arg+1),f
  4379  06F6  3000               	movlw	0
  4380  06F7  1803               	skipnc
  4381  06F8  3001               movlw 1
  4382  06F9  07A2               	addwf	(___ftpack@arg+2),f
  4383                           	line	73
  4384                           	
  4385  06FA                     l12438:	
  4386  06FA  3001               	movlw	01h
  4387  06FB                     u5295:
  4388  06FB  1003               	clrc
  4389  06FC  0CA2               	rrf	(___ftpack@arg+2),f
  4390  06FD  0CA1               	rrf	(___ftpack@arg+1),f
  4391  06FE  0CA0               	rrf	(___ftpack@arg),f
  4392  06FF  3EFF               	addlw	-1
  4393  0700  1D03               	skipz
  4394  0701  2EFB               	goto	u5295
  4395                           
  4396                           	line	74
  4397                           	
  4398  0702                     l9665:	
  4399                           	line	70
  4400  0702  30FF               	movlw	low highword(0FF0000h)
  4401  0703  0522               	andwf	(___ftpack@arg+2),w
  4402  0704  1D03               	btfss	status,2
  4403  0705  2F07               	goto	u5301
  4404  0706  2F08               	goto	u5300
  4405  0707                     u5301:
  4406  0707  2EEC               	goto	l12434
  4407  0708                     u5300:
  4408  0708  2F15               	goto	l12442
  4409                           	
  4410  0709                     l9667:	
  4411                           	line	75
  4412  0709  2F15               	goto	l12442
  4413                           	
  4414  070A                     l9669:	
  4415                           	line	76
  4416                           	
  4417  070A                     l12440:	
  4418  070A  3001               	movlw	low(01h)
  4419  070B  02A3               	subwf	(___ftpack@exp),f
  4420                           	line	77
  4421  070C  3001               	movlw	01h
  4422  070D                     u5315:
  4423  070D  1003               	clrc
  4424  070E  0DA0               	rlf	(___ftpack@arg),f
  4425  070F  0DA1               	rlf	(___ftpack@arg+1),f
  4426  0710  0DA2               	rlf	(___ftpack@arg+2),f
  4427  0711  3EFF               	addlw	-1
  4428  0712  1D03               	skipz
  4429  0713  2F0D               	goto	u5315
  4430  0714  2F15               	goto	l12442
  4431                           	line	78
  4432                           	
  4433  0715                     l9668:	
  4434                           	line	75
  4435                           	
  4436  0715                     l12442:	
  4437  0715  1FA1               	btfss	(___ftpack@arg+1),(15)&7
  4438  0716  2F18               	goto	u5321
  4439  0717  2F19               	goto	u5320
  4440  0718                     u5321:
  4441  0718  2F0A               	goto	l12440
  4442  0719                     u5320:
  4443                           	
  4444  0719                     l9670:	
  4445                           	line	79
  4446  0719  1823               	btfsc	(___ftpack@exp),(0)&7
  4447  071A  2F1C               	goto	u5331
  4448  071B  2F1D               	goto	u5330
  4449  071C                     u5331:
  4450  071C  2F23               	goto	l9671
  4451  071D                     u5330:
  4452                           	line	80
  4453                           	
  4454  071D                     l12444:	
  4455  071D  30FF               	movlw	0FFh
  4456  071E  05A0               	andwf	(___ftpack@arg),f
  4457  071F  307F               	movlw	07Fh
  4458  0720  05A1               	andwf	(___ftpack@arg+1),f
  4459  0721  30FF               	movlw	0FFh
  4460  0722  05A2               	andwf	(___ftpack@arg+2),f
  4461                           	
  4462  0723                     l9671:	
  4463                           	line	81
  4464  0723  1003               	clrc
  4465  0724  0CA3               	rrf	(___ftpack@exp),f
  4466                           
  4467                           	line	82
  4468                           	
  4469  0725                     l12446:	
  4470  0725  0823               	movf	(___ftpack@exp),w
  4471  0726  00A5               	movwf	((??___ftpack+0)+0)
  4472  0727  01A6               	clrf	((??___ftpack+0)+0+1)
  4473  0728  01A7               	clrf	((??___ftpack+0)+0+2)
  4474  0729  3010               	movlw	010h
  4475  072A                     u5345:
  4476  072A  1003               	clrc
  4477  072B  0DA5               	rlf	(??___ftpack+0)+0,f
  4478  072C  0DA6               	rlf	(??___ftpack+0)+1,f
  4479  072D  0DA7               	rlf	(??___ftpack+0)+2,f
  4480  072E                     u5340:
  4481  072E  3EFF               	addlw	-1
  4482  072F  1D03               	skipz
  4483  0730  2F2A               	goto	u5345
  4484  0731  0825               	movf	0+(??___ftpack+0)+0,w
  4485  0732  04A0               	iorwf	(___ftpack@arg),f
  4486  0733  0826               	movf	1+(??___ftpack+0)+0,w
  4487  0734  04A1               	iorwf	(___ftpack@arg+1),f
  4488  0735  0827               	movf	2+(??___ftpack+0)+0,w
  4489  0736  04A2               	iorwf	(___ftpack@arg+2),f
  4490                           	line	83
  4491                           	
  4492  0737                     l12448:	
  4493  0737  0824               	movf	(___ftpack@sign),w
  4494  0738  1D03               	skipz
  4495  0739  2F3B               	goto	u5350
  4496  073A  2F3C               	goto	l9672
  4497  073B                     u5350:
  4498                           	line	84
  4499                           	
  4500  073B                     l12450:	
  4501  073B  17A2               	bsf	(___ftpack@arg)+(23/8),(23)&7
  4502                           	
  4503  073C                     l9672:	
  4504                           	line	85
  4505                           	line	86
  4506                           	
  4507  073C                     l9661:	
  4508  073C  0008               	return
  4509                           	opt stack 0
  4510                           GLOBAL	__end_of___ftpack
  4511  073D                     	__end_of___ftpack:
  4512 ;; =============== function ___ftpack ends ============
  4513                           
  4514                           	signat	___ftpack,12411
  4515                           	global	___wmul
  4516                           psect	text850,local,class=CODE,delta=2
  4517                           global __ptext850
  4518  0EE0                     __ptext850:
  4519                           
  4520 ;; *************** function ___wmul *****************
  4521 ;; Defined at:
  4522 ;;		line 3 in file "C:\Program Files (x86)\HI-TECH Software\PICC\9.82\sources\wmul.c"
  4523 ;; Parameters:    Size  Location     Type
  4524 ;;  multiplier      2    0[BANK0 ] unsigned int 
  4525 ;;  multiplicand    2    2[BANK0 ] unsigned int 
  4526 ;; Auto vars:     Size  Location     Type
  4527 ;;  product         2    4[BANK0 ] unsigned int 
  4528 ;; Return value:  Size  Location     Type
  4529 ;;                  2    0[BANK0 ] unsigned int 
  4530 ;; Registers used:
  4531 ;;		wreg, status,2, status,0
  4532 ;; Tracked objects:
  4533 ;;		On entry : 0/0
  4534 ;;		On exit  : 0/0
  4535 ;;		Unchanged: 0/0
  4536 ;; Data sizes:     COMMON   BANK0   BANK1   BANK3   BANK2
  4537 ;;      Params:         0       4       0       0       0
  4538 ;;      Locals:         0       2       0       0       0
  4539 ;;      Temps:          0       0       0       0       0
  4540 ;;      Totals:         0       6       0       0       0
  4541 ;;Total ram usage:        6 bytes
  4542 ;; Hardware stack levels used:    1
  4543 ;; Hardware stack levels required when called:    1
  4544 ;; This function calls:
  4545 ;;		Nothing
  4546 ;; This function is called by:
  4547 ;;		_Trace_PID
  4548 ;; This function uses a non-reentrant model
  4549 ;;
  4550                           psect	text850
  4551                           	file	"C:\Program Files (x86)\HI-TECH Software\PICC\9.82\sources\wmul.c"
  4552                           	line	3
  4553                           	global	__size_of___wmul
  4554  002C                     	__size_of___wmul	equ	__end_of___wmul-___wmul
  4555                           	
  4556  0EE0                     ___wmul:	
  4557                           	opt	stack 4
  4558                           ; Regs used in ___wmul: [wreg+status,2+status,0]
  4559                           	line	4
  4560                           	
  4561  0EE0                     l12410:	
  4562  0EE0  1283               	bcf	status, 5	;RP0=0, select bank0
  4563  0EE1  1303               	bcf	status, 6	;RP1=0, select bank0
  4564  0EE2  01A4               	clrf	(___wmul@product)
  4565  0EE3  01A5               	clrf	(___wmul@product+1)
  4566  0EE4  2EE5               	goto	l12412
  4567                           	line	6
  4568                           	
  4569  0EE5                     l9326:	
  4570                           	line	7
  4571                           	
  4572  0EE5                     l12412:	
  4573  0EE5  1C20               	btfss	(___wmul@multiplier),(0)&7
  4574  0EE6  2EE8               	goto	u5211
  4575  0EE7  2EE9               	goto	u5210
  4576  0EE8                     u5211:
  4577  0EE8  2EEF               	goto	l9327
  4578  0EE9                     u5210:
  4579                           	line	8
  4580                           	
  4581  0EE9                     l12414:	
  4582  0EE9  0822               	movf	(___wmul@multiplicand),w
  4583  0EEA  07A4               	addwf	(___wmul@product),f
  4584  0EEB  1803               	skipnc
  4585  0EEC  0AA5               	incf	(___wmul@product+1),f
  4586  0EED  0823               	movf	(___wmul@multiplicand+1),w
  4587  0EEE  07A5               	addwf	(___wmul@product+1),f
  4588                           	
  4589  0EEF                     l9327:	
  4590                           	line	9
  4591  0EEF  3001               	movlw	01h
  4592                           	
  4593  0EF0                     u5225:
  4594  0EF0  1003               	clrc
  4595  0EF1  0DA2               	rlf	(___wmul@multiplicand),f
  4596  0EF2  0DA3               	rlf	(___wmul@multiplicand+1),f
  4597  0EF3  3EFF               	addlw	-1
  4598  0EF4  1D03               	skipz
  4599  0EF5  2EF0               	goto	u5225
  4600                           	line	10
  4601                           	
  4602  0EF6                     l12416:	
  4603  0EF6  3001               	movlw	01h
  4604                           	
  4605  0EF7                     u5235:
  4606  0EF7  1003               	clrc
  4607  0EF8  0CA1               	rrf	(___wmul@multiplier+1),f
  4608  0EF9  0CA0               	rrf	(___wmul@multiplier),f
  4609  0EFA  3EFF               	addlw	-1
  4610  0EFB  1D03               	skipz
  4611  0EFC  2EF7               	goto	u5235
  4612                           	line	11
  4613  0EFD  0821               	movf	((___wmul@multiplier+1)),w
  4614  0EFE  0420               	iorwf	((___wmul@multiplier)),w
  4615  0EFF  1D03               	skipz
  4616  0F00  2F02               	goto	u5241
  4617  0F01  2F03               	goto	u5240
  4618  0F02                     u5241:
  4619  0F02  2EE5               	goto	l12412
  4620  0F03                     u5240:
  4621  0F03  2F04               	goto	l12418
  4622                           	
  4623  0F04                     l9328:	
  4624                           	line	12
  4625                           	
  4626  0F04                     l12418:	
  4627  0F04  0825               	movf	(___wmul@product+1),w
  4628  0F05  01A1               	clrf	(?___wmul+1)
  4629  0F06  07A1               	addwf	(?___wmul+1)
  4630  0F07  0824               	movf	(___wmul@product),w
  4631  0F08  01A0               	clrf	(?___wmul)
  4632  0F09  07A0               	addwf	(?___wmul)
  4633                           
  4634  0F0A  2F0B               	goto	l9329
  4635                           	
  4636  0F0B                     l12420:	
  4637                           	line	13
  4638                           	
  4639  0F0B                     l9329:	
  4640  0F0B  0008               	return
  4641                           	opt stack 0
  4642                           GLOBAL	__end_of___wmul
  4643  0F0C                     	__end_of___wmul:
  4644 ;; =============== function ___wmul ends ============
  4645                           
  4646                           	signat	___wmul,8314
  4647                           	global	_Start_PD
  4648                           psect	text851,local,class=CODE,delta=2
  4649                           global __ptext851
  4650  073D                     __ptext851:
  4651                           
  4652 ;; *************** function _Start_PD *****************
  4653 ;; Defined at:
  4654 ;;		line 55 in file "D:\6_pic_project\00_Design_Flow_Car\User\Car_demo\Car_demo.c"
  4655 ;; Parameters:    Size  Location     Type
  4656 ;;		None
  4657 ;; Auto vars:     Size  Location     Type
  4658 ;;		None
  4659 ;; Return value:  Size  Location     Type
  4660 ;;                  2    0[BANK0 ] unsigned int 
  4661 ;; Registers used:
  4662 ;;		wreg, fsr0l, fsr0h, status,2, status,0
  4663 ;; Tracked objects:
  4664 ;;		On entry : 0/0
  4665 ;;		On exit  : 0/0
  4666 ;;		Unchanged: 0/0
  4667 ;; Data sizes:     COMMON   BANK0   BANK1   BANK3   BANK2
  4668 ;;      Params:         0       2       0       0       0
  4669 ;;      Locals:         0       0       0       0       0
  4670 ;;      Temps:          0       8       0       0       0
  4671 ;;      Totals:         0      10       0       0       0
  4672 ;;Total ram usage:       10 bytes
  4673 ;; Hardware stack levels used:    1
  4674 ;; Hardware stack levels required when called:    1
  4675 ;; This function calls:
  4676 ;;		Nothing
  4677 ;; This function is called by:
  4678 ;;		_Trace_Control
  4679 ;;		_Self_Check
  4680 ;; This function uses a non-reentrant model
  4681 ;;
  4682                           psect	text851
  4683                           	file	"D:\6_pic_project\00_Design_Flow_Car\User\Car_demo\Car_demo.c"
  4684                           	line	55
  4685                           	global	__size_of_Start_PD
  4686  0076                     	__size_of_Start_PD	equ	__end_of_Start_PD-_Start_PD
  4687                           	
  4688  073D                     _Start_PD:	
  4689                           	opt	stack 5
  4690                           ; Regs used in _Start_PD: [wreg-fsr0h+status,2+status,0]
  4691                           	line	56
  4692                           	
  4693  073D                     l12384:	
  4694                           ;Car_demo.c: 56: Trace_Mode = (RC0<<7|RC3<<6|RE0<<5|RE1<<4|RE2<<3|RA4<<2|RC4<<1|RC5);
  4695  073D  3000               	movlw	0
  4696  073E  1283               	bcf	status, 5	;RP0=0, select bank0
  4697  073F  1303               	bcf	status, 6	;RP1=0, select bank0
  4698  0740  1A87               	btfsc	(61/8),(61)&7
  4699  0741  3001               	movlw	1
  4700  0742  00A2               	movwf	(??_Start_PD+0)+0
  4701  0743  3000               	movlw	0
  4702  0744  1A07               	btfsc	(60/8),(60)&7
  4703  0745  3001               	movlw	1
  4704  0746  00A3               	movwf	(??_Start_PD+1)+0
  4705  0747  3001               	movlw	01h
  4706  0748                     u5145:
  4707  0748  1003               	clrc
  4708  0749  0DA3               	rlf	(??_Start_PD+1)+0,f
  4709  074A  3EFF               	addlw	-1
  4710  074B  1D03               	skipz
  4711  074C  2F48               	goto	u5145
  4712  074D  3000               	movlw	0
  4713  074E  1A05               	btfsc	(44/8),(44)&7
  4714  074F  3001               	movlw	1
  4715  0750  00A4               	movwf	(??_Start_PD+2)+0
  4716  0751  3002               	movlw	02h
  4717  0752                     u5155:
  4718  0752  1003               	clrc
  4719  0753  0DA4               	rlf	(??_Start_PD+2)+0,f
  4720  0754  3EFF               	addlw	-1
  4721  0755  1D03               	skipz
  4722  0756  2F52               	goto	u5155
  4723  0757  3000               	movlw	0
  4724  0758  1909               	btfsc	(74/8),(74)&7
  4725  0759  3001               	movlw	1
  4726  075A  00A5               	movwf	(??_Start_PD+3)+0
  4727  075B  3003               	movlw	03h
  4728  075C                     u5165:
  4729  075C  1003               	clrc
  4730  075D  0DA5               	rlf	(??_Start_PD+3)+0,f
  4731  075E  3EFF               	addlw	-1
  4732  075F  1D03               	skipz
  4733  0760  2F5C               	goto	u5165
  4734  0761  3000               	movlw	0
  4735  0762  1889               	btfsc	(73/8),(73)&7
  4736  0763  3001               	movlw	1
  4737  0764  00A6               	movwf	(??_Start_PD+4)+0
  4738  0765  3004               	movlw	04h
  4739  0766                     u5175:
  4740  0766  1003               	clrc
  4741  0767  0DA6               	rlf	(??_Start_PD+4)+0,f
  4742  0768  3EFF               	addlw	-1
  4743  0769  1D03               	skipz
  4744  076A  2F66               	goto	u5175
  4745  076B  3000               	movlw	0
  4746  076C  1809               	btfsc	(72/8),(72)&7
  4747  076D  3001               	movlw	1
  4748  076E  00A7               	movwf	(??_Start_PD+5)+0
  4749  076F  3005               	movlw	05h
  4750  0770                     u5185:
  4751  0770  1003               	clrc
  4752  0771  0DA7               	rlf	(??_Start_PD+5)+0,f
  4753  0772  3EFF               	addlw	-1
  4754  0773  1D03               	skipz
  4755  0774  2F70               	goto	u5185
  4756  0775  3000               	movlw	0
  4757  0776  1987               	btfsc	(59/8),(59)&7
  4758  0777  3001               	movlw	1
  4759  0778  00A8               	movwf	(??_Start_PD+6)+0
  4760  0779  3006               	movlw	06h
  4761  077A                     u5195:
  4762  077A  1003               	clrc
  4763  077B  0DA8               	rlf	(??_Start_PD+6)+0,f
  4764  077C  3EFF               	addlw	-1
  4765  077D  1D03               	skipz
  4766  077E  2F7A               	goto	u5195
  4767  077F  3000               	movlw	0
  4768  0780  1807               	btfsc	(56/8),(56)&7
  4769  0781  3080               	movlw	(1 << (07h))
  4770  0782  0428               	iorwf	0+(??_Start_PD+6)+0,w
  4771  0783  0427               	iorwf	0+(??_Start_PD+5)+0,w
  4772  0784  0426               	iorwf	0+(??_Start_PD+4)+0,w
  4773  0785  0425               	iorwf	0+(??_Start_PD+3)+0,w
  4774  0786  0424               	iorwf	0+(??_Start_PD+2)+0,w
  4775  0787  0423               	iorwf	0+(??_Start_PD+1)+0,w
  4776  0788  0422               	iorwf	(??_Start_PD+0)+0,w
  4777  0789  00A9               	movwf	(??_Start_PD+7)+0
  4778  078A  0829               	movf	(??_Start_PD+7)+0,w
  4779  078B  00EC               	movwf	(_Trace_Mode)
  4780                           	line	58
  4781                           ;Car_demo.c: 58: switch(Trace_Mode)
  4782  078C  2FA1               	goto	l12400
  4783                           	line	61
  4784                           ;Car_demo.c: 59: {
  4785                           ;Car_demo.c: 61: case 0B10000001:
  4786                           	
  4787  078D                     l8566:	
  4788  078D  2F90               	goto	l12386
  4789                           	line	62
  4790                           	
  4791  078E                     l8567:	
  4792  078E  2F90               	goto	l12386
  4793                           	line	63
  4794                           	
  4795  078F                     l8568:	
  4796  078F  2F90               	goto	l12386
  4797                           	line	64
  4798                           	
  4799  0790                     l8569:	
  4800                           	line	65
  4801                           	
  4802  0790                     l12386:	
  4803                           ;Car_demo.c: 62: case 0B10000000:
  4804                           ;Car_demo.c: 63: case 0B00000001:
  4805                           ;Car_demo.c: 64: case 0B00000000:
  4806                           ;Car_demo.c: 65: return 1;
  4807  0790  3001               	movlw	low(01h)
  4808  0791  00A0               	movwf	(?_Start_PD)
  4809  0792  3000               	movlw	high(01h)
  4810  0793  00A1               	movwf	((?_Start_PD))+1
  4811  0794  2FB2               	goto	l8570
  4812                           	
  4813  0795                     l12388:	
  4814  0795  2FB2               	goto	l8570
  4815                           	line	66
  4816                           ;Car_demo.c: 66: case 0B11111111:
  4817                           	
  4818  0796                     l8571:	
  4819                           	line	67
  4820                           	
  4821  0796                     l12390:	
  4822                           ;Car_demo.c: 67: return 99;
  4823  0796  3063               	movlw	low(063h)
  4824  0797  00A0               	movwf	(?_Start_PD)
  4825  0798  3000               	movlw	high(063h)
  4826  0799  00A1               	movwf	((?_Start_PD))+1
  4827  079A  2FB2               	goto	l8570
  4828                           	
  4829  079B                     l12392:	
  4830  079B  2FB2               	goto	l8570
  4831                           	line	68
  4832                           ;Car_demo.c: 68: default:
  4833                           	
  4834  079C                     l8572:	
  4835                           	line	69
  4836                           	
  4837  079C                     l12394:	
  4838                           ;Car_demo.c: 69: return 0;
  4839  079C  01A0               	clrf	(?_Start_PD)
  4840  079D  01A1               	clrf	(?_Start_PD+1)
  4841  079E  2FB2               	goto	l8570
  4842                           	
  4843  079F                     l12396:	
  4844  079F  2FB2               	goto	l8570
  4845                           	line	70
  4846                           	
  4847  07A0                     l12398:	
  4848                           ;Car_demo.c: 70: }
  4849  07A0  2FB2               	goto	l8570
  4850                           	line	58
  4851                           	
  4852  07A1                     l8565:	
  4853                           	
  4854  07A1                     l12400:	
  4855  07A1  086C               	movf	(_Trace_Mode),w
  4856                           	; Switch size 1, requested type "space"
  4857                           ; Number of cases is 5, Range of values is 0 to 255
  4858                           ; switch strategies available:
  4859                           ; Name         Instructions Cycles
  4860                           ; simple_byte           16     9 (average)
  4861                           ; jumptable            260     6 (fixed)
  4862                           ; rangetable           260     6 (fixed)
  4863                           ; spacedrange          518     9 (fixed)
  4864                           ; locatedrange         256     3 (fixed)
  4865                           ;	Chosen strategy is simple_byte
  4866                           
  4867                           	opt asmopt_off
  4868  07A2  3A00               	xorlw	0^0	; case 0
  4869  07A3  1903               	skipnz
  4870  07A4  2F90               	goto	l12386
  4871  07A5  3A01               	xorlw	1^0	; case 1
  4872  07A6  1903               	skipnz
  4873  07A7  2F90               	goto	l12386
  4874  07A8  3A81               	xorlw	128^1	; case 128
  4875  07A9  1903               	skipnz
  4876  07AA  2F90               	goto	l12386
  4877  07AB  3A01               	xorlw	129^128	; case 129
  4878  07AC  1903               	skipnz
  4879  07AD  2F90               	goto	l12386
  4880  07AE  3A7E               	xorlw	255^129	; case 255
  4881  07AF  1903               	skipnz
  4882  07B0  2F96               	goto	l12390
  4883  07B1  2F9C               	goto	l12394
  4884                           	opt asmopt_on
  4885                           
  4886                           	line	70
  4887                           	
  4888  07B2                     l8573:	
  4889                           	line	71
  4890                           	
  4891  07B2                     l8570:	
  4892  07B2  0008               	return
  4893                           	opt stack 0
  4894                           GLOBAL	__end_of_Start_PD
  4895  07B3                     	__end_of_Start_PD:
  4896 ;; =============== function _Start_PD ends ============
  4897                           
  4898                           	signat	_Start_PD,90
  4899                           	global	_csb_init
  4900                           psect	text852,local,class=CODE,delta=2
  4901                           global __ptext852
  4902  0EB4                     __ptext852:
  4903                           
  4904 ;; *************** function _csb_init *****************
  4905 ;; Defined at:
  4906 ;;		line 22 in file "D:\6_pic_project\00_Design_Flow_Car\Driver\csb.c"
  4907 ;; Parameters:    Size  Location     Type
  4908 ;;		None
  4909 ;; Auto vars:     Size  Location     Type
  4910 ;;		None
  4911 ;; Return value:  Size  Location     Type
  4912 ;;		None               void
  4913 ;; Registers used:
  4914 ;;		wreg, status,2
  4915 ;; Tracked objects:
  4916 ;;		On entry : 0/0
  4917 ;;		On exit  : 0/0
  4918 ;;		Unchanged: 0/0
  4919 ;; Data sizes:     COMMON   BANK0   BANK1   BANK3   BANK2
  4920 ;;      Params:         0       0       0       0       0
  4921 ;;      Locals:         0       0       0       0       0
  4922 ;;      Temps:          0       0       0       0       0
  4923 ;;      Totals:         0       0       0       0       0
  4924 ;;Total ram usage:        0 bytes
  4925 ;; Hardware stack levels used:    1
  4926 ;; Hardware stack levels required when called:    1
  4927 ;; This function calls:
  4928 ;;		Nothing
  4929 ;; This function is called by:
  4930 ;;		_main
  4931 ;; This function uses a non-reentrant model
  4932 ;;
  4933                           psect	text852
  4934                           	file	"D:\6_pic_project\00_Design_Flow_Car\Driver\csb.c"
  4935                           	line	22
  4936                           	global	__size_of_csb_init
  4937  0015                     	__size_of_csb_init	equ	__end_of_csb_init-_csb_init
  4938                           	
  4939  0EB4                     _csb_init:	
  4940                           	opt	stack 6
  4941                           ; Regs used in _csb_init: [wreg+status,2]
  4942                           	line	23
  4943                           	
  4944  0EB4                     l12340:	
  4945                           ;csb.c: 23: GIE=1;
  4946  0EB4  178B               	bsf	(95/8),(95)&7
  4947                           	line	24
  4948                           ;csb.c: 24: PEIE=1;
  4949  0EB5  170B               	bsf	(94/8),(94)&7
  4950                           	line	26
  4951                           ;csb.c: 26: TMR1IF=0;
  4952  0EB6  1283               	bcf	status, 5	;RP0=0, select bank0
  4953  0EB7  1303               	bcf	status, 6	;RP1=0, select bank0
  4954  0EB8  100C               	bcf	(96/8),(96)&7
  4955                           	line	28
  4956                           ;csb.c: 28: TRISA1=1;
  4957  0EB9  1683               	bsf	status, 5	;RP0=1, select bank1
  4958  0EBA  1303               	bcf	status, 6	;RP1=0, select bank1
  4959  0EBB  1485               	bsf	(1065/8)^080h,(1065)&7
  4960                           	line	29
  4961                           ;csb.c: 29: TRISA0=0;
  4962  0EBC  1005               	bcf	(1064/8)^080h,(1064)&7
  4963                           	line	30
  4964                           	
  4965  0EBD                     l12342:	
  4966                           ;csb.c: 30: ADCON1=7;TRISD=0;
  4967  0EBD  3007               	movlw	(07h)
  4968  0EBE  009F               	movwf	(159)^080h	;volatile
  4969                           	
  4970  0EBF                     l12344:	
  4971  0EBF  0188               	clrf	(136)^080h	;volatile
  4972                           	line	32
  4973                           	
  4974  0EC0                     l12346:	
  4975                           ;csb.c: 32: RA0 = 0;
  4976  0EC0  1283               	bcf	status, 5	;RP0=0, select bank0
  4977  0EC1  1303               	bcf	status, 6	;RP1=0, select bank0
  4978  0EC2  1005               	bcf	(40/8),(40)&7
  4979                           	line	33
  4980                           	
  4981  0EC3                     l12348:	
  4982                           ;csb.c: 33: RA1 = 1;
  4983  0EC3  1485               	bsf	(41/8),(41)&7
  4984                           	line	35
  4985                           	
  4986  0EC4                     l12350:	
  4987                           ;csb.c: 35: T1CON=0B00000000;
  4988  0EC4  0190               	clrf	(16)	;volatile
  4989                           	line	36
  4990                           	
  4991  0EC5                     l12352:	
  4992                           ;csb.c: 36: TMR1H=0x00;
  4993  0EC5  018F               	clrf	(15)	;volatile
  4994                           	line	37
  4995                           	
  4996  0EC6                     l12354:	
  4997                           ;csb.c: 37: TMR1L=0x00;
  4998  0EC6  018E               	clrf	(14)	;volatile
  4999                           	line	38
  5000                           	
  5001  0EC7                     l12356:	
  5002                           ;csb.c: 38: TMR1ON=0x00;
  5003  0EC7  1010               	bcf	(128/8),(128)&7
  5004                           	line	39
  5005                           	
  5006  0EC8                     l7813:	
  5007  0EC8  0008               	return
  5008                           	opt stack 0
  5009                           GLOBAL	__end_of_csb_init
  5010  0EC9                     	__end_of_csb_init:
  5011 ;; =============== function _csb_init ends ============
  5012                           
  5013                           	signat	_csb_init,88
  5014                           	global	_Trace_GPIO_Init
  5015                           psect	text853,local,class=CODE,delta=2
  5016                           global __ptext853
  5017  0E50                     __ptext853:
  5018                           
  5019 ;; *************** function _Trace_GPIO_Init *****************
  5020 ;; Defined at:
  5021 ;;		line 21 in file "D:\6_pic_project\00_Design_Flow_Car\Driver\pid.c"
  5022 ;; Parameters:    Size  Location     Type
  5023 ;;		None
  5024 ;; Auto vars:     Size  Location     Type
  5025 ;;		None
  5026 ;; Return value:  Size  Location     Type
  5027 ;;		None               void
  5028 ;; Registers used:
  5029 ;;		None
  5030 ;; Tracked objects:
  5031 ;;		On entry : 0/0
  5032 ;;		On exit  : 0/0
  5033 ;;		Unchanged: 0/0
  5034 ;; Data sizes:     COMMON   BANK0   BANK1   BANK3   BANK2
  5035 ;;      Params:         0       0       0       0       0
  5036 ;;      Locals:         0       0       0       0       0
  5037 ;;      Temps:          0       0       0       0       0
  5038 ;;      Totals:         0       0       0       0       0
  5039 ;;Total ram usage:        0 bytes
  5040 ;; Hardware stack levels used:    1
  5041 ;; Hardware stack levels required when called:    1
  5042 ;; This function calls:
  5043 ;;		Nothing
  5044 ;; This function is called by:
  5045 ;;		_main
  5046 ;; This function uses a non-reentrant model
  5047 ;;
  5048                           psect	text853
  5049                           	file	"D:\6_pic_project\00_Design_Flow_Car\Driver\pid.c"
  5050                           	line	21
  5051                           	global	__size_of_Trace_GPIO_Init
  5052  000B                     	__size_of_Trace_GPIO_Init	equ	__end_of_Trace_GPIO_Init-_Trace_GPIO_Init
  5053                           	
  5054  0E50                     _Trace_GPIO_Init:	
  5055                           	opt	stack 6
  5056                           ; Regs used in _Trace_GPIO_Init: []
  5057                           	line	22
  5058                           	
  5059  0E50                     l12338:	
  5060                           ;pid.c: 22: TRISE0=1;
  5061  0E50  1683               	bsf	status, 5	;RP0=1, select bank1
  5062  0E51  1303               	bcf	status, 6	;RP1=0, select bank1
  5063  0E52  1409               	bsf	(1096/8)^080h,(1096)&7
  5064                           	line	23
  5065                           ;pid.c: 23: TRISE1=1;
  5066  0E53  1489               	bsf	(1097/8)^080h,(1097)&7
  5067                           	line	24
  5068                           ;pid.c: 24: TRISE2=1;
  5069  0E54  1509               	bsf	(1098/8)^080h,(1098)&7
  5070                           	line	25
  5071                           ;pid.c: 25: TRISA4=1;
  5072  0E55  1605               	bsf	(1068/8)^080h,(1068)&7
  5073                           	line	26
  5074                           ;pid.c: 26: TRISC0=1;
  5075  0E56  1407               	bsf	(1080/8)^080h,(1080)&7
  5076                           	line	27
  5077                           ;pid.c: 27: TRISC3=1;
  5078  0E57  1587               	bsf	(1083/8)^080h,(1083)&7
  5079                           	line	28
  5080                           ;pid.c: 28: TRISC4=1;
  5081  0E58  1607               	bsf	(1084/8)^080h,(1084)&7
  5082                           	line	29
  5083                           ;pid.c: 29: TRISC5=1;
  5084  0E59  1687               	bsf	(1085/8)^080h,(1085)&7
  5085                           	line	30
  5086                           	
  5087  0E5A                     l7096:	
  5088  0E5A  0008               	return
  5089                           	opt stack 0
  5090                           GLOBAL	__end_of_Trace_GPIO_Init
  5091  0E5B                     	__end_of_Trace_GPIO_Init:
  5092 ;; =============== function _Trace_GPIO_Init ends ============
  5093                           
  5094                           	signat	_Trace_GPIO_Init,88
  5095                           	global	_Encoder_Init
  5096                           psect	text854,local,class=CODE,delta=2
  5097                           global __ptext854
  5098  0E5B                     __ptext854:
  5099                           
  5100 ;; *************** function _Encoder_Init *****************
  5101 ;; Defined at:
  5102 ;;		line 4 in file "D:\6_pic_project\00_Design_Flow_Car\Driver\Encoder.c"
  5103 ;; Parameters:    Size  Location     Type
  5104 ;;		None
  5105 ;; Auto vars:     Size  Location     Type
  5106 ;;		None
  5107 ;; Return value:  Size  Location     Type
  5108 ;;		None               void
  5109 ;; Registers used:
  5110 ;;		wreg
  5111 ;; Tracked objects:
  5112 ;;		On entry : 0/0
  5113 ;;		On exit  : 0/0
  5114 ;;		Unchanged: 0/0
  5115 ;; Data sizes:     COMMON   BANK0   BANK1   BANK3   BANK2
  5116 ;;      Params:         0       0       0       0       0
  5117 ;;      Locals:         0       0       0       0       0
  5118 ;;      Temps:          0       0       0       0       0
  5119 ;;      Totals:         0       0       0       0       0
  5120 ;;Total ram usage:        0 bytes
  5121 ;; Hardware stack levels used:    1
  5122 ;; Hardware stack levels required when called:    1
  5123 ;; This function calls:
  5124 ;;		Nothing
  5125 ;; This function is called by:
  5126 ;;		_main
  5127 ;; This function uses a non-reentrant model
  5128 ;;
  5129                           psect	text854
  5130                           	file	"D:\6_pic_project\00_Design_Flow_Car\Driver\Encoder.c"
  5131                           	line	4
  5132                           	global	__size_of_Encoder_Init
  5133  000F                     	__size_of_Encoder_Init	equ	__end_of_Encoder_Init-_Encoder_Init
  5134                           	
  5135  0E5B                     _Encoder_Init:	
  5136                           	opt	stack 6
  5137                           ; Regs used in _Encoder_Init: [wreg]
  5138                           	line	5
  5139                           	
  5140  0E5B                     l12330:	
  5141                           ;Encoder.c: 5: TRISB0=1;
  5142  0E5B  1683               	bsf	status, 5	;RP0=1, select bank1
  5143  0E5C  1303               	bcf	status, 6	;RP1=0, select bank1
  5144  0E5D  1406               	bsf	(1072/8)^080h,(1072)&7
  5145                           	line	8
  5146                           ;Encoder.c: 8: GIE=1;
  5147  0E5E  178B               	bsf	(95/8),(95)&7
  5148                           	line	9
  5149                           ;Encoder.c: 9: INTE=1;
  5150  0E5F  160B               	bsf	(92/8),(92)&7
  5151                           	line	10
  5152                           ;Encoder.c: 10: INTF=0;
  5153  0E60  108B               	bcf	(89/8),(89)&7
  5154                           	line	12
  5155                           	
  5156  0E61                     l12332:	
  5157                           ;Encoder.c: 12: OPTION_REG=0B01000111;
  5158  0E61  3047               	movlw	(047h)
  5159  0E62  0081               	movwf	(129)^080h	;volatile
  5160                           	line	15
  5161                           	
  5162  0E63                     l12334:	
  5163                           ;Encoder.c: 15: T0IE=1;
  5164  0E63  168B               	bsf	(93/8),(93)&7
  5165                           	line	16
  5166                           	
  5167  0E64                     l12336:	
  5168                           ;Encoder.c: 16: T0IF=0;
  5169  0E64  110B               	bcf	(90/8),(90)&7
  5170                           	line	17
  5171                           ;Encoder.c: 17: TMR0=60;
  5172  0E65  303C               	movlw	(03Ch)
  5173  0E66  1283               	bcf	status, 5	;RP0=0, select bank0
  5174  0E67  1303               	bcf	status, 6	;RP1=0, select bank0
  5175  0E68  0081               	movwf	(1)	;volatile
  5176                           	line	18
  5177                           	
  5178  0E69                     l6399:	
  5179  0E69  0008               	return
  5180                           	opt stack 0
  5181                           GLOBAL	__end_of_Encoder_Init
  5182  0E6A                     	__end_of_Encoder_Init:
  5183 ;; =============== function _Encoder_Init ends ============
  5184                           
  5185                           	signat	_Encoder_Init,88
  5186                           	global	_Usart_Init
  5187                           psect	text855,local,class=CODE,delta=2
  5188                           global __ptext855
  5189  0E6A                     __ptext855:
  5190                           
  5191 ;; *************** function _Usart_Init *****************
  5192 ;; Defined at:
  5193 ;;		line 48 in file "D:\6_pic_project\00_Design_Flow_Car\Driver\Usart.c"
  5194 ;; Parameters:    Size  Location     Type
  5195 ;;		None
  5196 ;; Auto vars:     Size  Location     Type
  5197 ;;		None
  5198 ;; Return value:  Size  Location     Type
  5199 ;;		None               void
  5200 ;; Registers used:
  5201 ;;		wreg
  5202 ;; Tracked objects:
  5203 ;;		On entry : 0/0
  5204 ;;		On exit  : 0/0
  5205 ;;		Unchanged: 0/0
  5206 ;; Data sizes:     COMMON   BANK0   BANK1   BANK3   BANK2
  5207 ;;      Params:         0       0       0       0       0
  5208 ;;      Locals:         0       0       0       0       0
  5209 ;;      Temps:          0       0       0       0       0
  5210 ;;      Totals:         0       0       0       0       0
  5211 ;;Total ram usage:        0 bytes
  5212 ;; Hardware stack levels used:    1
  5213 ;; Hardware stack levels required when called:    1
  5214 ;; This function calls:
  5215 ;;		Nothing
  5216 ;; This function is called by:
  5217 ;;		_main
  5218 ;; This function uses a non-reentrant model
  5219 ;;
  5220                           psect	text855
  5221                           	file	"D:\6_pic_project\00_Design_Flow_Car\Driver\Usart.c"
  5222                           	line	48
  5223                           	global	__size_of_Usart_Init
  5224  0010                     	__size_of_Usart_Init	equ	__end_of_Usart_Init-_Usart_Init
  5225                           	
  5226  0E6A                     _Usart_Init:	
  5227                           	opt	stack 6
  5228                           ; Regs used in _Usart_Init: [wreg]
  5229                           	line	49
  5230                           	
  5231  0E6A                     l12322:	
  5232                           ;Usart.c: 49: TXSTA=0B00100100;
  5233  0E6A  3024               	movlw	(024h)
  5234  0E6B  1683               	bsf	status, 5	;RP0=1, select bank1
  5235  0E6C  1303               	bcf	status, 6	;RP1=0, select bank1
  5236  0E6D  0098               	movwf	(152)^080h	;volatile
  5237                           	line	50
  5238                           ;Usart.c: 50: RCSTA=0B10010000;
  5239  0E6E  3090               	movlw	(090h)
  5240  0E6F  1283               	bcf	status, 5	;RP0=0, select bank0
  5241  0E70  1303               	bcf	status, 6	;RP1=0, select bank0
  5242  0E71  0098               	movwf	(24)	;volatile
  5243                           	line	51
  5244                           ;Usart.c: 51: SPBRG=12;
  5245  0E72  300C               	movlw	(0Ch)
  5246  0E73  1683               	bsf	status, 5	;RP0=1, select bank1
  5247  0E74  1303               	bcf	status, 6	;RP1=0, select bank1
  5248  0E75  0099               	movwf	(153)^080h	;volatile
  5249                           	line	52
  5250                           	
  5251  0E76                     l12324:	
  5252                           ;Usart.c: 52: GIE=1;
  5253  0E76  178B               	bsf	(95/8),(95)&7
  5254                           	line	53
  5255                           	
  5256  0E77                     l12326:	
  5257                           ;Usart.c: 53: PEIE=1;
  5258  0E77  170B               	bsf	(94/8),(94)&7
  5259                           	line	54
  5260                           	
  5261  0E78                     l12328:	
  5262                           ;Usart.c: 54: RCIE=1;
  5263  0E78  168C               	bsf	(1125/8)^080h,(1125)&7
  5264                           	line	55
  5265                           	
  5266  0E79                     l4319:	
  5267  0E79  0008               	return
  5268                           	opt stack 0
  5269                           GLOBAL	__end_of_Usart_Init
  5270  0E7A                     	__end_of_Usart_Init:
  5271 ;; =============== function _Usart_Init ends ============
  5272                           
  5273                           	signat	_Usart_Init,88
  5274                           	global	_Usart_GPIO_Init
  5275                           psect	text856,local,class=CODE,delta=2
  5276                           global __ptext856
  5277  0E3A                     __ptext856:
  5278                           
  5279 ;; *************** function _Usart_GPIO_Init *****************
  5280 ;; Defined at:
  5281 ;;		line 37 in file "D:\6_pic_project\00_Design_Flow_Car\Driver\Usart.c"
  5282 ;; Parameters:    Size  Location     Type
  5283 ;;		None
  5284 ;; Auto vars:     Size  Location     Type
  5285 ;;		None
  5286 ;; Return value:  Size  Location     Type
  5287 ;;		None               void
  5288 ;; Registers used:
  5289 ;;		None
  5290 ;; Tracked objects:
  5291 ;;		On entry : 0/0
  5292 ;;		On exit  : 0/0
  5293 ;;		Unchanged: 0/0
  5294 ;; Data sizes:     COMMON   BANK0   BANK1   BANK3   BANK2
  5295 ;;      Params:         0       0       0       0       0
  5296 ;;      Locals:         0       0       0       0       0
  5297 ;;      Temps:          0       0       0       0       0
  5298 ;;      Totals:         0       0       0       0       0
  5299 ;;Total ram usage:        0 bytes
  5300 ;; Hardware stack levels used:    1
  5301 ;; Hardware stack levels required when called:    1
  5302 ;; This function calls:
  5303 ;;		Nothing
  5304 ;; This function is called by:
  5305 ;;		_main
  5306 ;; This function uses a non-reentrant model
  5307 ;;
  5308                           psect	text856
  5309                           	file	"D:\6_pic_project\00_Design_Flow_Car\Driver\Usart.c"
  5310                           	line	37
  5311                           	global	__size_of_Usart_GPIO_Init
  5312  0005                     	__size_of_Usart_GPIO_Init	equ	__end_of_Usart_GPIO_Init-_Usart_GPIO_Init
  5313                           	
  5314  0E3A                     _Usart_GPIO_Init:	
  5315                           	opt	stack 6
  5316                           ; Regs used in _Usart_GPIO_Init: []
  5317                           	line	38
  5318                           	
  5319  0E3A                     l12320:	
  5320                           ;Usart.c: 38: TRISC6=1;
  5321  0E3A  1683               	bsf	status, 5	;RP0=1, select bank1
  5322  0E3B  1303               	bcf	status, 6	;RP1=0, select bank1
  5323  0E3C  1707               	bsf	(1086/8)^080h,(1086)&7
  5324                           	line	39
  5325                           ;Usart.c: 39: TRISC7=1;
  5326  0E3D  1787               	bsf	(1087/8)^080h,(1087)&7
  5327                           	line	40
  5328                           	
  5329  0E3E                     l4316:	
  5330  0E3E  0008               	return
  5331                           	opt stack 0
  5332                           GLOBAL	__end_of_Usart_GPIO_Init
  5333  0E3F                     	__end_of_Usart_GPIO_Init:
  5334 ;; =============== function _Usart_GPIO_Init ends ============
  5335                           
  5336                           	signat	_Usart_GPIO_Init,88
  5337                           	global	_putch
  5338                           psect	text857,local,class=CODE,delta=2
  5339                           global __ptext857
  5340  07F2                     __ptext857:
  5341                           
  5342 ;; *************** function _putch *****************
  5343 ;; Defined at:
  5344 ;;		line 22 in file "D:\6_pic_project\00_Design_Flow_Car\Driver\Usart.c"
  5345 ;; Parameters:    Size  Location     Type
  5346 ;;  ch              1    wreg     unsigned char 
  5347 ;; Auto vars:     Size  Location     Type
  5348 ;;  ch              1    0[BANK0 ] unsigned char 
  5349 ;; Return value:  Size  Location     Type
  5350 ;;		None               void
  5351 ;; Registers used:
  5352 ;;		wreg
  5353 ;; Tracked objects:
  5354 ;;		On entry : 0/0
  5355 ;;		On exit  : 0/0
  5356 ;;		Unchanged: 0/0
  5357 ;; Data sizes:     COMMON   BANK0   BANK1   BANK3   BANK2
  5358 ;;      Params:         0       0       0       0       0
  5359 ;;      Locals:         0       1       0       0       0
  5360 ;;      Temps:          0       0       0       0       0
  5361 ;;      Totals:         0       1       0       0       0
  5362 ;;Total ram usage:        1 bytes
  5363 ;; Hardware stack levels used:    1
  5364 ;; Hardware stack levels required when called:    1
  5365 ;; This function calls:
  5366 ;;		Nothing
  5367 ;; This function is called by:
  5368 ;;		_Trace_Control
  5369 ;;		_printf
  5370 ;; This function uses a non-reentrant model
  5371 ;;
  5372                           psect	text857
  5373                           	file	"D:\6_pic_project\00_Design_Flow_Car\Driver\Usart.c"
  5374                           	line	22
  5375                           	global	__size_of_putch
  5376  000E                     	__size_of_putch	equ	__end_of_putch-_putch
  5377                           	
  5378  07F2                     _putch:	
  5379                           	opt	stack 5
  5380                           ; Regs used in _putch: [wreg]
  5381                           ;putch@ch stored from wreg
  5382  07F2  1283               	bcf	status, 5	;RP0=0, select bank0
  5383  07F3  1303               	bcf	status, 6	;RP1=0, select bank0
  5384  07F4  00A0               	movwf	(putch@ch)
  5385                           	line	23
  5386                           	
  5387  07F5                     l12292:	
  5388                           ;Usart.c: 23: TXREG=ch;
  5389  07F5  0820               	movf	(putch@ch),w
  5390  07F6  0099               	movwf	(25)	;volatile
  5391                           	line	24
  5392                           ;Usart.c: 24: while(TRMT==0);
  5393  07F7  2FF8               	goto	l4304
  5394                           	
  5395  07F8                     l4305:	
  5396                           	
  5397  07F8                     l4304:	
  5398  07F8  1683               	bsf	status, 5	;RP0=1, select bank1
  5399  07F9  1303               	bcf	status, 6	;RP1=0, select bank1
  5400  07FA  1C98               	btfss	(1217/8)^080h,(1217)&7
  5401  07FB  2FFD               	goto	u5061
  5402  07FC  2FFE               	goto	u5060
  5403  07FD                     u5061:
  5404  07FD  2FF8               	goto	l4304
  5405  07FE                     u5060:
  5406  07FE  2FFF               	goto	l4307
  5407                           	
  5408  07FF                     l4306:	
  5409                           	line	25
  5410                           	
  5411  07FF                     l4307:	
  5412  07FF  0008               	return
  5413                           	opt stack 0
  5414                           GLOBAL	__end_of_putch
  5415  0800                     	__end_of_putch:
  5416 ;; =============== function _putch ends ============
  5417                           
  5418                           	signat	_putch,4216
  5419                           	global	_Motor_Speed_Set
  5420                           psect	text858,local,class=CODE,delta=2
  5421                           global __ptext858
  5422  0F65                     __ptext858:
  5423                           
  5424 ;; *************** function _Motor_Speed_Set *****************
  5425 ;; Defined at:
  5426 ;;		line 60 in file "D:\6_pic_project\00_Design_Flow_Car\Driver\Motor.c"
  5427 ;; Parameters:    Size  Location     Type
  5428 ;;  Speed1          2    0[BANK0 ] int 
  5429 ;;  Speed2          2    2[BANK0 ] int 
  5430 ;; Auto vars:     Size  Location     Type
  5431 ;;		None
  5432 ;; Return value:  Size  Location     Type
  5433 ;;		None               void
  5434 ;; Registers used:
  5435 ;;		wreg, status,2, status,0, btemp+1
  5436 ;; Tracked objects:
  5437 ;;		On entry : 0/0
  5438 ;;		On exit  : 0/0
  5439 ;;		Unchanged: 0/0
  5440 ;; Data sizes:     COMMON   BANK0   BANK1   BANK3   BANK2
  5441 ;;      Params:         0       4       0       0       0
  5442 ;;      Locals:         0       0       0       0       0
  5443 ;;      Temps:          0       0       0       0       0
  5444 ;;      Totals:         0       4       0       0       0
  5445 ;;Total ram usage:        4 bytes
  5446 ;; Hardware stack levels used:    1
  5447 ;; Hardware stack levels required when called:    1
  5448 ;; This function calls:
  5449 ;;		Nothing
  5450 ;; This function is called by:
  5451 ;;		_Trace_Control
  5452 ;; This function uses a non-reentrant model
  5453 ;;
  5454                           psect	text858
  5455                           	file	"D:\6_pic_project\00_Design_Flow_Car\Driver\Motor.c"
  5456                           	line	60
  5457                           	global	__size_of_Motor_Speed_Set
  5458  003B                     	__size_of_Motor_Speed_Set	equ	__end_of_Motor_Speed_Set-_Motor_Speed_Set
  5459                           	
  5460  0F65                     _Motor_Speed_Set:	
  5461                           	opt	stack 5
  5462                           ; Regs used in _Motor_Speed_Set: [wreg+status,2+status,0+btemp+1]
  5463                           	line	61
  5464                           	
  5465  0F65                     l12276:	
  5466                           ;Motor.c: 61: if(Speed1 > 0 )
  5467  0F65  1283               	bcf	status, 5	;RP0=0, select bank0
  5468  0F66  1303               	bcf	status, 6	;RP1=0, select bank0
  5469  0F67  0821               	movf	(Motor_Speed_Set@Speed1+1),w
  5470  0F68  3A80               	xorlw	80h
  5471  0F69  00FF               	movwf	btemp+1
  5472  0F6A  3080               	movlw	(high(01h))^80h
  5473  0F6B  027F               	subwf	btemp+1,w
  5474  0F6C  1D03               	skipz
  5475  0F6D  2F70               	goto	u5045
  5476  0F6E  3001               	movlw	low(01h)
  5477  0F6F  0220               	subwf	(Motor_Speed_Set@Speed1),w
  5478  0F70                     u5045:
  5479                           
  5480  0F70  1C03               	skipc
  5481  0F71  2F73               	goto	u5041
  5482  0F72  2F74               	goto	u5040
  5483  0F73                     u5041:
  5484  0F73  2F7B               	goto	l3608
  5485  0F74                     u5040:
  5486                           	line	63
  5487                           	
  5488  0F74                     l12278:	
  5489                           ;Motor.c: 62: {
  5490                           ;Motor.c: 63: RB4 = 1;
  5491  0F74  1283               	bcf	status, 5	;RP0=0, select bank0
  5492  0F75  1303               	bcf	status, 6	;RP1=0, select bank0
  5493  0F76  1606               	bsf	(52/8),(52)&7
  5494                           	line	64
  5495                           ;Motor.c: 64: RB5 = 0;
  5496  0F77  1286               	bcf	(53/8),(53)&7
  5497                           	line	65
  5498                           	
  5499  0F78                     l12280:	
  5500                           ;Motor.c: 65: CCPR1L=(unsigned char)Speed1;
  5501  0F78  0820               	movf	(Motor_Speed_Set@Speed1),w
  5502  0F79  0095               	movwf	(21)	;volatile
  5503                           	line	66
  5504                           ;Motor.c: 66: }
  5505  0F7A  2F83               	goto	l12284
  5506                           	line	67
  5507                           	
  5508  0F7B                     l3608:	
  5509                           	line	69
  5510                           ;Motor.c: 67: else
  5511                           ;Motor.c: 68: {
  5512                           ;Motor.c: 69: RB4 = 0;
  5513  0F7B  1283               	bcf	status, 5	;RP0=0, select bank0
  5514  0F7C  1303               	bcf	status, 6	;RP1=0, select bank0
  5515  0F7D  1206               	bcf	(52/8),(52)&7
  5516                           	line	70
  5517                           ;Motor.c: 70: RB5 = 1;
  5518  0F7E  1686               	bsf	(53/8),(53)&7
  5519                           	line	71
  5520                           	
  5521  0F7F                     l12282:	
  5522                           ;Motor.c: 71: CCPR1L=(unsigned char)(-Speed1);
  5523  0F7F  0320               	decf	(Motor_Speed_Set@Speed1),w
  5524  0F80  3AFF               	xorlw	0ffh
  5525  0F81  0095               	movwf	(21)	;volatile
  5526  0F82  2F83               	goto	l12284
  5527                           	line	72
  5528                           	
  5529  0F83                     l3609:	
  5530                           	line	74
  5531                           	
  5532  0F83                     l12284:	
  5533                           ;Motor.c: 72: }
  5534                           ;Motor.c: 74: if(Speed2 >0 )
  5535  0F83  0823               	movf	(Motor_Speed_Set@Speed2+1),w
  5536  0F84  3A80               	xorlw	80h
  5537  0F85  00FF               	movwf	btemp+1
  5538  0F86  3080               	movlw	(high(01h))^80h
  5539  0F87  027F               	subwf	btemp+1,w
  5540  0F88  1D03               	skipz
  5541  0F89  2F8C               	goto	u5055
  5542  0F8A  3001               	movlw	low(01h)
  5543  0F8B  0222               	subwf	(Motor_Speed_Set@Speed2),w
  5544  0F8C                     u5055:
  5545                           
  5546  0F8C  1C03               	skipc
  5547  0F8D  2F8F               	goto	u5051
  5548  0F8E  2F90               	goto	u5050
  5549  0F8F                     u5051:
  5550  0F8F  2F97               	goto	l3610
  5551  0F90                     u5050:
  5552                           	line	76
  5553                           	
  5554  0F90                     l12286:	
  5555                           ;Motor.c: 75: {
  5556                           ;Motor.c: 76: RB6 = 1;
  5557  0F90  1283               	bcf	status, 5	;RP0=0, select bank0
  5558  0F91  1303               	bcf	status, 6	;RP1=0, select bank0
  5559  0F92  1706               	bsf	(54/8),(54)&7
  5560                           	line	77
  5561                           ;Motor.c: 77: RB7 = 0;
  5562  0F93  1386               	bcf	(55/8),(55)&7
  5563                           	line	78
  5564                           	
  5565  0F94                     l12288:	
  5566                           ;Motor.c: 78: CCPR2L=(unsigned char)Speed2;
  5567  0F94  0822               	movf	(Motor_Speed_Set@Speed2),w
  5568  0F95  009B               	movwf	(27)	;volatile
  5569                           	line	79
  5570                           ;Motor.c: 79: }
  5571  0F96  2F9F               	goto	l3612
  5572                           	line	80
  5573                           	
  5574  0F97                     l3610:	
  5575                           	line	82
  5576                           ;Motor.c: 80: else
  5577                           ;Motor.c: 81: {
  5578                           ;Motor.c: 82: RB6 = 0;
  5579  0F97  1283               	bcf	status, 5	;RP0=0, select bank0
  5580  0F98  1303               	bcf	status, 6	;RP1=0, select bank0
  5581  0F99  1306               	bcf	(54/8),(54)&7
  5582                           	line	83
  5583                           ;Motor.c: 83: RB7 = 1;
  5584  0F9A  1786               	bsf	(55/8),(55)&7
  5585                           	line	84
  5586                           	
  5587  0F9B                     l12290:	
  5588                           ;Motor.c: 84: CCPR2L=(unsigned char)(-Speed2);
  5589  0F9B  0322               	decf	(Motor_Speed_Set@Speed2),w
  5590  0F9C  3AFF               	xorlw	0ffh
  5591  0F9D  009B               	movwf	(27)	;volatile
  5592  0F9E  2F9F               	goto	l3612
  5593                           	line	85
  5594                           	
  5595  0F9F                     l3611:	
  5596                           	line	86
  5597                           	
  5598  0F9F                     l3612:	
  5599  0F9F  0008               	return
  5600                           	opt stack 0
  5601                           GLOBAL	__end_of_Motor_Speed_Set
  5602  0FA0                     	__end_of_Motor_Speed_Set:
  5603 ;; =============== function _Motor_Speed_Set ends ============
  5604                           
  5605                           	signat	_Motor_Speed_Set,8312
  5606                           	global	_Motor_CCP_PWM_Init
  5607                           psect	text859,local,class=CODE,delta=2
  5608                           global __ptext859
  5609  0EA0                     __ptext859:
  5610                           
  5611 ;; *************** function _Motor_CCP_PWM_Init *****************
  5612 ;; Defined at:
  5613 ;;		line 31 in file "D:\6_pic_project\00_Design_Flow_Car\Driver\Motor.c"
  5614 ;; Parameters:    Size  Location     Type
  5615 ;;		None
  5616 ;; Auto vars:     Size  Location     Type
  5617 ;;		None
  5618 ;; Return value:  Size  Location     Type
  5619 ;;		None               void
  5620 ;; Registers used:
  5621 ;;		wreg, status,2
  5622 ;; Tracked objects:
  5623 ;;		On entry : 0/0
  5624 ;;		On exit  : 0/0
  5625 ;;		Unchanged: 0/0
  5626 ;; Data sizes:     COMMON   BANK0   BANK1   BANK3   BANK2
  5627 ;;      Params:         0       0       0       0       0
  5628 ;;      Locals:         0       0       0       0       0
  5629 ;;      Temps:          0       0       0       0       0
  5630 ;;      Totals:         0       0       0       0       0
  5631 ;;Total ram usage:        0 bytes
  5632 ;; Hardware stack levels used:    1
  5633 ;; Hardware stack levels required when called:    1
  5634 ;; This function calls:
  5635 ;;		Nothing
  5636 ;; This function is called by:
  5637 ;;		_main
  5638 ;; This function uses a non-reentrant model
  5639 ;;
  5640                           psect	text859
  5641                           	file	"D:\6_pic_project\00_Design_Flow_Car\Driver\Motor.c"
  5642                           	line	31
  5643                           	global	__size_of_Motor_CCP_PWM_Init
  5644  0014                     	__size_of_Motor_CCP_PWM_Init	equ	__end_of_Motor_CCP_PWM_Init-_Motor_CCP_PWM_Init
  5645                           	
  5646  0EA0                     _Motor_CCP_PWM_Init:	
  5647                           	opt	stack 6
  5648                           ; Regs used in _Motor_CCP_PWM_Init: [wreg+status,2]
  5649                           	line	33
  5650                           	
  5651  0EA0                     l12268:	
  5652                           ;Motor.c: 33: CCP1CON=0X0C;
  5653  0EA0  300C               	movlw	(0Ch)
  5654  0EA1  1283               	bcf	status, 5	;RP0=0, select bank0
  5655  0EA2  1303               	bcf	status, 6	;RP1=0, select bank0
  5656  0EA3  0097               	movwf	(23)	;volatile
  5657                           	line	34
  5658                           ;Motor.c: 34: CCPR1L=50;
  5659  0EA4  3032               	movlw	(032h)
  5660  0EA5  0095               	movwf	(21)	;volatile
  5661                           	line	35
  5662                           ;Motor.c: 35: PR2=100;
  5663  0EA6  3064               	movlw	(064h)
  5664  0EA7  1683               	bsf	status, 5	;RP0=1, select bank1
  5665  0EA8  1303               	bcf	status, 6	;RP1=0, select bank1
  5666  0EA9  0092               	movwf	(146)^080h	;volatile
  5667                           	line	38
  5668                           ;Motor.c: 38: CCP2CON = 0x0c;
  5669  0EAA  300C               	movlw	(0Ch)
  5670  0EAB  1283               	bcf	status, 5	;RP0=0, select bank0
  5671  0EAC  1303               	bcf	status, 6	;RP1=0, select bank0
  5672  0EAD  009D               	movwf	(29)	;volatile
  5673                           	line	39
  5674                           ;Motor.c: 39: CCPR2L = 50;
  5675  0EAE  3032               	movlw	(032h)
  5676  0EAF  009B               	movwf	(27)	;volatile
  5677                           	line	42
  5678                           	
  5679  0EB0                     l12270:	
  5680                           ;Motor.c: 42: T2CON=0;
  5681  0EB0  0192               	clrf	(18)	;volatile
  5682                           	line	43
  5683                           	
  5684  0EB1                     l12272:	
  5685                           ;Motor.c: 43: TMR2=0;
  5686  0EB1  0191               	clrf	(17)	;volatile
  5687                           	line	44
  5688                           	
  5689  0EB2                     l12274:	
  5690                           ;Motor.c: 44: TMR2ON=1;
  5691  0EB2  1512               	bsf	(146/8),(146)&7
  5692                           	line	45
  5693                           	
  5694  0EB3                     l3602:	
  5695  0EB3  0008               	return
  5696                           	opt stack 0
  5697                           GLOBAL	__end_of_Motor_CCP_PWM_Init
  5698  0EB4                     	__end_of_Motor_CCP_PWM_Init:
  5699 ;; =============== function _Motor_CCP_PWM_Init ends ============
  5700                           
  5701                           	signat	_Motor_CCP_PWM_Init,88
  5702                           	global	_Motor_GPIO_Init
  5703                           psect	text860,local,class=CODE,delta=2
  5704                           global __ptext860
  5705  0E47                     __ptext860:
  5706                           
  5707 ;; *************** function _Motor_GPIO_Init *****************
  5708 ;; Defined at:
  5709 ;;		line 21 in file "D:\6_pic_project\00_Design_Flow_Car\Driver\Motor.c"
  5710 ;; Parameters:    Size  Location     Type
  5711 ;;		None
  5712 ;; Auto vars:     Size  Location     Type
  5713 ;;		None
  5714 ;; Return value:  Size  Location     Type
  5715 ;;		None               void
  5716 ;; Registers used:
  5717 ;;		None
  5718 ;; Tracked objects:
  5719 ;;		On entry : 0/0
  5720 ;;		On exit  : 0/0
  5721 ;;		Unchanged: 0/0
  5722 ;; Data sizes:     COMMON   BANK0   BANK1   BANK3   BANK2
  5723 ;;      Params:         0       0       0       0       0
  5724 ;;      Locals:         0       0       0       0       0
  5725 ;;      Temps:          0       0       0       0       0
  5726 ;;      Totals:         0       0       0       0       0
  5727 ;;Total ram usage:        0 bytes
  5728 ;; Hardware stack levels used:    1
  5729 ;; Hardware stack levels required when called:    1
  5730 ;; This function calls:
  5731 ;;		Nothing
  5732 ;; This function is called by:
  5733 ;;		_main
  5734 ;; This function uses a non-reentrant model
  5735 ;;
  5736                           psect	text860
  5737                           	file	"D:\6_pic_project\00_Design_Flow_Car\Driver\Motor.c"
  5738                           	line	21
  5739                           	global	__size_of_Motor_GPIO_Init
  5740  0009                     	__size_of_Motor_GPIO_Init	equ	__end_of_Motor_GPIO_Init-_Motor_GPIO_Init
  5741                           	
  5742  0E47                     _Motor_GPIO_Init:	
  5743                           	opt	stack 6
  5744                           ; Regs used in _Motor_GPIO_Init: []
  5745                           	line	22
  5746                           	
  5747  0E47                     l12266:	
  5748                           ;Motor.c: 22: TRISB4=0;
  5749  0E47  1683               	bsf	status, 5	;RP0=1, select bank1
  5750  0E48  1303               	bcf	status, 6	;RP1=0, select bank1
  5751  0E49  1206               	bcf	(1076/8)^080h,(1076)&7
  5752                           	line	23
  5753                           ;Motor.c: 23: TRISB5=0;
  5754  0E4A  1286               	bcf	(1077/8)^080h,(1077)&7
  5755                           	line	24
  5756                           ;Motor.c: 24: TRISB6=0;
  5757  0E4B  1306               	bcf	(1078/8)^080h,(1078)&7
  5758                           	line	25
  5759                           ;Motor.c: 25: TRISB7=0;
  5760  0E4C  1386               	bcf	(1079/8)^080h,(1079)&7
  5761                           	line	26
  5762                           ;Motor.c: 26: TRISC1=0;
  5763  0E4D  1087               	bcf	(1081/8)^080h,(1081)&7
  5764                           	line	27
  5765                           ;Motor.c: 27: TRISC2=0;
  5766  0E4E  1107               	bcf	(1082/8)^080h,(1082)&7
  5767                           	line	28
  5768                           	
  5769  0E4F                     l3599:	
  5770  0E4F  0008               	return
  5771                           	opt stack 0
  5772                           GLOBAL	__end_of_Motor_GPIO_Init
  5773  0E50                     	__end_of_Motor_GPIO_Init:
  5774 ;; =============== function _Motor_GPIO_Init ends ============
  5775                           
  5776                           	signat	_Motor_GPIO_Init,88
  5777                           	global	_Service
  5778                           psect	text861,local,class=CODE,delta=2
  5779                           global __ptext861
  5780  0FA0                     __ptext861:
  5781                           
  5782 ;; *************** function _Service *****************
  5783 ;; Defined at:
  5784 ;;		line 181 in file "D:\6_pic_project\00_Design_Flow_Car\User\Car_demo\Car_demo.c"
  5785 ;; Parameters:    Size  Location     Type
  5786 ;;		None
  5787 ;; Auto vars:     Size  Location     Type
  5788 ;;		None
  5789 ;; Return value:  Size  Location     Type
  5790 ;;		None               void
  5791 ;; Registers used:
  5792 ;;		wreg
  5793 ;; Tracked objects:
  5794 ;;		On entry : 0/0
  5795 ;;		On exit  : 0/0
  5796 ;;		Unchanged: 0/0
  5797 ;; Data sizes:     COMMON   BANK0   BANK1   BANK3   BANK2
  5798 ;;      Params:         0       0       0       0       0
  5799 ;;      Locals:         0       0       0       0       0
  5800 ;;      Temps:          5       0       0       0       0
  5801 ;;      Totals:         5       0       0       0       0
  5802 ;;Total ram usage:        5 bytes
  5803 ;; Hardware stack levels used:    1
  5804 ;; This function calls:
  5805 ;;		Nothing
  5806 ;; This function is called by:
  5807 ;;		Interrupt level 1
  5808 ;; This function uses a non-reentrant model
  5809 ;;
  5810                           psect	text861
  5811                           	file	"D:\6_pic_project\00_Design_Flow_Car\User\Car_demo\Car_demo.c"
  5812                           	line	181
  5813                           	global	__size_of_Service
  5814  0060                     	__size_of_Service	equ	__end_of_Service-_Service
  5815                           	
  5816  0FA0                     _Service:	
  5817                           	opt	stack 3
  5818                           ; Regs used in _Service: [wreg]
  5819                           psect	intentry,class=CODE,delta=2
  5820                           global __pintentry
  5821  0004                     __pintentry:
  5822                           global interrupt_function
  5823  0004                     interrupt_function:
  5824                           	global saved_w
  5825  007E                     	saved_w	set	btemp+0
  5826  0004  00FE               	movwf	saved_w
  5827  0005  0E03               	swapf	status,w
  5828  0006  00F1               	movwf	(??_Service+1)
  5829  0007  0804               	movf	fsr0,w
  5830  0008  00F2               	movwf	(??_Service+2)
  5831  0009  080A               	movf	pclath,w
  5832  000A  00F3               	movwf	(??_Service+3)
  5833  000B  1283               	bcf	status, 5	;RP0=0, select bank0
  5834  000C  1303               	bcf	status, 6	;RP1=0, select bank0
  5835  000D  087F               	movf	btemp+1,w
  5836  000E  00F4               	movwf	(??_Service+4)
  5837  000F  120A  158A  2FA0   	ljmp	_Service
  5838                           psect	text861
  5839                           	line	183
  5840                           	
  5841  0FA0                     i1l11748:	
  5842                           ;Car_demo.c: 183: if(RCIF==1)
  5843  0FA0  1E8C               	btfss	(101/8),(101)&7
  5844  0FA1  2FA3               	goto	u393_21
  5845  0FA2  2FA4               	goto	u393_20
  5846  0FA3                     u393_21:
  5847  0FA3  2FD3               	goto	i1l8602
  5848  0FA4                     u393_20:
  5849                           	line	185
  5850                           	
  5851  0FA4                     i1l11750:	
  5852                           ;Car_demo.c: 184: {
  5853                           ;Car_demo.c: 185: bluetooth=RCREG;
  5854  0FA4  081A               	movf	(26),w	;volatile
  5855  0FA5  00F0               	movwf	(??_Service+0)+0
  5856  0FA6  0870               	movf	(??_Service+0)+0,w
  5857  0FA7  00F5               	movwf	(_bluetooth)
  5858                           	line	186
  5859                           ;Car_demo.c: 186: if(bluetooth == 1){Speed_Velcolity=25;}
  5860  0FA8  0875               	movf	(_bluetooth),w
  5861  0FA9  3A01               	xorlw	01h
  5862  0FAA  1D03               	skipz
  5863  0FAB  2FAD               	goto	u394_21
  5864  0FAC  2FAE               	goto	u394_20
  5865  0FAD                     u394_21:
  5866  0FAD  2FB2               	goto	i1l8603
  5867  0FAE                     u394_20:
  5868                           	
  5869  0FAE                     i1l11752:	
  5870  0FAE  3019               	movlw	(019h)
  5871  0FAF  00F0               	movwf	(??_Service+0)+0
  5872  0FB0  0870               	movf	(??_Service+0)+0,w
  5873  0FB1  00EE               	movwf	(_Speed_Velcolity)
  5874                           	
  5875  0FB2                     i1l8603:	
  5876                           	line	187
  5877                           ;Car_demo.c: 187: if(bluetooth == 2){Speed_Velcolity=30;}
  5878  0FB2  0875               	movf	(_bluetooth),w
  5879  0FB3  3A02               	xorlw	02h
  5880  0FB4  1D03               	skipz
  5881  0FB5  2FB7               	goto	u395_21
  5882  0FB6  2FB8               	goto	u395_20
  5883  0FB7                     u395_21:
  5884  0FB7  2FBC               	goto	i1l8604
  5885  0FB8                     u395_20:
  5886                           	
  5887  0FB8                     i1l11754:	
  5888  0FB8  301E               	movlw	(01Eh)
  5889  0FB9  00F0               	movwf	(??_Service+0)+0
  5890  0FBA  0870               	movf	(??_Service+0)+0,w
  5891  0FBB  00EE               	movwf	(_Speed_Velcolity)
  5892                           	
  5893  0FBC                     i1l8604:	
  5894                           	line	188
  5895                           ;Car_demo.c: 188: if(bluetooth == 3){Speed_Velcolity=50;}
  5896  0FBC  0875               	movf	(_bluetooth),w
  5897  0FBD  3A03               	xorlw	03h
  5898  0FBE  1D03               	skipz
  5899  0FBF  2FC1               	goto	u396_21
  5900  0FC0  2FC2               	goto	u396_20
  5901  0FC1                     u396_21:
  5902  0FC1  2FC6               	goto	i1l8605
  5903  0FC2                     u396_20:
  5904                           	
  5905  0FC2                     i1l11756:	
  5906  0FC2  3032               	movlw	(032h)
  5907  0FC3  00F0               	movwf	(??_Service+0)+0
  5908  0FC4  0870               	movf	(??_Service+0)+0,w
  5909  0FC5  00EE               	movwf	(_Speed_Velcolity)
  5910                           	
  5911  0FC6                     i1l8605:	
  5912                           	line	189
  5913                           ;Car_demo.c: 189: if(bluetooth == 4){Speed_Velcolity=55;}
  5914  0FC6  0875               	movf	(_bluetooth),w
  5915  0FC7  3A04               	xorlw	04h
  5916  0FC8  1D03               	skipz
  5917  0FC9  2FCB               	goto	u397_21
  5918  0FCA  2FCC               	goto	u397_20
  5919  0FCB                     u397_21:
  5920  0FCB  2FD1               	goto	i1l11760
  5921  0FCC                     u397_20:
  5922                           	
  5923  0FCC                     i1l11758:	
  5924  0FCC  3037               	movlw	(037h)
  5925  0FCD  00F0               	movwf	(??_Service+0)+0
  5926  0FCE  0870               	movf	(??_Service+0)+0,w
  5927  0FCF  00EE               	movwf	(_Speed_Velcolity)
  5928  0FD0  2FD1               	goto	i1l11760
  5929                           	
  5930  0FD1                     i1l8606:	
  5931                           	line	192
  5932                           	
  5933  0FD1                     i1l11760:	
  5934                           ;Car_demo.c: 192: RCIF=0;
  5935  0FD1  128C               	bcf	(101/8),(101)&7
  5936                           	line	193
  5937                           ;Car_demo.c: 193: }
  5938  0FD2  2FF4               	goto	i1l8607
  5939                           	line	194
  5940                           	
  5941  0FD3                     i1l8602:	
  5942                           ;Car_demo.c: 194: else if(T0IF==1)
  5943  0FD3  1D0B               	btfss	(90/8),(90)&7
  5944  0FD4  2FD6               	goto	u398_21
  5945  0FD5  2FD7               	goto	u398_20
  5946  0FD6                     u398_21:
  5947  0FD6  2FDB               	goto	i1l8608
  5948  0FD7                     u398_20:
  5949                           	line	196
  5950                           	
  5951  0FD7                     i1l11762:	
  5952                           ;Car_demo.c: 195: {
  5953                           ;Car_demo.c: 196: TMR0=60;
  5954  0FD7  303C               	movlw	(03Ch)
  5955  0FD8  0081               	movwf	(1)	;volatile
  5956                           	line	197
  5957                           	
  5958  0FD9                     i1l11764:	
  5959                           ;Car_demo.c: 197: T0IF=0;
  5960  0FD9  110B               	bcf	(90/8),(90)&7
  5961                           	line	198
  5962                           ;Car_demo.c: 198: }
  5963  0FDA  2FF4               	goto	i1l8607
  5964                           	line	199
  5965                           	
  5966  0FDB                     i1l8608:	
  5967                           ;Car_demo.c: 199: else if(INTF==1)
  5968  0FDB  1C8B               	btfss	(89/8),(89)&7
  5969  0FDC  2FDE               	goto	u399_21
  5970  0FDD  2FDF               	goto	u399_20
  5971  0FDE                     u399_21:
  5972  0FDE  2FEC               	goto	i1l8610
  5973  0FDF                     u399_20:
  5974                           	line	201
  5975                           	
  5976  0FDF                     i1l11766:	
  5977                           ;Car_demo.c: 200: {
  5978                           ;Car_demo.c: 201: if(Start_Find_flag)
  5979  0FDF  0869               	movf	(_Start_Find_flag),w
  5980  0FE0  1D03               	skipz
  5981  0FE1  2FE3               	goto	u400_20
  5982  0FE2  2FEA               	goto	i1l11770
  5983  0FE3                     u400_20:
  5984                           	line	203
  5985                           	
  5986  0FE3                     i1l11768:	
  5987                           ;Car_demo.c: 202: {
  5988                           ;Car_demo.c: 203: Encoder_Counter++;
  5989  0FE3  3001               	movlw	low(01h)
  5990  0FE4  07E3               	addwf	(_Encoder_Counter),f
  5991  0FE5  1803               	skipnc
  5992  0FE6  0AE4               	incf	(_Encoder_Counter+1),f
  5993  0FE7  3000               	movlw	high(01h)
  5994  0FE8  07E4               	addwf	(_Encoder_Counter+1),f
  5995  0FE9  2FEA               	goto	i1l11770
  5996                           	line	204
  5997                           	
  5998  0FEA                     i1l8611:	
  5999                           	line	205
  6000                           	
  6001  0FEA                     i1l11770:	
  6002                           ;Car_demo.c: 204: }
  6003                           ;Car_demo.c: 205: INTF=0;
  6004  0FEA  108B               	bcf	(89/8),(89)&7
  6005                           	line	206
  6006                           ;Car_demo.c: 206: }
  6007  0FEB  2FF4               	goto	i1l8607
  6008                           	line	207
  6009                           	
  6010  0FEC                     i1l8610:	
  6011                           ;Car_demo.c: 207: else if(RBIF == 1)
  6012  0FEC  1C0B               	btfss	(88/8),(88)&7
  6013  0FED  2FEF               	goto	u401_21
  6014  0FEE  2FF0               	goto	u401_20
  6015  0FEF                     u401_21:
  6016  0FEF  2FF4               	goto	i1l8607
  6017  0FF0                     u401_20:
  6018                           	line	209
  6019                           	
  6020  0FF0                     i1l11772:	
  6021                           ;Car_demo.c: 208: {
  6022                           ;Car_demo.c: 209: RBIF=0;
  6023  0FF0  100B               	bcf	(88/8),(88)&7
  6024  0FF1  2FF4               	goto	i1l8607
  6025                           	line	210
  6026                           	
  6027  0FF2                     i1l8613:	
  6028  0FF2  2FF4               	goto	i1l8607
  6029                           	line	211
  6030                           	
  6031  0FF3                     i1l8612:	
  6032  0FF3  2FF4               	goto	i1l8607
  6033                           	
  6034  0FF4                     i1l8609:	
  6035                           	
  6036  0FF4                     i1l8607:	
  6037                           ;Car_demo.c: 210: }
  6038                           ;Car_demo.c: 211: TMR1IF=0;
  6039  0FF4  100C               	bcf	(96/8),(96)&7
  6040                           	line	212
  6041                           	
  6042  0FF5                     i1l8614:	
  6043  0FF5  0874               	movf	(??_Service+4),w
  6044  0FF6  00FF               	movwf	btemp+1
  6045  0FF7  0873               	movf	(??_Service+3),w
  6046  0FF8  008A               	movwf	pclath
  6047  0FF9  0872               	movf	(??_Service+2),w
  6048  0FFA  0084               	movwf	fsr0
  6049  0FFB  0E71               	swapf	(??_Service+1)^0FFFFFF80h,w
  6050  0FFC  0083               	movwf	status
  6051  0FFD  0EFE               	swapf	saved_w,f
  6052  0FFE  0E7E               	swapf	saved_w,w
  6053  0FFF  0009               	retfie
  6054                           	opt stack 0
  6055                           GLOBAL	__end_of_Service
  6056  1000                     	__end_of_Service:
  6057 ;; =============== function _Service ends ============
  6058                           
  6059                           	signat	_Service,88
  6060                           psect	text862,local,class=CODE,delta=2
  6061                           global __ptext862
  6062  0000                     __ptext862:
  6063                           	global	btemp
  6064  007E                     	btemp set 07Eh
  6065                           
  6066                           	DABS	1,126,2	;btemp
  6067                           	global	wtemp0
  6068  007E                     	wtemp0 set btemp


HI-TECH Software PICC Macro Assembler V9.82 build 9453 
Symbol Table                                                                                   Thu Jun 20 11:41:38 2024

    __end_of_Usart_GPIO_Init 0E3F                            _x 0077                            _y 0078  
                          pc 0002                           _RD 0C60                           _Kd 00A2  
                         _WR 0C61                           _Kp 00C3                           fsr 0004  
        ___wmul@multiplicand 0022                 ___ftadd@exp1 0058                 ___ftadd@exp2 0057  
               ___ftadd@sign 0056                          _GIE 005F                          _RA0 0028  
                        _RA1 0029                          _RA2 002A                          _RA3 002B  
                        _RC0 0038                          _RA4 002C                          _RA5 002D  
                        _RB4 0034                          _RC3 003B                          _RB5 0035  
                        _RE0 0048                          _RC4 003C                          _RB6 0036  
                        _RE1 0049                          _RC5 003D                          _RB7 0037  
                        _RE2 004A                          _PR2 0092               _Bifurcate_Flag 00AE  
                        _dis 00A6                          fsr0 0004                          indf 0000  
                       l5014 0ECC                         l5015 0ECA                         l4304 07F8  
                       l5016 0EDF                         l4305 07F8                         l5017 0EDF  
                       l3602 0EB3                         l3610 0F97                         l4306 07FF  
                       l3611 0F9F                         l4307 07FF                         l3612 0F9F  
                       l4316 0E3E                         l4319 0E79                         l3608 0F7B  
                       l3609 0F83                         l7100 029D                         l7101 0335  
                       l7110 02DA                         l7102 02A2                         l7111 02E1  
                       l7103 02A9                         l7112 02E8                         l7104 02B0  
                       l7113 02EF                         l7105 02B7                         l7114 02F6  
                       l7106 02BE                         l7115 02FD                         l7107 02C5  
                       l7116 03E5                         l7108 02CC                         l7109 02D3  
                       l3599 0E4F                         l7096 0E5A                         l7099 0305  
                       l6399 0E69                         l7813 0EC8                         l8621 07E8  
                       l9326 0EE5                         l9430 05D1                         l8622 07EE  
                       l9327 0EEF                         l9431 05E6                         l8623 07EF  
                       l9328 0F04                         l9440 0681                         l9432 05FD  
                       l9424 0547                         l8624 07EF                         l9329 0F0B  
                       l9441 06A6                         l9425 0619                         l8570 07B2  
                       l9442 0692                         l9370 041D                         l9426 0560  
                       l8571 0796                         l9443 069F                         l9435 0637  
                       l9427 05A0                         l8572 079C                         l9444 0693  
                       l9436 06BF                         l9380 0455                         l9372 0415  
                       l9428 05B5                         l8580 0104                         l8573 07B2  
                       l8565 07A1                         l9445 06A5                         l9437 0682  
                       l9373 052B                         l9429 05CC                         l8581 007A  
                       l8566 078D                         l9446 06B6                         l9438 066E  
                       l9382 046E                         l9374 0432                         l9462 0F1C  
                       l8590 016A                         l8582 00BD                         l8567 078E  
                       l9439 066F                         l9391 04A5                         l9383 046F  
                       l9463 0F37                         l8591 01B1                         l8583 00BC  
                       l8568 078F                         l9392 04A6                         l9384 047D  
                       l9376 0431                         l8592 01D2                         l8584 0103  
                       l8576 0062                         l8569 0790                         l9393 04B4  
                       l9385 0470                         l9377 043B                         l8585 024B  
                       l8593 01D1                         l8577 0051                         l9394 04A7  
                       l9386 0484                         l9378 0440                         l8594 024A  
                       l8586 01D3                         l8578 0061                         l9395 04BB  
                       l9379 0485                         l9387 04BC                         l8579 024C  
                       l8595 0249                         l8587 01B2                         l9660 06CE  
                       l9396 04D1                         l9388 04BC                         l8596 01EE  
                       l8588 012B                         l9661 073C                         l9397 04E6  
                       l9389 048C                         l8597 0202                         l8589 016B  
                       l9670 0719                         l9662 06E4                         l9398 050F  
                       l8598 0248                         l9671 0723                         l9663 06D7  
                       l8599 024C                         l9672 073C                         l9664 06EB  
                       l9665 0702                         l9666 06EC                         l9658 06D6  
                       l9667 0709                         l9668 0715                         l9669 070A  
                       STR_1 0806                         _T0IE 005D                         _T0IF 005A  
                       u4310 0680                         u4311 067F                         u5040 0F74  
                       u4320 0688                         u6000 0068                         u5041 0F73  
                       u4321 0687                         u4305 0670                         u6001 0067  
                       u5050 0F90                         u5210 0EE9                         u6010 0076  
                       u5051 0F8F                         u5211 0EE8                         u6011 0075  
                       u5060 07FE                         u5300 0708                         u4340 06A4  
                       u4260 062D                         u6100 01D9                         u6020 0080  
                       u5045 0F70                         u5061 07FD                         u5301 0707  
                       u4341 06A3                         u4261 062C                         u6101 01D8  
                       u6021 007F                         u4350 06AA                         u4270 0642  
                       u6110 01E7                         u6030 00AE                         u5055 0F8C  
                       u4335 0695                         u6111 01E6                         u6031 00AD  
                       u5240 0F03                         u5320 0719                         u4280 065D  
                       u6120 01F4                         u6040 010C                         u5145 0748  
                       u5241 0F02                         u5225 0EF0                         u5321 0718  
                       u4281 065C                         u6121 01F3                         u6041 010B  
                       u5330 071D                         u5250 06C6                         u4290 0664  
                       u6050 0111                         u5155 0752                         u5235 0EF7  
                       u5331 071C                         u5315 070D                         u4291 0663  
                       u4275 063E                         u6051 0110                         _PEIE 005E  
                       u5340 072E                         u5260 06CD                         u6060 011F  
                       u5165 075C                         u5261 06CC                         u6061 011E  
                       _INTE 005C                         u5350 073B                         u5510 0EDE  
                       u6070 012F                         _INTF 0059                         u5175 0766  
                       u5511 0EDD                         _RBIE 005B                         u5280 06EA  
                       u5600 0454                         u5520 0404                         u6080 015D  
                       _RBIF 0058                         u5185 0770                         u5345 072A  
                       u5281 06E9                         u5601 0453                         u6081 015C  
                       u5530 040A                         u6090 01CC                         u5195 077A  
                       u5275 06DC                         u5515 0EDA                         u5531 0409  
                       u6091 01CB                         _RCIE 0465                         u5620 0465  
                       u5540 0414                         _RCIF 0065                         u5621 0464  
                       u5541 0413                         u5710 04BA                         u5630 046D  
                       u5550 0421                         u5295 06FB                         u5711 04B9  
                       u5631 046C                         u5615 0456                         u5720 04C0  
                       u5560 0427                         u5800 05A4                         u5721 04BF  
                       u5705 04A8                         u5561 0426                         u5801 05A3  
                       u5730 04D5                         u5650 0483                         u5570 0431  
                       u5731 04D4                         u5651 0482                         u5571 0430  
                       u5811 05AD                         u5660 048B                         u5580 043A  
                       u5812 05B4                         u5900 0F13                         u5741 04F0  
                       u5661 048A                         u5645 0471                         u5581 0439  
                       u5901 0F12                         u5750 04FB                         u5742 04F7  
                       u5590 043F                         u5751 04FA                         u5591 043E  
                       u5680 049C                         u5840 05CB                         u5760 053F  
                       u5681 049B                         u5841 05CA                         u5825 05B6  
                       u5761 053E                         u5690 04A4                         u5850 05D5  
                       u5770 0558                         u5691 04A3                         u5675 048D  
                       u5851 05D4                         u5835 05BE                         u5771 0557  
                       u5915 0258                         u5780 0570                         u5861 05DE  
                       u5925 0262                         u5862 05E5                         u5790 0582  
                       u5935 026C                         u5785 056C                         u5945 0276  
                       u5890 05FC                         u5970 001C                         u5891 05FB  
                       u5875 05E7                         u5795 057E                         u5955 0280  
                       u5971 001B                         u5980 004D                         u5885 05EF  
                       u5965 028A                         u5981 004C                         u5990 005A  
                       u5991 0059                         _TMR0 0001                         _TMR2 0011  
                       _TRMT 04C1                         _WREN 0C62                         _main 07B3  
               ___ftpack@arg 0020                 ___ftpack@exp 0023                         btemp 007E  
                       start 0012                 ___ftmul@cntr 004A                 ___ftmul@sign 004B  
               ___fttol@exp1 0035                 ___fttol@lval 0031   __end_of_Motor_CCP_PWM_Init 0EB4  
            __end_of_Service 1000                        l12320 0E3A                        l12400 07A1  
                      l12322 0E6A                        l12330 0E5B                        l12410 0EE0  
                      l12324 0E76                        l12332 0E61                        l12340 0EB4  
                      l12420 0F0B                        l12412 0EE5                        l12270 0EB0  
                      l12326 0E77                        l12334 0E63                        l12350 0EC4  
                      l12342 0EBD                        l12414 0EE9                        l12430 06D7  
                      l12422 06C0                        l12272 0EB1                        l12280 0F78  
                      l12328 0E78                        l12336 0E64                        l12352 0EC5  
                      l12344 0EBF                        l12416 0EF6                        l12440 070A  
                      l12432 06E4                        l12424 06C6                        l12600 048C  
                      l12266 0E47                        l12274 0EB2                        l12290 0F9B  
                      l12282 0F7F                        l12338 0E50                        l12354 0EC6  
                      l12346 0EC0                        l12418 0F04                        l12450 073B  
                      l12442 0715                        l12434 06EC                        l12426 06CE  
                      l12610 04C0                        l12602 0496                        l12268 0EA0  
                      l12284 0F83                        l12276 0F65                        l12292 07F5  
                      l12356 0EC7                        l12348 0EC3                        l12444 071D  
                      l12436 06F0                        l12428 06D5                        l11900 0693  
                      l12620 04FB                        l12612 04D1                        l12604 049C  
                      l12700 02C5                        l12286 0F90                        l12278 0F74  
                      l12390 0796                        l12446 0725                        l12438 06FA  
                      l11910 06BF                        l11902 069F                        l12622 050B  
                      l12614 04D5                        l12606 04A7                        l12630 053F  
                      l12710 02E8                        l12702 02CC                        l12288 0F94  
                      l12392 079B                        l12384 073D                        l12448 0737  
                      l11904 06A6                        l12624 050F                        l12616 04E6  
                      l12608 04B4                        l12560 0400                        l12640 0560  
                      l12632 0546                        l12712 02EF                        l12704 02D3  
                      l12720 0305                        l12800 01B2                        l12394 079C  
                      l12386 0790                        l11906 06AA                        l12554 0EC9  
                      l12626 052B                        l12618 04F7                        l12570 041D  
                      l12562 0404                        l12650 059B                        l12642 058D  
                      l12634 0547                        l12714 02F6                        l12706 02DA  
                      l12722 0335                        l12802 01C1                        l12810 01D3  
                      l12730 001C                        l12396 079F                        l12388 0795  
                      l11908 06B6                        l12556 0ECC                        l12580 043A  
                      l12572 0421                        l12564 040A                        l12660 05C5  
                      l12652 05A0                        l12644 058E                        l12636 0558  
                      l12628 052C                        l12724 035C                        l12716 02FD  
                      l12708 02E1                        l12820 0202                        l12812 01D9  
                      l12804 01CC                        l12740 005B                        l12732 003F  
                      l12398 07A0                        l11870 062D                        l12590 045F  
                      l12582 043F                        l12574 0427                        l12566 0415  
                      l12558 03E6                        l12670 05EE                        l12662 05CC  
                      l12654 05A4                        l12646 058F                        l12638 055F  
                      l12726 03E5                        l12718 0304                        l12822 0211  
                      l12814 01E7                        l12806 01CD                        l12750 007A  
                      l12742 005D                        l12734 004D                        l12830 07B9  
                      l11880 0650                        l11872 0636                        l12592 0465  
                      l12584 0441                        l12576 0432                        l12568 041C  
                      l12672 05F6                        l12664 05D1                        l12656 05B5  
                      l12648 0595                        l12680 0F13                        l12824 021B  
                      l12816 01EE                        l12808 01CF                        l12760 00B3  
                      l12752 0080                        l12736 0051                        l12744 0062  
                      l12728 0015                        l12832 07C3                        l11890 066D  
                      l11882 0657                        l11874 0637                        l12594 0470  
                      l12586 0447                        l12578 0436                        l12674 05FD  
                      l12666 05D5                        l12658 05BD                        l12682 0F1C  
                      l12690 02A2                        l12826 0224                        l12818 01F4  
                      l12754 00A3                        l12762 00BD                        l12746 0068  
                      l12770 0104                        l12738 005A                        l12834 07C8  
                      l11892 066F                        l11884 0659                        l11876 0649  
                      l11868 061A                        l12596 047D                        l12588 0455  
                      l12676 0619                        l12668 05E6                        l12684 0F37  
                      l12692 02A9                        l12780 012B                        l12772 010C  
                      l12764 00CC                        l12756 00AE                        l12748 0076  
                      l12836 07E8                        l12828 07B3                        l11886 065D  
                      l11894 0682                        l11878 064A                        l12598 0485  
                      l12678 0F0C                        l12694 02B0                        l12686 024D  
                      l12790 0161                        l12782 012F                        l12774 0111  
                      l12766 00D6                        l12758 00B1                        l11896 0688  
                      l11888 0664                        l12696 02B7                        l12688 029D  
                      l12784 0152                        l12792 016B                        l12776 011F  
                      l12768 00DF                        l11898 0691                        l12698 02BE  
                      l12794 017A                        l12786 015D                        l12778 0125  
                      l12796 0184                        l12788 015F                        l12798 018D  
                      ?_main 0070            ??_Motor_GPIO_Init 0020                        _EEADR 010D  
            __end_of___ftadd 052C                        _CARRY 0018              __end_of___ftmul 061A  
                      _T1CON 0010              __end_of___fttol 06C0                        _T2CON 0012  
                      _RCREG 001A                        _RCSTA 0018                        _TMR1H 000F  
                      _TMR1L 000E                        _SPBRG 0099                        _PORTB 0006  
                      _PORTD 0008                        _TRISB 0086                        _TRISD 0088  
                      _TXREG 0019                        _TXSTA 0098     __size_of_Motor_Speed_Set 003B  
                      _nRBPU 040F                ___awtoft@sign 003B                        _table 00B3  
              ___ftpack@sign 0024                        _putch 07F2               __pbitbssCOMMON 03C8  
                      pclath 000A        Motor_Speed_Set@Speed1 0020        Motor_Speed_Set@Speed2 0022  
                      status 0003                        wtemp0 007E             __end_of_Delay_ms 0EE0  
       __end_of_Encoder_Init 0E6A                 __end_of_main 07F2             ?_Usart_GPIO_Init 0070  
                _Circle_Mode 0065                       ??_main 0063                ___fttol@sign1 0030  
           __end_of_Start_PD 07B3                       _ADCON1 009F               _Timer0_Counter 00A4  
                     _EEDATA 010C                       _CCPR1L 0015                       _CCPR2L 001B  
                     _EECON1 018C                       _EECON2 018D             __end_of___awtoft 0F38  
                     ?_putch 0070             __end_of___ftpack 073D                       i1l8610 0FEC  
                     i1l8602 0FD3                       i1l8611 0FEA                       i1l8603 0FB2  
                     i1l8612 0FF3                       i1l8604 0FBC                       i1l8613 0FF2  
                     i1l8605 0FC6                       i1l8614 0FF5                       i1l8606 0FD1  
                     i1l8607 0FF4                       u400_20 0FE3                       i1l8608 0FDB  
                     i1l8609 0FF4                       u401_20 0FF0                       u401_21 0FEF  
                     u393_20 0FA4                       u393_21 0FA3                       u394_20 0FAE  
                     u394_21 0FAD                       u395_20 0FB8                       u395_21 0FB7  
                     u396_20 0FC2                       u396_21 0FC1                       u397_20 0FCC  
                     u397_21 0FCB                       u398_20 0FD7                       u398_21 0FD6  
                     u399_20 0FDF                       u399_21 0FDE                       _TMR1IE 0460  
                     _TMR1IF 0060                       _TMR2IE 0461                       _TMR2IF 0061  
                     _TMR1ON 0080                       _TMR2ON 0092                       _TRISA0 0428  
                     _TRISA1 0429                       _TRISB0 0430                       _TRISA2 042A  
                     _TRISB1 0431                       _TRISA3 042B                       _TRISC0 0438  
                     _TRISA4 042C                       _TRISC1 0439                       _TRISA5 042D  
                     _TRISC2 043A                       _TRISB4 0434                       _TRISC3 043B  
                     _TRISB5 0435                       _TRISE0 0448                       _TRISC4 043C  
                     _TRISB6 0436                       _TRISE1 0449                       _TRISC5 043D  
                     _TRISB7 0437                       _TRISE2 044A                       _TRISC6 043E  
                     _TRISC7 043F             __end_of_csb_init 0EC9                   _Motor_Flag 00B0  
                  ??_Service 0070                       ___wmul 0EE0                    ??___ftadd 0052  
                  ??___ftmul 0042                    ??___fttol 002C                   _Speed_left 0067  
                 _Trace_Byte 006B                   _Trace_Mode 006C                       clrloop 0E40  
      ___ftmul@f3_as_product 0047           __size_of_Trace_PID 0199                       saved_w 007E  
      __end_of_Trace_Control 024D            ??_Motor_Speed_Set 0024                   _Usart_Init 0E6A  
                 ___ftadd@f1 004C                   ___ftadd@f2 004F                   ___awtoft@c 0036  
                 ___ftmul@f1 003C                   ___ftmul@f2 003F                   ___fttol@f1 0028  
             __pcstackCOMMON 0070                 __pidataBANK0 0003                 __pidataBANK1 0E8D  
              __end_of_putch 0800                    ?_Delay_ms 0020                      ??_putch 0020  
                 __pbssBANK0 0063                   __pbssBANK1 00A0        __size_of_Encoder_Init 000F  
             _err_difference 00A8     __size_of_Trace_GPIO_Init 000B            __end_of_Trace_PID 03E6  
            _Motor_GPIO_Init 0E47                   __pmaintext 07B3                      ?___wmul 0020  
                  ?_Start_PD 0020                   __pintentry 0004                      _CCP1CON 0017  
                    _CCP2CON 001D                    ?___awtoft 0036                    ?___ftpack 0020  
                    i1l11750 0FA4                      i1l11760 0FD1                      i1l11752 0FAE  
                    i1l11770 0FEA                      i1l11762 0FD7                      i1l11754 0FB8  
                    i1l11772 0FF0                      i1l11764 0FD9                      i1l11756 0FC2  
                    i1l11748 0FA0                      i1l11766 0FDF                      i1l11758 0FCC  
                    i1l11768 0FE3                   ??_Delay_ms 0022                 _Encoder_Init 0E5B  
                  ?_csb_init 0070           _Motor_CCP_PWM_Init 0EA0                      _IO_flag 0066  
             _Speed_measure1 00B1               _Speed_measure2 00B2                  ?_Usart_Init 0070  
        ?_Motor_CCP_PWM_Init 0070                      _Key_Val 00AF                      _Service 0FA0  
                    ___ftadd 03E6              __size_of___wmul 002C                   ??_Start_PD 0022  
                    ___ftmul 052C                      ___fttol 061A                   ??___awtoft 0039  
                 ??___ftpack 0025         ??_Motor_CCP_PWM_Init 0020                  _Speed_right 0068  
                 ??_csb_init 0020         end_of_initialization 0F61      __end_of_Motor_GPIO_Init 0E50  
                  _RBIF_FLAG 03C8                    Delay_ms@x 0020                      init_ram 0E7E  
                    putch@ch 0020            ??_Trace_GPIO_Init 0020          __size_of_Usart_Init 0010  
            _Motor_Speed_Set 0F65     __size_of_Usart_GPIO_Init 0005                 _Counter_temp 00A0  
                ___ftmul@exp 0046               __end_of___wmul 0F0C          start_initialization 0F38  
          __size_of_Delay_ms 0017             ?_Motor_GPIO_Init 0070              _Start_Find_flag 0069  
                  _Trace_PID 024D                     ??___wmul 0024      __end_of_Motor_Speed_Set 0FA0  
     __size_of_Trace_Control 0238                  __pdataBANK0 006E                  __pdataBANK1 00B3  
          __size_of_Start_PD 0076            __size_of___awtoft 002C            __size_of___ftpack 007D  
                  _Stop_Flag 006A                  __pbssCOMMON 0075                __pcstackBANK0 0020  
              __pcstackBANK1 00C6            ??_Usart_GPIO_Init 0020            __size_of_csb_init 0015  
               ??_Usart_Init 0020              _Speed_Velcolity 006E                     ?_Service 0070  
                 ?_Trace_PID 0059                     ?___ftadd 004C                    __ptext850 0EE0  
                  __ptext842 0015                    __ptext851 073D                    __ptext843 024D  
                  __ptext860 0E47                    __ptext852 0EB4                    __ptext844 0F0C  
                  __ptext861 0FA0                    __ptext853 0E50                    __ptext845 052C  
                  __ptext862 0000                    __ptext854 0E5B                    __ptext846 03E6  
                  __ptext855 0E6A                    __ptext847 0EC9                    __ptext856 0E3A  
                  __ptext848 061A                    __ptext857 07F2                    __ptext849 06C0  
                  __ptext858 0F65                    __ptext859 0EA0                     ?___ftmul 003C  
                   ?___fttol 0028                    __pstrings 0800                    _bluetooth 0075  
         __end_of_Usart_Init 0E7A                _Trace_Control 0015               __size_of_putch 000E  
          interrupt_function 0004                    _recv_data 0076              _Trace_GPIO_Init 0E50  
             ___wmul@product 0024             ?_Motor_Speed_Set 0020                  __stringbase 0805  
          ___wmul@multiplier 0020  __size_of_Motor_CCP_PWM_Init 0014                     _Delay_ms 0EC9  
             ?_Trace_Control 0070                    init_fetch 0E7A                  ??_Trace_PID 005B  
           __size_of_Service 0060                     _Start_PD 073D             __size_of___ftadd 0146  
           __size_of___ftmul 00EE             __size_of___fttol 00A6                     ___awtoft 0F0C  
                   ___ftpack 06C0                     _Turn_PWM 006D      __end_of_Trace_GPIO_Init 0E5B  
                   _csb_init 0EB4                     _last_err 00AA                __size_of_main 003F  
                   clear_ram 0E3F                     _turn_err 00AC              _Usart_GPIO_Init 0E3A  
              ?_Encoder_Init 0070              ??_Trace_Control 00C6                     intlevel1 0000  
            _Encoder_Counter 0063                    stringcode 0800     __size_of_Motor_GPIO_Init 0009  
                 _OPTION_REG 0081               ??_Encoder_Init 0020                     stringdir 0800  
                   stringtab 0800             ?_Trace_GPIO_Init 0070  
