

HI-TECH Software PIC LITE Macro Assembler V9.82 build 9453 
                                                                                               Wed Jun 19 19:39:12 2024

HI-TECH Software Omniscient Code Generator (Lite mode) build 9453
     1  0000                     opt subtitle "HI-TECH Software Omniscient Code Generator (Lite mode) build 9453"
     2                           
     3                           opt pagewidth 120
     4                           
     5                           	opt lm
     6                           
     7                           	processor	16F877A
     8                           clrc	macro
     9                           	bcf	3,0
    10  0000                     	endm
    11                           clrz	macro
    12                           	bcf	3,2
    13  0000                     	endm
    14                           setc	macro
    15                           	bsf	3,0
    16  0000                     	endm
    17                           setz	macro
    18                           	bsf	3,2
    19  0000                     	endm
    20                           skipc	macro
    21                           	btfss	3,0
    22  0000                     	endm
    23                           skipz	macro
    24                           	btfss	3,2
    25  0000                     	endm
    26                           skipnc	macro
    27                           	btfsc	3,0
    28  0000                     	endm
    29                           skipnz	macro
    30                           	btfsc	3,2
    31  0000                     	endm
    32  0000                     indf	equ	0
    33  0000                     indf0	equ	0
    34  0002                     pc	equ	2
    35  0002                     pcl	equ	2
    36  0003                     status	equ	3
    37  0004                     fsr	equ	4
    38  0004                     fsr0	equ	4
    39  0001                     c	equ	1
    40  0000                     z	equ	0
    41  000A                     pclath	equ	10
    42                           # 2 "D:\6_pic_project\00_Design_Flow_Car\User\Car_demo\Car_demo.c"
    43                           	psect config,class=CONFIG,delta=2 ;#
    44                           # 2 "D:\6_pic_project\00_Design_Flow_Car\User\Car_demo\Car_demo.c"
    45  2007  FF29               	dw 0xFF29 ;#
    46                           	FNCALL	_main,_LCD1602_GPIO_Init
    47                           	FNCALL	_main,_LCD1602_Init
    48                           	FNCALL	_main,_LCD1602_WriteString
    49                           	FNCALL	_main,_Usart_GPIO_Init
    50                           	FNCALL	_main,_Usart_Init
    51                           	FNCALL	_main,_Motor_GPIO_Init
    52                           	FNCALL	_main,_Motor_CCP_PWM_Init
    53                           	FNCALL	_main,_csb_init
    54                           	FNCALL	_main,_Delay_ms
    55                           	FNCALL	_main,_printf
    56                           	FNCALL	_main,_Motor_Speed_Set
    57                           	FNCALL	_main,_Encoder_Init
    58                           	FNCALL	_main,_Start_PD
    59                           	FNCALL	_main,_Trace_PID
    60                           	FNCALL	_Trace_PID,___awtoft
    61                           	FNCALL	_Trace_PID,___ftmul
    62                           	FNCALL	_Trace_PID,___wmul
    63                           	FNCALL	_Trace_PID,___ftadd
    64                           	FNCALL	_Trace_PID,___fttol
    65                           	FNCALL	_LCD1602_WriteString,_LCD1602_WriteCommand
    66                           	FNCALL	_LCD1602_WriteString,_LCD1602_WriteData
    67                           	FNCALL	_LCD1602_Init,_LCD1602_Delay
    68                           	FNCALL	_LCD1602_Init,_LCD1602_WriteCommand
    69                           	FNCALL	___awtoft,___ftpack
    70                           	FNCALL	___ftmul,___ftpack
    71                           	FNCALL	___ftadd,___ftpack
    72                           	FNCALL	_printf,_putch
    73                           	FNCALL	_LCD1602_WriteData,_LCD1602_Delay
    74                           	FNCALL	_LCD1602_WriteCommand,_LCD1602_Delay
    75                           	FNROOT	_main
    76                           	FNCALL	intlevel1,_Service
    77                           	global	intlevel1
    78                           	FNROOT	intlevel1
    79                           	global	_table
    80                           	global	_Kp
    81                           psect	idataBANK1,class=CODE,space=0,delta=2
    82                           global __pidataBANK1
    83  07ED                     __pidataBANK1:
    84                           	file	"D:\6_pic_project\00_Design_Flow_Car\Driver\csb.c"
    85                           	line	9
    86                           
    87                           ;initializer for _table
    88  07ED  3430               	retlw	030h
    89  07EE  3431               	retlw	031h
    90  07EF  3432               	retlw	032h
    91  07F0  3433               	retlw	033h
    92  07F1  3434               	retlw	034h
    93  07F2  3435               	retlw	035h
    94  07F3  3436               	retlw	036h
    95  07F4  3437               	retlw	037h
    96  07F5  3438               	retlw	038h
    97  07F6  3439               	retlw	039h
    98  07F7  3441               	retlw	041h
    99  07F8  3442               	retlw	042h
   100  07F9  3443               	retlw	043h
   101  07FA  3444               	retlw	044h
   102  07FB  3445               	retlw	045h
   103  07FC  3446               	retlw	046h
   104                           	file	"D:\6_pic_project\00_Design_Flow_Car\Driver\pid.c"
   105                           	line	14
   106                           
   107                           ;initializer for _Kp
   108  07FD  34CD               	retlw	0xcd
   109  07FE  344C               	retlw	0x4c
   110  07FF  3440               	retlw	0x40
   111                           
   112                           	global	_Encoder_Counter
   113                           	global	_Turn_PWM
   114                           	global	_Circle_Mode
   115                           	global	_IO_flag
   116                           	global	_Key_Val
   117                           	global	_Speed_left
   118                           	global	_Speed_right
   119                           	global	_Start_Find_flag
   120                           	global	_Stop_Flag
   121                           	global	_Trace_Byte
   122                           	global	_bluetooth
   123                           	global	_mod
   124                           	global	_x
   125                           	global	_y
   126                           	global	_RBIF_FLAG
   127                           	global	_yz
   128                           	global	_Counter_temp
   129                           	global	_Kd
   130                           	global	_PWM
   131                           	global	_PWM1
   132                           	global	_PWM2
   133                           	global	_Speed
   134                           	global	_Speed_Set
   135                           	global	_Timer0_Counter
   136                           	global	_Turn
   137                           	global	_dis
   138                           	global	_distance
   139                           	global	_err_difference
   140                           	global	_last_err
   141                           	global	_odomoter_counter
   142                           	global	_turn_err
   143                           	global	_Bifurcate_Flag
   144                           	global	_KeyNum
   145                           	global	_Motor_Flag
   146                           	global	_Speed_Velcolity
   147                           	global	_Speed_measure1
   148                           	global	_Speed_measure2
   149                           	global	_m
   150                           	global	_CCP1CON
   151  0017                     _CCP1CON	set	23
   152                           	global	_CCP2CON
   153  001D                     _CCP2CON	set	29
   154                           	global	_CCPR1L
   155  0015                     _CCPR1L	set	21
   156                           	global	_CCPR2L
   157  001B                     _CCPR2L	set	27
   158                           	global	_PORTB
   159  0006                     _PORTB	set	6
   160                           	global	_PORTD
   161  0008                     _PORTD	set	8
   162                           	global	_RCREG
   163  001A                     _RCREG	set	26
   164                           	global	_RCSTA
   165  0018                     _RCSTA	set	24
   166                           	global	_T1CON
   167  0010                     _T1CON	set	16
   168                           	global	_T2CON
   169  0012                     _T2CON	set	18
   170                           	global	_TMR0
   171  0001                     _TMR0	set	1
   172                           	global	_TMR1H
   173  000F                     _TMR1H	set	15
   174                           	global	_TMR1L
   175  000E                     _TMR1L	set	14
   176                           	global	_TMR2
   177  0011                     _TMR2	set	17
   178                           	global	_TXREG
   179  0019                     _TXREG	set	25
   180                           	global	_CARRY
   181  0018                     _CARRY	set	24
   182                           	global	_GIE
   183  005F                     _GIE	set	95
   184                           	global	_INTE
   185  005C                     _INTE	set	92
   186                           	global	_INTF
   187  0059                     _INTF	set	89
   188                           	global	_PEIE
   189  005E                     _PEIE	set	94
   190                           	global	_RA0
   191  0028                     _RA0	set	40
   192                           	global	_RA1
   193  0029                     _RA1	set	41
   194                           	global	_RA2
   195  002A                     _RA2	set	42
   196                           	global	_RA3
   197  002B                     _RA3	set	43
   198                           	global	_RA4
   199  002C                     _RA4	set	44
   200                           	global	_RA5
   201  002D                     _RA5	set	45
   202                           	global	_RB4
   203  0034                     _RB4	set	52
   204                           	global	_RB5
   205  0035                     _RB5	set	53
   206                           	global	_RB6
   207  0036                     _RB6	set	54
   208                           	global	_RB7
   209  0037                     _RB7	set	55
   210                           	global	_RBIE
   211  005B                     _RBIE	set	91
   212                           	global	_RBIF
   213  0058                     _RBIF	set	88
   214                           	global	_RC0
   215  0038                     _RC0	set	56
   216                           	global	_RC3
   217  003B                     _RC3	set	59
   218                           	global	_RC4
   219  003C                     _RC4	set	60
   220                           	global	_RC5
   221  003D                     _RC5	set	61
   222                           	global	_RCIF
   223  0065                     _RCIF	set	101
   224                           	global	_RE0
   225  0048                     _RE0	set	72
   226                           	global	_RE1
   227  0049                     _RE1	set	73
   228                           	global	_RE2
   229  004A                     _RE2	set	74
   230                           	global	_T0IE
   231  005D                     _T0IE	set	93
   232                           	global	_T0IF
   233  005A                     _T0IF	set	90
   234                           	global	_TMR1IF
   235  0060                     _TMR1IF	set	96
   236                           	global	_TMR1ON
   237  0080                     _TMR1ON	set	128
   238                           	global	_TMR2IF
   239  0061                     _TMR2IF	set	97
   240                           	global	_TMR2ON
   241  0092                     _TMR2ON	set	146
   242                           	global	_ADCON1
   243  009F                     _ADCON1	set	159
   244                           	global	_OPTION_REG
   245  0081                     _OPTION_REG	set	129
   246                           	global	_PR2
   247  0092                     _PR2	set	146
   248                           	global	_SPBRG
   249  0099                     _SPBRG	set	153
   250                           	global	_TRISB
   251  0086                     _TRISB	set	134
   252                           	global	_TRISD
   253  0088                     _TRISD	set	136
   254                           	global	_TXSTA
   255  0098                     _TXSTA	set	152
   256                           	global	_RCIE
   257  0465                     _RCIE	set	1125
   258                           	global	_TMR1IE
   259  0460                     _TMR1IE	set	1120
   260                           	global	_TMR2IE
   261  0461                     _TMR2IE	set	1121
   262                           	global	_TRISA0
   263  0428                     _TRISA0	set	1064
   264                           	global	_TRISA1
   265  0429                     _TRISA1	set	1065
   266                           	global	_TRISA2
   267  042A                     _TRISA2	set	1066
   268                           	global	_TRISA3
   269  042B                     _TRISA3	set	1067
   270                           	global	_TRISA4
   271  042C                     _TRISA4	set	1068
   272                           	global	_TRISA5
   273  042D                     _TRISA5	set	1069
   274                           	global	_TRISB0
   275  0430                     _TRISB0	set	1072
   276                           	global	_TRISB1
   277  0431                     _TRISB1	set	1073
   278                           	global	_TRISB3
   279  0433                     _TRISB3	set	1075
   280                           	global	_TRISB4
   281  0434                     _TRISB4	set	1076
   282                           	global	_TRISB5
   283  0435                     _TRISB5	set	1077
   284                           	global	_TRISB6
   285  0436                     _TRISB6	set	1078
   286                           	global	_TRISB7
   287  0437                     _TRISB7	set	1079
   288                           	global	_TRISC0
   289  0438                     _TRISC0	set	1080
   290                           	global	_TRISC1
   291  0439                     _TRISC1	set	1081
   292                           	global	_TRISC2
   293  043A                     _TRISC2	set	1082
   294                           	global	_TRISC3
   295  043B                     _TRISC3	set	1083
   296                           	global	_TRISC4
   297  043C                     _TRISC4	set	1084
   298                           	global	_TRISC5
   299  043D                     _TRISC5	set	1085
   300                           	global	_TRISC6
   301  043E                     _TRISC6	set	1086
   302                           	global	_TRISC7
   303  043F                     _TRISC7	set	1087
   304                           	global	_TRISE0
   305  0448                     _TRISE0	set	1096
   306                           	global	_TRISE1
   307  0449                     _TRISE1	set	1097
   308                           	global	_TRISE2
   309  044A                     _TRISE2	set	1098
   310                           	global	_TRMT
   311  04C1                     _TRMT	set	1217
   312                           	global	_nRBPU
   313  040F                     _nRBPU	set	1039
   314                           	global	_EEADR
   315  010D                     _EEADR	set	269
   316                           	global	_EEDATA
   317  010C                     _EEDATA	set	268
   318                           	global	_EECON1
   319  018C                     _EECON1	set	396
   320                           	global	_EECON2
   321  018D                     _EECON2	set	397
   322                           	global	_RD
   323  0C60                     _RD	set	3168
   324                           	global	_WR
   325  0C61                     _WR	set	3169
   326                           	global	_WREN
   327  0C62                     _WREN	set	3170
   328                           psect	strings,class=STRING,delta=2
   329                           global __pstrings
   330  0800                     __pstrings:
   331                           ;	global	stringdir,stringtab,__stringbase
   332  0800                     stringtab:
   333                           ;	String table - string pointers are 1 byte each
   334  0800                     stringcode:stringdir:
      + 0800                     stringdir:	
   335  0800  3008               movlw high(stringdir)
   336  0801  008A               movwf pclath
   337  0802  0804               movf fsr,w
   338  0803  0A84               incf fsr
   339  0804  0782               	addwf pc
   340  0805                     __stringbase:
   341  0805  3400               	retlw	0
   342                           psect	strings
   343                           	
   344  0806                     STR_4:	
   345  0806  34B4               	retlw	-76
   346  0807  34AE               	retlw	-82
   347  0808  34BF               	retlw	-65
   348  0809  34DA               	retlw	-38
   349  080A  34B3               	retlw	-77
   350  080B  34F5               	retlw	-11
   351  080C  34CA               	retlw	-54
   352  080D  34BC               	retlw	-68
   353  080E  34BB               	retlw	-69
   354  080F  34AF               	retlw	-81
   355  0810  34CD               	retlw	-51
   356  0811  34EA               	retlw	-22
   357  0812  34B3               	retlw	-77
   358  0813  34C9               	retlw	-55
   359  0814  3421               	retlw	33	;'!'
   360  0815  340D               	retlw	13
   361  0816  340A               	retlw	10
   362  0817  3400               	retlw	0
   363                           psect	strings
   364                           	
   365  0818                     STR_3:	
   366  0818  3453               	retlw	83	;'S'
   367  0819  3470               	retlw	112	;'p'
   368  081A  3465               	retlw	101	;'e'
   369  081B  3465               	retlw	101	;'e'
   370  081C  3464               	retlw	100	;'d'
   371  081D  343A               	retlw	58	;':'
   372  081E  3400               	retlw	0
   373                           psect	strings
   374                           	
   375  081F                     STR_2:	
   376  081F  3443               	retlw	67	;'C'
   377  0820  3441               	retlw	65	;'A'
   378  0821  3452               	retlw	82	;'R'
   379  0822  3420               	retlw	32	;' '
   380  0823  3431               	retlw	49	;'1'
   381  0824  3400               	retlw	0
   382                           psect	strings
   383                           	
   384  0825                     STR_1:	
   385  0825  3425               	retlw	37	;'%'
   386  0826  3463               	retlw	99	;'c'
   387  0827  3400               	retlw	0
   388                           psect	strings
   389                           	file	"202121365038.as"
   390                           	line	#
   391                           psect cinit,class=CODE,delta=2
   392                           global start_initialization
   393  0E4A                     start_initialization:
   394                           
   395                           psect	bitbssCOMMON,class=COMMON,bit,space=1
   396                           global __pbitbssCOMMON
   397  03C8                     __pbitbssCOMMON:
   398  03C8                     _RBIF_FLAG:
   399  03C8                            ds      1
   400                           
   401                           psect	bssCOMMON,class=COMMON,space=1
   402                           global __pbssCOMMON
   403  0075                     __pbssCOMMON:
   404  0075                     _bluetooth:
   405  0075                            ds      1
   406                           
   407  0076                     _mod:
   408  0076                            ds      1
   409                           
   410  0077                     _x:
   411  0077                            ds      1
   412                           
   413  0078                     _y:
   414  0078                            ds      1
   415                           
   416                           psect	bssBANK0,class=BANK0,space=1
   417                           global __pbssBANK0
   418  0063                     __pbssBANK0:
   419  0063                     _Encoder_Counter:
   420  0063                            ds      2
   421                           
   422  0065                     _Turn_PWM:
   423  0065                            ds      2
   424                           
   425  0067                     _Circle_Mode:
   426  0067                            ds      1
   427                           
   428  0068                     _IO_flag:
   429  0068                            ds      1
   430                           
   431  0069                     _Key_Val:
   432  0069                            ds      1
   433                           
   434  006A                     _Speed_left:
   435  006A                            ds      1
   436                           
   437  006B                     _Speed_right:
   438  006B                            ds      1
   439                           
   440  006C                     _Start_Find_flag:
   441  006C                            ds      1
   442                           
   443  006D                     _Stop_Flag:
   444  006D                            ds      1
   445                           
   446  006E                     _Trace_Byte:
   447  006E                            ds      1
   448                           
   449                           psect	bssBANK1,class=BANK1,space=1
   450                           global __pbssBANK1
   451  00A0                     __pbssBANK1:
   452  00A0                     _yz:
   453  00A0                            ds      8
   454                           
   455  00A8                     _Counter_temp:
   456  00A8                            ds      2
   457                           
   458  00AA                     _Kd:
   459  00AA                            ds      2
   460                           
   461  00AC                     _PWM:
   462  00AC                            ds      2
   463                           
   464  00AE                     _PWM1:
   465  00AE                            ds      2
   466                           
   467  00B0                     _PWM2:
   468  00B0                            ds      2
   469                           
   470  00B2                     _Speed:
   471  00B2                            ds      2
   472                           
   473  00B4                     _Speed_Set:
   474  00B4                            ds      2
   475                           
   476  00B6                     _Timer0_Counter:
   477  00B6                            ds      2
   478                           
   479  00B8                     _Turn:
   480  00B8                            ds      2
   481                           
   482  00BA                     _dis:
   483  00BA                            ds      2
   484                           
   485  00BC                     _distance:
   486  00BC                            ds      2
   487                           
   488  00BE                     _err_difference:
   489  00BE                            ds      2
   490                           
   491  00C0                     _last_err:
   492  00C0                            ds      2
   493                           
   494  00C2                     _odomoter_counter:
   495  00C2                            ds      2
   496                           
   497  00C4                     _turn_err:
   498  00C4                            ds      2
   499                           
   500  00C6                     _Bifurcate_Flag:
   501  00C6                            ds      1
   502                           
   503  00C7                     _KeyNum:
   504  00C7                            ds      1
   505                           
   506  00C8                     _Motor_Flag:
   507  00C8                            ds      1
   508                           
   509  00C9                     _Speed_Velcolity:
   510  00C9                            ds      1
   511                           
   512  00CA                     _Speed_measure1:
   513  00CA                            ds      1
   514                           
   515  00CB                     _Speed_measure2:
   516  00CB                            ds      1
   517                           
   518  00CC                     _m:
   519  00CC                            ds      1
   520                           
   521                           psect	dataBANK1,class=BANK1,space=1
   522                           global __pdataBANK1
   523  00CD                     __pdataBANK1:
   524                           	file	"D:\6_pic_project\00_Design_Flow_Car\Driver\csb.c"
   525                           	line	9
   526  00CD                     _table:
   527  00CD                            ds      16
   528                           
   529                           psect	dataBANK1
   530                           	file	"D:\6_pic_project\00_Design_Flow_Car\Driver\pid.c"
   531                           	line	14
   532  00DD                     _Kp:
   533  00DD                            ds      3
   534                           
   535                           psect clrtext,class=CODE,delta=2
   536                           global clear_ram
   537                           ;	Called with FSR containing the base address, and
   538                           ;	W with the last address+1
   539  0D4B                     clear_ram:
   540  0D4B  0064               	clrwdt			;clear the watchdog before getting into this loop
   541  0D4C                     clrloop:
   542  0D4C  0180               	clrf	indf		;clear RAM location pointed to by FSR
   543  0D4D  0A84               	incf	fsr,f		;increment pointer
   544  0D4E  0604               	xorwf	fsr,w		;XOR with final address
   545  0D4F  1903               	btfsc	status,2	;have we reached the end yet?
   546  0D50  3400               	retlw	0		;all done for this memory range, return
   547  0D51  0604               	xorwf	fsr,w		;XOR again to restore value
   548  0D52  2D4C               	goto	clrloop		;do the next byte
   549                           
   550                           ; Clear objects allocated to BITCOMMON
   551                           psect cinit,class=CODE,delta=2
   552  0E4A  01F9               	clrf	((__pbitbssCOMMON/8)+0)&07Fh
   553                           ; Clear objects allocated to COMMON
   554                           psect cinit,class=CODE,delta=2
   555  0E4B  01F5               	clrf	((__pbssCOMMON)+0)&07Fh
   556  0E4C  01F6               	clrf	((__pbssCOMMON)+1)&07Fh
   557  0E4D  01F7               	clrf	((__pbssCOMMON)+2)&07Fh
   558  0E4E  01F8               	clrf	((__pbssCOMMON)+3)&07Fh
   559                           ; Clear objects allocated to BANK0
   560                           psect cinit,class=CODE,delta=2
   561  0E4F  1383               	bcf	status, 7	;select IRP bank0
   562  0E50  3063               	movlw	low(__pbssBANK0)
   563  0E51  0084               	movwf	fsr
   564  0E52  306F               	movlw	low((__pbssBANK0)+0Ch)
   565  0E53  120A  158A  254B   	fcall	clear_ram
              120A  158A         
   566                           ; Clear objects allocated to BANK1
   567                           psect cinit,class=CODE,delta=2
   568  0E58  30A0               	movlw	low(__pbssBANK1)
   569  0E59  0084               	movwf	fsr
   570  0E5A  30CD               	movlw	low((__pbssBANK1)+02Dh)
   571  0E5B  120A  158A  254B   	fcall	clear_ram
              120A  158A         
   572                           global btemp
   573                           psect inittext,class=CODE,delta=2
   574                           global init_fetch,btemp
   575                           ;	Called with low address in FSR and high address in W
   576  0DB4                     init_fetch:
   577  0DB4  087E               	movf btemp,w
   578  0DB5  008A               	movwf pclath
   579  0DB6  087F               	movf btemp+1,w
   580  0DB7  0082               	movwf pc
   581                           global init_ram
   582                           ;Called with:
   583                           ;	high address of idata address in btemp 
   584                           ;	low address of idata address in btemp+1 
   585                           ;	low address of data in FSR
   586                           ;	high address + 1 of data in btemp-1
   587  0DB8                     init_ram:
   588  0DB8  120A  158A  25B4   	fcall init_fetch
              120A  158A         
   589  0DBD  0080               	movwf indf,f
   590  0DBE  0A84               	incf fsr,f
   591  0DBF  0804               	movf fsr,w
   592  0DC0  067D               	xorwf btemp-1,w
   593  0DC1  1903               	btfsc status,2
   594  0DC2  3400               	retlw 0
   595  0DC3  0AFF               	incf btemp+1,f
   596  0DC4  1903               	btfsc status,2
   597  0DC5  0AFE               	incf btemp,f
   598  0DC6  2DB8               	goto init_ram
   599                           ; Initialize objects allocated to BANK1
   600                           psect cinit,class=CODE,delta=2
   601                           global init_ram, __pidataBANK1
   602  0E60  30E0               	movlw low(__pdataBANK1+19)
   603  0E61  00FD               	movwf btemp-1,f
   604  0E62  3007               	movlw high(__pidataBANK1)
   605  0E63  00FE               	movwf btemp,f
   606  0E64  30ED               	movlw low(__pidataBANK1)
   607  0E65  00FF               	movwf btemp+1,f
   608  0E66  30CD               	movlw low(__pdataBANK1)
   609  0E67  0084               	movwf fsr,f
   610  0E68  120A  158A  25B8   	fcall init_ram
              120A  158A         
   611                           psect cinit,class=CODE,delta=2
   612                           global end_of_initialization
   613                           
   614                           ;End of C runtime variable initialization code
   615                           
   616  0E6D                     end_of_initialization:
   617  0E6D  0183               clrf status
   618  0E6E  120A  118A  2815   ljmp _main	;jump to C main() function
   619                           psect	cstackBANK1,class=BANK1,space=1
   620                           global __pcstackBANK1
   621  00E0                     __pcstackBANK1:
   622                           	global	??_main
   623  00E0                     ??_main:	; 0 bytes @ 0x0
   624  00E0                     	ds	4
   625                           psect	cstackCOMMON,class=COMMON,space=1
   626                           global __pcstackCOMMON
   627  0070                     __pcstackCOMMON:
   628                           	global	?_LCD1602_Delay
   629  0070                     ?_LCD1602_Delay:	; 0 bytes @ 0x0
   630                           	global	?_LCD1602_WriteCommand
   631  0070                     ?_LCD1602_WriteCommand:	; 0 bytes @ 0x0
   632                           	global	?_LCD1602_WriteData
   633  0070                     ?_LCD1602_WriteData:	; 0 bytes @ 0x0
   634                           	global	?_LCD1602_Init
   635  0070                     ?_LCD1602_Init:	; 0 bytes @ 0x0
   636                           	global	?_LCD1602_GPIO_Init
   637  0070                     ?_LCD1602_GPIO_Init:	; 0 bytes @ 0x0
   638                           	global	?_Motor_GPIO_Init
   639  0070                     ?_Motor_GPIO_Init:	; 0 bytes @ 0x0
   640                           	global	?_Motor_CCP_PWM_Init
   641  0070                     ?_Motor_CCP_PWM_Init:	; 0 bytes @ 0x0
   642                           	global	?_putch
   643  0070                     ?_putch:	; 0 bytes @ 0x0
   644                           	global	?_Usart_GPIO_Init
   645  0070                     ?_Usart_GPIO_Init:	; 0 bytes @ 0x0
   646                           	global	?_Usart_Init
   647  0070                     ?_Usart_Init:	; 0 bytes @ 0x0
   648                           	global	?_Encoder_Init
   649  0070                     ?_Encoder_Init:	; 0 bytes @ 0x0
   650                           	global	?_csb_init
   651  0070                     ?_csb_init:	; 0 bytes @ 0x0
   652                           	global	?_Service
   653  0070                     ?_Service:	; 0 bytes @ 0x0
   654                           	global	??_Service
   655  0070                     ??_Service:	; 0 bytes @ 0x0
   656                           	global	?_main
   657  0070                     ?_main:	; 0 bytes @ 0x0
   658  0070                     	ds	5
   659                           psect	cstackBANK0,class=BANK0,space=1
   660                           global __pcstackBANK0
   661  0020                     __pcstackBANK0:
   662                           	global	??_LCD1602_Delay
   663  0020                     ??_LCD1602_Delay:	; 0 bytes @ 0x0
   664                           	global	??_LCD1602_GPIO_Init
   665  0020                     ??_LCD1602_GPIO_Init:	; 0 bytes @ 0x0
   666                           	global	??_Motor_GPIO_Init
   667  0020                     ??_Motor_GPIO_Init:	; 0 bytes @ 0x0
   668                           	global	??_Motor_CCP_PWM_Init
   669  0020                     ??_Motor_CCP_PWM_Init:	; 0 bytes @ 0x0
   670                           	global	?_Motor_Speed_Set
   671  0020                     ?_Motor_Speed_Set:	; 0 bytes @ 0x0
   672                           	global	??_putch
   673  0020                     ??_putch:	; 0 bytes @ 0x0
   674                           	global	??_Usart_GPIO_Init
   675  0020                     ??_Usart_GPIO_Init:	; 0 bytes @ 0x0
   676                           	global	??_Usart_Init
   677  0020                     ??_Usart_Init:	; 0 bytes @ 0x0
   678                           	global	?_Delay_ms
   679  0020                     ?_Delay_ms:	; 0 bytes @ 0x0
   680                           	global	??_Encoder_Init
   681  0020                     ??_Encoder_Init:	; 0 bytes @ 0x0
   682                           	global	??_csb_init
   683  0020                     ??_csb_init:	; 0 bytes @ 0x0
   684                           	global	?_Start_PD
   685  0020                     ?_Start_PD:	; 2 bytes @ 0x0
   686                           	global	?___wmul
   687  0020                     ?___wmul:	; 2 bytes @ 0x0
   688                           	global	?___ftpack
   689  0020                     ?___ftpack:	; 3 bytes @ 0x0
   690                           	global	putch@ch
   691  0020                     putch@ch:	; 1 bytes @ 0x0
   692                           	global	LCD1602_Delay@i
   693  0020                     LCD1602_Delay@i:	; 2 bytes @ 0x0
   694                           	global	Motor_Speed_Set@Speed1
   695  0020                     Motor_Speed_Set@Speed1:	; 2 bytes @ 0x0
   696                           	global	Delay_ms@x
   697  0020                     Delay_ms@x:	; 2 bytes @ 0x0
   698                           	global	___wmul@multiplier
   699  0020                     ___wmul@multiplier:	; 2 bytes @ 0x0
   700                           	global	___ftpack@arg
   701  0020                     ___ftpack@arg:	; 3 bytes @ 0x0
   702  0020                     	ds	1
   703                           	global	?_printf
   704  0021                     ?_printf:	; 2 bytes @ 0x1
   705  0021                     	ds	1
   706                           	global	??_LCD1602_WriteCommand
   707  0022                     ??_LCD1602_WriteCommand:	; 0 bytes @ 0x2
   708                           	global	??_LCD1602_WriteData
   709  0022                     ??_LCD1602_WriteData:	; 0 bytes @ 0x2
   710                           	global	??_Delay_ms
   711  0022                     ??_Delay_ms:	; 0 bytes @ 0x2
   712                           	global	??_Start_PD
   713  0022                     ??_Start_PD:	; 0 bytes @ 0x2
   714                           	global	LCD1602_WriteCommand@Command
   715  0022                     LCD1602_WriteCommand@Command:	; 1 bytes @ 0x2
   716                           	global	LCD1602_WriteData@Data
   717  0022                     LCD1602_WriteData@Data:	; 1 bytes @ 0x2
   718                           	global	Motor_Speed_Set@Speed2
   719  0022                     Motor_Speed_Set@Speed2:	; 2 bytes @ 0x2
   720                           	global	___wmul@multiplicand
   721  0022                     ___wmul@multiplicand:	; 2 bytes @ 0x2
   722  0022                     	ds	1
   723                           	global	??_printf
   724  0023                     ??_printf:	; 0 bytes @ 0x3
   725                           	global	??_LCD1602_Init
   726  0023                     ??_LCD1602_Init:	; 0 bytes @ 0x3
   727                           	global	?_LCD1602_WriteString
   728  0023                     ?_LCD1602_WriteString:	; 0 bytes @ 0x3
   729                           	global	LCD1602_WriteString@column
   730  0023                     LCD1602_WriteString@column:	; 1 bytes @ 0x3
   731                           	global	___ftpack@exp
   732  0023                     ___ftpack@exp:	; 1 bytes @ 0x3
   733  0023                     	ds	1
   734                           	global	??_Motor_Speed_Set
   735  0024                     ??_Motor_Speed_Set:	; 0 bytes @ 0x4
   736                           	global	??___wmul
   737  0024                     ??___wmul:	; 0 bytes @ 0x4
   738                           	global	LCD1602_WriteString@String
   739  0024                     LCD1602_WriteString@String:	; 1 bytes @ 0x4
   740                           	global	printf@flag
   741  0024                     printf@flag:	; 1 bytes @ 0x4
   742                           	global	___ftpack@sign
   743  0024                     ___ftpack@sign:	; 1 bytes @ 0x4
   744                           	global	___wmul@product
   745  0024                     ___wmul@product:	; 2 bytes @ 0x4
   746  0024                     	ds	1
   747                           	global	??___ftpack
   748  0025                     ??___ftpack:	; 0 bytes @ 0x5
   749                           	global	??_LCD1602_WriteString
   750  0025                     ??_LCD1602_WriteString:	; 0 bytes @ 0x5
   751                           	global	printf@ap
   752  0025                     printf@ap:	; 1 bytes @ 0x5
   753  0025                     	ds	1
   754                           	global	LCD1602_WriteString@Location
   755  0026                     LCD1602_WriteString@Location:	; 1 bytes @ 0x6
   756                           	global	printf@f
   757  0026                     printf@f:	; 1 bytes @ 0x6
   758  0026                     	ds	1
   759                           	global	LCD1602_WriteString@row
   760  0027                     LCD1602_WriteString@row:	; 1 bytes @ 0x7
   761                           	global	printf@c
   762  0027                     printf@c:	; 1 bytes @ 0x7
   763  0027                     	ds	1
   764                           	global	?___fttol
   765  0028                     ?___fttol:	; 4 bytes @ 0x8
   766                           	global	___fttol@f1
   767  0028                     ___fttol@f1:	; 3 bytes @ 0x8
   768  0028                     	ds	2
   769                           	global	Start_PD@Trace_Mode
   770  002A                     Start_PD@Trace_Mode:	; 1 bytes @ 0xA
   771  002A                     	ds	2
   772                           	global	??___fttol
   773  002C                     ??___fttol:	; 0 bytes @ 0xC
   774  002C                     	ds	4
   775                           	global	___fttol@sign1
   776  0030                     ___fttol@sign1:	; 1 bytes @ 0x10
   777  0030                     	ds	1
   778                           	global	___fttol@lval
   779  0031                     ___fttol@lval:	; 4 bytes @ 0x11
   780  0031                     	ds	4
   781                           	global	___fttol@exp1
   782  0035                     ___fttol@exp1:	; 1 bytes @ 0x15
   783  0035                     	ds	1
   784                           	global	?___awtoft
   785  0036                     ?___awtoft:	; 3 bytes @ 0x16
   786                           	global	___awtoft@c
   787  0036                     ___awtoft@c:	; 2 bytes @ 0x16
   788  0036                     	ds	3
   789                           	global	??___awtoft
   790  0039                     ??___awtoft:	; 0 bytes @ 0x19
   791  0039                     	ds	2
   792                           	global	___awtoft@sign
   793  003B                     ___awtoft@sign:	; 1 bytes @ 0x1B
   794  003B                     	ds	1
   795                           	global	?___ftmul
   796  003C                     ?___ftmul:	; 3 bytes @ 0x1C
   797                           	global	___ftmul@f1
   798  003C                     ___ftmul@f1:	; 3 bytes @ 0x1C
   799  003C                     	ds	3
   800                           	global	___ftmul@f2
   801  003F                     ___ftmul@f2:	; 3 bytes @ 0x1F
   802  003F                     	ds	3
   803                           	global	??___ftmul
   804  0042                     ??___ftmul:	; 0 bytes @ 0x22
   805  0042                     	ds	4
   806                           	global	___ftmul@exp
   807  0046                     ___ftmul@exp:	; 1 bytes @ 0x26
   808  0046                     	ds	1
   809                           	global	___ftmul@f3_as_product
   810  0047                     ___ftmul@f3_as_product:	; 3 bytes @ 0x27
   811  0047                     	ds	3
   812                           	global	___ftmul@cntr
   813  004A                     ___ftmul@cntr:	; 1 bytes @ 0x2A
   814  004A                     	ds	1
   815                           	global	___ftmul@sign
   816  004B                     ___ftmul@sign:	; 1 bytes @ 0x2B
   817  004B                     	ds	1
   818                           	global	?___ftadd
   819  004C                     ?___ftadd:	; 3 bytes @ 0x2C
   820                           	global	___ftadd@f1
   821  004C                     ___ftadd@f1:	; 3 bytes @ 0x2C
   822  004C                     	ds	3
   823                           	global	___ftadd@f2
   824  004F                     ___ftadd@f2:	; 3 bytes @ 0x2F
   825  004F                     	ds	3
   826                           	global	??___ftadd
   827  0052                     ??___ftadd:	; 0 bytes @ 0x32
   828  0052                     	ds	4
   829                           	global	___ftadd@sign
   830  0056                     ___ftadd@sign:	; 1 bytes @ 0x36
   831  0056                     	ds	1
   832                           	global	___ftadd@exp2
   833  0057                     ___ftadd@exp2:	; 1 bytes @ 0x37
   834  0057                     	ds	1
   835                           	global	___ftadd@exp1
   836  0058                     ___ftadd@exp1:	; 1 bytes @ 0x38
   837  0058                     	ds	1
   838                           	global	?_Trace_PID
   839  0059                     ?_Trace_PID:	; 2 bytes @ 0x39
   840  0059                     	ds	2
   841                           	global	??_Trace_PID
   842  005B                     ??_Trace_PID:	; 0 bytes @ 0x3B
   843  005B                     	ds	8
   844 ;;Data sizes: Strings 34, constant 0, data 19, bss 61, persistent 0 stack 0
   845 ;;Auto spaces:   Size  Autos    Used
   846 ;; COMMON          14      5      10
   847 ;; BANK0           80     67      79
   848 ;; BANK1           80      4      68
   849 ;; BANK3           96      0       0
   850 ;; BANK2           96      0       0
   851                           
   852 ;;
   853 ;; Pointer list with targets:
   854                           
   855 ;; ?___ftpack	float  size(1) Largest target is 0
   856 ;;
   857 ;; ?_Trace_PID	int  size(1) Largest target is 0
   858 ;;
   859 ;; ?___fttol	long  size(1) Largest target is 0
   860 ;;
   861 ;; ?___ftmul	float  size(1) Largest target is 0
   862 ;;
   863 ;; ?___wmul	unsigned int  size(1) Largest target is 0
   864 ;;
   865 ;; ?___ftadd	float  size(1) Largest target is 0
   866 ;;
   867 ;; ?___awtoft	float  size(1) Largest target is 0
   868 ;;
   869 ;; printf@f	PTR const unsigned char  size(1) Largest target is 18
   870 ;;		 -> STR_4(CODE[18]), STR_1(CODE[3]), 
   871 ;;
   872 ;; ?_printf	int  size(1) Largest target is 0
   873 ;;
   874 ;; printf@ap	PTR void [1] size(1) Largest target is 2
   875 ;;		 -> ?_printf(BANK0[2]), 
   876 ;;
   877 ;; S12139$_cp	PTR const unsigned char  size(1) Largest target is 0
   878 ;;
   879 ;; _val._str._cp	PTR const unsigned char  size(1) Largest target is 0
   880 ;;
   881 ;; LCD1602_WriteString@String	PTR unsigned char  size(1) Largest target is 7
   882 ;;		 -> STR_3(CODE[7]), STR_2(CODE[6]), 
   883 ;;
   884                           
   885                           
   886 ;;
   887 ;; Critical Paths under _main in COMMON
   888 ;;
   889 ;;   None.
   890 ;;
   891 ;; Critical Paths under _Service in COMMON
   892 ;;
   893 ;;   None.
   894 ;;
   895 ;; Critical Paths under _main in BANK0
   896 ;;
   897 ;;   _main->_Trace_PID
   898 ;;   _Trace_PID->___ftadd
   899 ;;   _LCD1602_WriteString->_LCD1602_WriteCommand
   900 ;;   _LCD1602_WriteString->_LCD1602_WriteData
   901 ;;   _LCD1602_Init->_LCD1602_WriteCommand
   902 ;;   ___awtoft->___fttol
   903 ;;   ___ftmul->___awtoft
   904 ;;   ___ftadd->___ftmul
   905 ;;   _printf->_putch
   906 ;;   _LCD1602_WriteData->_LCD1602_Delay
   907 ;;   _LCD1602_WriteCommand->_LCD1602_Delay
   908 ;;   ___fttol->___ftpack
   909 ;;
   910 ;; Critical Paths under _Service in BANK0
   911 ;;
   912 ;;   None.
   913 ;;
   914 ;; Critical Paths under _main in BANK1
   915 ;;
   916 ;;   None.
   917 ;;
   918 ;; Critical Paths under _Service in BANK1
   919 ;;
   920 ;;   None.
   921 ;;
   922 ;; Critical Paths under _main in BANK3
   923 ;;
   924 ;;   None.
   925 ;;
   926 ;; Critical Paths under _Service in BANK3
   927 ;;
   928 ;;   None.
   929 ;;
   930 ;; Critical Paths under _main in BANK2
   931 ;;
   932 ;;   None.
   933 ;;
   934 ;; Critical Paths under _Service in BANK2
   935 ;;
   936 ;;   None.
   937                           
   938 ;;
   939 ;;Main: autosize = 0, tempsize = 4, incstack = 0, save=0
   940 ;;
   941                           
   942 ;;
   943 ;;Call Graph Tables:
   944 ;;
   945 ;; ---------------------------------------------------------------------------------
   946 ;; (Depth) Function   	        Calls       Base Space   Used Autos Params    Refs
   947 ;; ---------------------------------------------------------------------------------
   948 ;; (0) _main                                                 4     4      0    4247
   949 ;;                                              0 BANK1      4     4      0
   950 ;;                  _LCD1602_GPIO_Init
   951 ;;                       _LCD1602_Init
   952 ;;                _LCD1602_WriteString
   953 ;;                    _Usart_GPIO_Init
   954 ;;                         _Usart_Init
   955 ;;                    _Motor_GPIO_Init
   956 ;;                 _Motor_CCP_PWM_Init
   957 ;;                           _csb_init
   958 ;;                           _Delay_ms
   959 ;;                             _printf
   960 ;;                    _Motor_Speed_Set
   961 ;;                       _Encoder_Init
   962 ;;                           _Start_PD
   963 ;;                          _Trace_PID
   964 ;; ---------------------------------------------------------------------------------
   965 ;; (1) _Trace_PID                                           10     8      2    3170
   966 ;;                                             57 BANK0     10     8      2
   967 ;;                           ___awtoft
   968 ;;                            ___ftmul
   969 ;;                             ___wmul
   970 ;;                            ___ftadd
   971 ;;                            ___fttol
   972 ;; ---------------------------------------------------------------------------------
   973 ;; (1) _LCD1602_WriteString                                  5     3      2     424
   974 ;;                                              3 BANK0      5     3      2
   975 ;;               _LCD1602_WriteCommand
   976 ;;                  _LCD1602_WriteData
   977 ;; ---------------------------------------------------------------------------------
   978 ;; (1) _LCD1602_Init                                         0     0      0     167
   979 ;;                      _LCD1602_Delay
   980 ;;               _LCD1602_WriteCommand
   981 ;; ---------------------------------------------------------------------------------
   982 ;; (2) ___awtoft                                             6     3      3     445
   983 ;;                                             22 BANK0      6     3      3
   984 ;;                           ___ftpack
   985 ;;                             ___wmul (ARG)
   986 ;;                            ___fttol (ARG)
   987 ;; ---------------------------------------------------------------------------------
   988 ;; (2) ___ftmul                                             16    10      6     800
   989 ;;                                             28 BANK0     16    10      6
   990 ;;                           ___ftpack
   991 ;;                           ___awtoft (ARG)
   992 ;;                            ___fttol (ARG)
   993 ;; ---------------------------------------------------------------------------------
   994 ;; (2) ___ftadd                                             13     7      6    1537
   995 ;;                                             44 BANK0     13     7      6
   996 ;;                           ___ftpack
   997 ;;                            ___ftmul (ARG)
   998 ;;                           ___awtoft (ARG)
   999 ;;                             ___wmul (ARG)
  1000 ;;                            ___fttol (ARG)
  1001 ;; ---------------------------------------------------------------------------------
  1002 ;; (1) _Delay_ms                                             2     0      2      31
  1003 ;;                                              0 BANK0      2     0      2
  1004 ;; ---------------------------------------------------------------------------------
  1005 ;; (1) _printf                                              12    10      2     235
  1006 ;;                                              1 BANK0      7     5      2
  1007 ;;                              _putch
  1008 ;; ---------------------------------------------------------------------------------
  1009 ;; (2) _LCD1602_WriteData                                    1     1      0      99
  1010 ;;                                              2 BANK0      1     1      0
  1011 ;;                      _LCD1602_Delay
  1012 ;; ---------------------------------------------------------------------------------
  1013 ;; (2) _LCD1602_WriteCommand                                 1     1      0      99
  1014 ;;                                              2 BANK0      1     1      0
  1015 ;;                      _LCD1602_Delay
  1016 ;; ---------------------------------------------------------------------------------
  1017 ;; (2) ___fttol                                             14    10      4     252
  1018 ;;                                              8 BANK0     14    10      4
  1019 ;;                           ___ftpack (ARG)
  1020 ;;                             ___wmul (ARG)
  1021 ;; ---------------------------------------------------------------------------------
  1022 ;; (3) ___ftpack                                             8     3      5     312
  1023 ;;                                              0 BANK0      8     3      5
  1024 ;; ---------------------------------------------------------------------------------
  1025 ;; (2) ___wmul                                               6     2      4     136
  1026 ;;                                              0 BANK0      6     2      4
  1027 ;; ---------------------------------------------------------------------------------
  1028 ;; (1) _Start_PD                                            11     9      2      34
  1029 ;;                                              0 BANK0     11     9      2
  1030 ;; ---------------------------------------------------------------------------------
  1031 ;; (1) _csb_init                                             0     0      0       0
  1032 ;; ---------------------------------------------------------------------------------
  1033 ;; (1) _Encoder_Init                                         0     0      0       0
  1034 ;; ---------------------------------------------------------------------------------
  1035 ;; (1) _Usart_Init                                           0     0      0       0
  1036 ;; ---------------------------------------------------------------------------------
  1037 ;; (1) _Usart_GPIO_Init                                      0     0      0       0
  1038 ;; ---------------------------------------------------------------------------------
  1039 ;; (2) _putch                                                1     1      0      31
  1040 ;;                                              0 BANK0      1     1      0
  1041 ;; ---------------------------------------------------------------------------------
  1042 ;; (1) _Motor_Speed_Set                                      4     0      4     186
  1043 ;;                                              0 BANK0      4     0      4
  1044 ;; ---------------------------------------------------------------------------------
  1045 ;; (1) _Motor_CCP_PWM_Init                                   0     0      0       0
  1046 ;; ---------------------------------------------------------------------------------
  1047 ;; (1) _Motor_GPIO_Init                                      0     0      0       0
  1048 ;; ---------------------------------------------------------------------------------
  1049 ;; (1) _LCD1602_GPIO_Init                                    0     0      0       0
  1050 ;; ---------------------------------------------------------------------------------
  1051 ;; (3) _LCD1602_Delay                                        2     2      0      68
  1052 ;;                                              0 BANK0      2     2      0
  1053 ;; ---------------------------------------------------------------------------------
  1054 ;; Estimated maximum stack depth 3
  1055 ;; ---------------------------------------------------------------------------------
  1056 ;; (Depth) Function   	        Calls       Base Space   Used Autos Params    Refs
  1057 ;; ---------------------------------------------------------------------------------
  1058 ;; (4) _Service                                              5     5      0       0
  1059 ;;                                              0 COMMON     5     5      0
  1060 ;; ---------------------------------------------------------------------------------
  1061 ;; Estimated maximum stack depth 4
  1062 ;; ---------------------------------------------------------------------------------
  1063                           
  1064 ;; Call Graph Graphs:
  1065                           
  1066 ;; _main (ROOT)
  1067 ;;   _LCD1602_GPIO_Init
  1068 ;;   _LCD1602_Init
  1069 ;;     _LCD1602_Delay
  1070 ;;     _LCD1602_WriteCommand
  1071 ;;       _LCD1602_Delay
  1072 ;;   _LCD1602_WriteString
  1073 ;;     _LCD1602_WriteCommand
  1074 ;;       _LCD1602_Delay
  1075 ;;     _LCD1602_WriteData
  1076 ;;       _LCD1602_Delay
  1077 ;;   _Usart_GPIO_Init
  1078 ;;   _Usart_Init
  1079 ;;   _Motor_GPIO_Init
  1080 ;;   _Motor_CCP_PWM_Init
  1081 ;;   _csb_init
  1082 ;;   _Delay_ms
  1083 ;;   _printf
  1084 ;;     _putch
  1085 ;;   _Motor_Speed_Set
  1086 ;;   _Encoder_Init
  1087 ;;   _Start_PD
  1088 ;;   _Trace_PID
  1089 ;;     ___awtoft
  1090 ;;       ___ftpack
  1091 ;;       ___wmul (ARG)
  1092 ;;       ___fttol (ARG)
  1093 ;;         ___ftpack (ARG)
  1094 ;;         ___wmul (ARG)
  1095 ;;     ___ftmul
  1096 ;;       ___ftpack
  1097 ;;       ___awtoft (ARG)
  1098 ;;         ___ftpack
  1099 ;;         ___wmul (ARG)
  1100 ;;         ___fttol (ARG)
  1101 ;;           ___ftpack (ARG)
  1102 ;;           ___wmul (ARG)
  1103 ;;       ___fttol (ARG)
  1104 ;;         ___ftpack (ARG)
  1105 ;;         ___wmul (ARG)
  1106 ;;     ___wmul
  1107 ;;     ___ftadd
  1108 ;;       ___ftpack
  1109 ;;       ___ftmul (ARG)
  1110 ;;         ___ftpack
  1111 ;;         ___awtoft (ARG)
  1112 ;;           ___ftpack
  1113 ;;           ___wmul (ARG)
  1114 ;;           ___fttol (ARG)
  1115 ;;             ___ftpack (ARG)
  1116 ;;             ___wmul (ARG)
  1117 ;;         ___fttol (ARG)
  1118 ;;           ___ftpack (ARG)
  1119 ;;           ___wmul (ARG)
  1120 ;;       ___awtoft (ARG)
  1121 ;;         ___ftpack
  1122 ;;         ___wmul (ARG)
  1123 ;;         ___fttol (ARG)
  1124 ;;           ___ftpack (ARG)
  1125 ;;           ___wmul (ARG)
  1126 ;;       ___wmul (ARG)
  1127 ;;       ___fttol (ARG)
  1128 ;;         ___ftpack (ARG)
  1129 ;;         ___wmul (ARG)
  1130 ;;     ___fttol
  1131 ;;       ___ftpack (ARG)
  1132 ;;       ___wmul (ARG)
  1133 ;;
  1134 ;; _Service (ROOT)
  1135 ;;
  1136                           
  1137 ;; Address spaces:
  1138                           
  1139 ;;Name               Size   Autos  Total    Cost      Usage
  1140 ;;BANK3               60      0       0       9        0.0%
  1141 ;;BITBANK3            60      0       0       8        0.0%
  1142 ;;SFR3                 0      0       0       4        0.0%
  1143 ;;BITSFR3              0      0       0       4        0.0%
  1144 ;;BANK2               60      0       0      11        0.0%
  1145 ;;BITBANK2            60      0       0      10        0.0%
  1146 ;;SFR2                 0      0       0       5        0.0%
  1147 ;;BITSFR2              0      0       0       5        0.0%
  1148 ;;SFR1                 0      0       0       2        0.0%
  1149 ;;BITSFR1              0      0       0       2        0.0%
  1150 ;;BANK1               50      4      44       7       85.0%
  1151 ;;BITBANK1            50      0       0       6        0.0%
  1152 ;;CODE                 0      0       0       0        0.0%
  1153 ;;DATA                 0      0      A0      12        0.0%
  1154 ;;ABS                  0      0      9D       3        0.0%
  1155 ;;NULL                 0      0       0       0        0.0%
  1156 ;;STACK                0      0       3       2        0.0%
  1157 ;;BANK0               50     43      4F       5       98.8%
  1158 ;;BITBANK0            50      0       0       4        0.0%
  1159 ;;SFR0                 0      0       0       1        0.0%
  1160 ;;BITSFR0              0      0       0       1        0.0%
  1161 ;;COMMON               E      5       A       1       71.4%
  1162 ;;BITCOMMON            E      0       1       0        7.1%
  1163 ;;EEDATA             100      0       0       0        0.0%
  1164                           
  1165                           	global	_main
  1166                           psect	maintext,global,class=CODE,delta=2
  1167                           global __pmaintext
  1168  0015                     __pmaintext:
  1169                           
  1170 ;; *************** function _main *****************
  1171 ;; Defined at:
  1172 ;;		line 129 in file "D:\6_pic_project\00_Design_Flow_Car\User\Car_demo\Car_demo.c"
  1173 ;; Parameters:    Size  Location     Type
  1174 ;;		None
  1175 ;; Auto vars:     Size  Location     Type
  1176 ;;		None
  1177 ;; Return value:  Size  Location     Type
  1178 ;;		None               void
  1179 ;; Registers used:
  1180 ;;		wreg, fsr0l, fsr0h, status,2, status,0, btemp+1, pclath, cstack
  1181 ;; Tracked objects:
  1182 ;;		On entry : 17F/0
  1183 ;;		On exit  : 0/0
  1184 ;;		Unchanged: 0/0
  1185 ;; Data sizes:     COMMON   BANK0   BANK1   BANK3   BANK2
  1186 ;;      Params:         0       0       0       0       0
  1187 ;;      Locals:         0       0       0       0       0
  1188 ;;      Temps:          0       0       4       0       0
  1189 ;;      Totals:         0       0       4       0       0
  1190 ;;Total ram usage:        4 bytes
  1191 ;; Hardware stack levels required when called:    4
  1192 ;; This function calls:
  1193 ;;		_LCD1602_GPIO_Init
  1194 ;;		_LCD1602_Init
  1195 ;;		_LCD1602_WriteString
  1196 ;;		_Usart_GPIO_Init
  1197 ;;		_Usart_Init
  1198 ;;		_Motor_GPIO_Init
  1199 ;;		_Motor_CCP_PWM_Init
  1200 ;;		_csb_init
  1201 ;;		_Delay_ms
  1202 ;;		_printf
  1203 ;;		_Motor_Speed_Set
  1204 ;;		_Encoder_Init
  1205 ;;		_Start_PD
  1206 ;;		_Trace_PID
  1207 ;; This function is called by:
  1208 ;;		Startup code after reset
  1209 ;; This function uses a non-reentrant model
  1210 ;;
  1211                           psect	maintext
  1212                           	file	"D:\6_pic_project\00_Design_Flow_Car\User\Car_demo\Car_demo.c"
  1213                           	line	129
  1214                           	global	__size_of_main
  1215  0283                     	__size_of_main	equ	__end_of_main-_main
  1216                           	
  1217  0015                     _main:	
  1218                           	opt	stack 4
  1219                           ; Regs used in _main: [wreg-fsr0h+status,2+status,0+btemp+1+pclath+cstack]
  1220                           	line	131
  1221                           	
  1222  0015                     l14404:	
  1223                           ;Car_demo.c: 131: TRISB1=0;
  1224  0015  1683               	bsf	status, 5	;RP0=1, select bank1
  1225  0016  1303               	bcf	status, 6	;RP1=0, select bank1
  1226  0017  1086               	bcf	(1073/8)^080h,(1073)&7
  1227                           	line	134
  1228                           ;Car_demo.c: 134: TRISA0=0;
  1229  0018  1005               	bcf	(1064/8)^080h,(1064)&7
  1230                           	line	135
  1231                           ;Car_demo.c: 135: TRISA1=0;
  1232  0019  1085               	bcf	(1065/8)^080h,(1065)&7
  1233                           	line	136
  1234                           ;Car_demo.c: 136: TRISE0=1;
  1235  001A  1409               	bsf	(1096/8)^080h,(1096)&7
  1236                           	line	137
  1237                           ;Car_demo.c: 137: TRISE1=1;
  1238  001B  1489               	bsf	(1097/8)^080h,(1097)&7
  1239                           	line	138
  1240                           ;Car_demo.c: 138: TRISE2=1;
  1241  001C  1509               	bsf	(1098/8)^080h,(1098)&7
  1242                           	line	139
  1243                           ;Car_demo.c: 139: TRISA4=1;
  1244  001D  1605               	bsf	(1068/8)^080h,(1068)&7
  1245                           	line	140
  1246                           ;Car_demo.c: 140: TRISC0=1;
  1247  001E  1407               	bsf	(1080/8)^080h,(1080)&7
  1248                           	line	141
  1249                           ;Car_demo.c: 141: TRISC3=1;
  1250  001F  1587               	bsf	(1083/8)^080h,(1083)&7
  1251                           	line	142
  1252                           ;Car_demo.c: 142: TRISC4=1;
  1253  0020  1607               	bsf	(1084/8)^080h,(1084)&7
  1254                           	line	143
  1255                           ;Car_demo.c: 143: TRISC5=1;
  1256  0021  1687               	bsf	(1085/8)^080h,(1085)&7
  1257                           	line	144
  1258                           ;Car_demo.c: 144: TRISB3=1;
  1259  0022  1586               	bsf	(1075/8)^080h,(1075)&7
  1260                           	line	146
  1261                           	
  1262  0023                     l14406:	
  1263                           ;Car_demo.c: 146: LCD1602_GPIO_Init();
  1264  0023  120A  158A  2553   	fcall	_LCD1602_GPIO_Init
              120A  118A         
  1265                           	line	147
  1266                           ;Car_demo.c: 147: LCD1602_Init();
  1267  0028  120A  158A  2623   	fcall	_LCD1602_Init
              120A  118A         
  1268                           	line	148
  1269                           	
  1270  002D                     l14408:	
  1271                           ;Car_demo.c: 148: LCD1602_WriteString(1,0,"CAR 1");
  1272  002D  1283               	bcf	status, 5	;RP0=0, select bank0
  1273  002E  1303               	bcf	status, 6	;RP1=0, select bank0
  1274  002F  01A3               	clrf	(?_LCD1602_WriteString)
  1275  0030  301A               	movlw	((STR_2-__stringbase))&0ffh
  1276  0031  1683               	bsf	status, 5	;RP0=1, select bank1
  1277  0032  1303               	bcf	status, 6	;RP1=0, select bank1
  1278  0033  00E0               	movwf	(??_main+0)^080h+0
  1279  0034  0860               	movf	(??_main+0)^080h+0,w
  1280  0035  1283               	bcf	status, 5	;RP0=0, select bank0
  1281  0036  1303               	bcf	status, 6	;RP1=0, select bank0
  1282  0037  00A4               	movwf	(0+?_LCD1602_WriteString+01h)
  1283  0038  3001               	movlw	(01h)
  1284  0039  120A  158A  273B   	fcall	_LCD1602_WriteString
              120A  118A         
  1285                           	line	149
  1286                           	
  1287  003E                     l14410:	
  1288                           ;Car_demo.c: 149: LCD1602_WriteString(2,0,"Speed:");
  1289  003E  1283               	bcf	status, 5	;RP0=0, select bank0
  1290  003F  1303               	bcf	status, 6	;RP1=0, select bank0
  1291  0040  01A3               	clrf	(?_LCD1602_WriteString)
  1292  0041  3013               	movlw	((STR_3-__stringbase))&0ffh
  1293  0042  1683               	bsf	status, 5	;RP0=1, select bank1
  1294  0043  1303               	bcf	status, 6	;RP1=0, select bank1
  1295  0044  00E0               	movwf	(??_main+0)^080h+0
  1296  0045  0860               	movf	(??_main+0)^080h+0,w
  1297  0046  1283               	bcf	status, 5	;RP0=0, select bank0
  1298  0047  1303               	bcf	status, 6	;RP1=0, select bank0
  1299  0048  00A4               	movwf	(0+?_LCD1602_WriteString+01h)
  1300  0049  3002               	movlw	(02h)
  1301  004A  120A  158A  273B   	fcall	_LCD1602_WriteString
              120A  118A         
  1302                           	line	151
  1303                           	
  1304  004F                     l14412:	
  1305                           ;Car_demo.c: 151: Usart_GPIO_Init();
  1306  004F  120A  158A  2546   	fcall	_Usart_GPIO_Init
              120A  118A         
  1307                           	line	152
  1308                           	
  1309  0054                     l14414:	
  1310                           ;Car_demo.c: 152: Usart_Init();
  1311  0054  120A  158A  2582   	fcall	_Usart_Init
              120A  118A         
  1312                           	line	154
  1313                           ;Car_demo.c: 154: Motor_GPIO_Init();
  1314  0059  120A  158A  255C   	fcall	_Motor_GPIO_Init
              120A  118A         
  1315                           	line	155
  1316                           	
  1317  005E                     l14416:	
  1318                           ;Car_demo.c: 155: Motor_CCP_PWM_Init();
  1319  005E  120A  158A  25C7   	fcall	_Motor_CCP_PWM_Init
              120A  118A         
  1320                           	line	156
  1321                           	
  1322  0063                     l14418:	
  1323                           ;Car_demo.c: 156: csb_init();
  1324  0063  120A  158A  25DB   	fcall	_csb_init
              120A  118A         
  1325                           	line	158
  1326                           	
  1327  0068                     l14420:	
  1328                           ;Car_demo.c: 158: Delay_ms(5000);
  1329  0068  3088               	movlw	low(01388h)
  1330  0069  1283               	bcf	status, 5	;RP0=0, select bank0
  1331  006A  1303               	bcf	status, 6	;RP1=0, select bank0
  1332  006B  00A0               	movwf	(?_Delay_ms)
  1333  006C  3013               	movlw	high(01388h)
  1334  006D  00A1               	movwf	((?_Delay_ms))+1
  1335  006E  120A  158A  25F0   	fcall	_Delay_ms
              120A  118A         
  1336                           	line	159
  1337                           	
  1338  0073                     l14422:	
  1339                           ;Car_demo.c: 159: printf("!\r\n");
  1340  0073  3001               	movlw	((STR_4-__stringbase))&0ffh
  1341  0074  120A  118A  2795   	fcall	_printf
              120A  118A         
  1342                           	line	160
  1343                           	
  1344  0079                     l14424:	
  1345                           ;Car_demo.c: 160: Motor_Speed_Set(PWM1,PWM2);
  1346  0079  1683               	bsf	status, 5	;RP0=1, select bank1
  1347  007A  1303               	bcf	status, 6	;RP1=0, select bank1
  1348  007B  082F               	movf	(_PWM1+1)^080h,w
  1349  007C  1283               	bcf	status, 5	;RP0=0, select bank0
  1350  007D  1303               	bcf	status, 6	;RP1=0, select bank0
  1351  007E  01A1               	clrf	(?_Motor_Speed_Set+1)
  1352  007F  07A1               	addwf	(?_Motor_Speed_Set+1)
  1353  0080  1683               	bsf	status, 5	;RP0=1, select bank1
  1354  0081  1303               	bcf	status, 6	;RP1=0, select bank1
  1355  0082  082E               	movf	(_PWM1)^080h,w
  1356  0083  1283               	bcf	status, 5	;RP0=0, select bank0
  1357  0084  1303               	bcf	status, 6	;RP1=0, select bank0
  1358  0085  01A0               	clrf	(?_Motor_Speed_Set)
  1359  0086  07A0               	addwf	(?_Motor_Speed_Set)
  1360                           
  1361  0087  1683               	bsf	status, 5	;RP0=1, select bank1
  1362  0088  1303               	bcf	status, 6	;RP1=0, select bank1
  1363  0089  0831               	movf	(_PWM2+1)^080h,w
  1364  008A  1283               	bcf	status, 5	;RP0=0, select bank0
  1365  008B  1303               	bcf	status, 6	;RP1=0, select bank0
  1366  008C  01A3               	clrf	1+(?_Motor_Speed_Set)+02h
  1367  008D  07A3               	addwf	1+(?_Motor_Speed_Set)+02h
  1368  008E  1683               	bsf	status, 5	;RP0=1, select bank1
  1369  008F  1303               	bcf	status, 6	;RP1=0, select bank1
  1370  0090  0830               	movf	(_PWM2)^080h,w
  1371  0091  1283               	bcf	status, 5	;RP0=0, select bank0
  1372  0092  1303               	bcf	status, 6	;RP1=0, select bank0
  1373  0093  01A2               	clrf	0+(?_Motor_Speed_Set)+02h
  1374  0094  07A2               	addwf	0+(?_Motor_Speed_Set)+02h
  1375                           
  1376  0095  120A  158A  2700   	fcall	_Motor_Speed_Set
              120A  118A         
  1377                           	line	161
  1378                           	
  1379  009A                     l14426:	
  1380                           ;Car_demo.c: 161: Encoder_Init();
  1381  009A  120A  158A  2573   	fcall	_Encoder_Init
              120A  118A         
  1382  009F  28A0               	goto	l14428
  1383                           	line	162
  1384                           ;Car_demo.c: 162: while(1)
  1385                           	
  1386  00A0                     l9978:	
  1387                           	line	165
  1388                           	
  1389  00A0                     l14428:	
  1390                           ;Car_demo.c: 163: {
  1391                           ;Car_demo.c: 165: if(Circle_Mode == 0)
  1392  00A0  1283               	bcf	status, 5	;RP0=0, select bank0
  1393  00A1  1303               	bcf	status, 6	;RP1=0, select bank0
  1394  00A2  08E7               	movf	(_Circle_Mode),f
  1395  00A3  1D03               	skipz
  1396  00A4  28A6               	goto	u6161
  1397  00A5  28A7               	goto	u6160
  1398  00A6                     u6161:
  1399  00A6  28DA               	goto	l14444
  1400  00A7                     u6160:
  1401                           	line	167
  1402                           	
  1403  00A7                     l14430:	
  1404                           ;Car_demo.c: 166: {
  1405                           ;Car_demo.c: 167: Motor_Speed_Set(40,40);
  1406  00A7  3028               	movlw	low(028h)
  1407  00A8  00A0               	movwf	(?_Motor_Speed_Set)
  1408  00A9  3000               	movlw	high(028h)
  1409  00AA  00A1               	movwf	((?_Motor_Speed_Set))+1
  1410  00AB  3028               	movlw	low(028h)
  1411  00AC  00A2               	movwf	0+(?_Motor_Speed_Set)+02h
  1412  00AD  3000               	movlw	high(028h)
  1413  00AE  00A3               	movwf	(0+(?_Motor_Speed_Set)+02h)+1
  1414  00AF  120A  158A  2700   	fcall	_Motor_Speed_Set
              120A  118A         
  1415                           	line	169
  1416                           	
  1417  00B4                     l14432:	
  1418                           ;Car_demo.c: 169: if(Start_PD() == -99)
  1419  00B4  120A  118A  270B   	fcall	_Start_PD
              120A  118A         
  1420  00B9  30FF               	movlw	high(-99)
  1421  00BA  1283               	bcf	status, 5	;RP0=0, select bank0
  1422  00BB  1303               	bcf	status, 6	;RP1=0, select bank0
  1423  00BC  0621               	xorwf	(1+(?_Start_PD)),w
  1424  00BD  1D03               	skipz
  1425  00BE  28C1               	goto	u6175
  1426  00BF  309D               	movlw	low(-99)
  1427  00C0  0620               	xorwf	(0+(?_Start_PD)),w
  1428  00C1                     u6175:
  1429                           
  1430  00C1  1D03               	skipz
  1431  00C2  28C4               	goto	u6171
  1432  00C3  28C5               	goto	u6170
  1433  00C4                     u6171:
  1434  00C4  28C9               	goto	l14436
  1435  00C5                     u6170:
  1436                           	line	171
  1437                           	
  1438  00C5                     l14434:	
  1439                           ;Car_demo.c: 170: {
  1440                           ;Car_demo.c: 171: Start_Find_flag = 1;
  1441  00C5  01EC               	clrf	(_Start_Find_flag)
  1442  00C6  1403               	bsf	status,0
  1443  00C7  0DEC               	rlf	(_Start_Find_flag),f
  1444  00C8  28C9               	goto	l14436
  1445                           	line	172
  1446                           	
  1447  00C9                     l9980:	
  1448                           	line	174
  1449                           	
  1450  00C9                     l14436:	
  1451                           ;Car_demo.c: 172: }
  1452                           ;Car_demo.c: 174: if(Encoder_Counter > 200)
  1453  00C9  3000               	movlw	high(0C9h)
  1454  00CA  0264               	subwf	(_Encoder_Counter+1),w
  1455  00CB  30C9               	movlw	low(0C9h)
  1456  00CC  1903               	skipnz
  1457  00CD  0263               	subwf	(_Encoder_Counter),w
  1458  00CE  1C03               	skipc
  1459  00CF  28D1               	goto	u6181
  1460  00D0  28D2               	goto	u6180
  1461  00D1                     u6181:
  1462  00D1  28A0               	goto	l14428
  1463  00D2                     u6180:
  1464                           	line	176
  1465                           	
  1466  00D2                     l14438:	
  1467                           ;Car_demo.c: 175: {
  1468                           ;Car_demo.c: 176: Start_Find_flag = 0;
  1469  00D2  01EC               	clrf	(_Start_Find_flag)
  1470                           	line	177
  1471                           	
  1472  00D3                     l14440:	
  1473                           ;Car_demo.c: 177: Encoder_Counter=0;
  1474  00D3  01E3               	clrf	(_Encoder_Counter)
  1475  00D4  01E4               	clrf	(_Encoder_Counter+1)
  1476                           	line	178
  1477                           	
  1478  00D5                     l14442:	
  1479                           ;Car_demo.c: 178: Circle_Mode = 1;
  1480  00D5  01E7               	clrf	(_Circle_Mode)
  1481  00D6  1403               	bsf	status,0
  1482  00D7  0DE7               	rlf	(_Circle_Mode),f
  1483  00D8  28A0               	goto	l14428
  1484                           	line	179
  1485                           	
  1486  00D9                     l9981:	
  1487                           	line	180
  1488                           ;Car_demo.c: 179: }
  1489                           ;Car_demo.c: 180: }
  1490  00D9  28A0               	goto	l14428
  1491                           	line	181
  1492                           	
  1493  00DA                     l9979:	
  1494                           	
  1495  00DA                     l14444:	
  1496                           ;Car_demo.c: 181: else if(Circle_Mode == 1)
  1497  00DA  0867               	movf	(_Circle_Mode),w
  1498  00DB  3A01               	xorlw	01h
  1499  00DC  1D03               	skipz
  1500  00DD  28DF               	goto	u6191
  1501  00DE  28E0               	goto	u6190
  1502  00DF                     u6191:
  1503  00DF  2967               	goto	l14470
  1504  00E0                     u6190:
  1505                           	line	183
  1506                           	
  1507  00E0                     l14446:	
  1508                           ;Car_demo.c: 182: {
  1509                           ;Car_demo.c: 183: if(Start_PD() == -99)
  1510  00E0  120A  118A  270B   	fcall	_Start_PD
              120A  118A         
  1511  00E5  30FF               	movlw	high(-99)
  1512  00E6  1283               	bcf	status, 5	;RP0=0, select bank0
  1513  00E7  1303               	bcf	status, 6	;RP1=0, select bank0
  1514  00E8  0621               	xorwf	(1+(?_Start_PD)),w
  1515  00E9  1D03               	skipz
  1516  00EA  28ED               	goto	u6205
  1517  00EB  309D               	movlw	low(-99)
  1518  00EC  0620               	xorwf	(0+(?_Start_PD)),w
  1519  00ED                     u6205:
  1520                           
  1521  00ED  1D03               	skipz
  1522  00EE  28F0               	goto	u6201
  1523  00EF  28F1               	goto	u6200
  1524  00F0                     u6201:
  1525  00F0  28F5               	goto	l14450
  1526  00F1                     u6200:
  1527                           	line	185
  1528                           	
  1529  00F1                     l14448:	
  1530                           ;Car_demo.c: 184: {
  1531                           ;Car_demo.c: 185: Start_Find_flag =1;
  1532  00F1  01EC               	clrf	(_Start_Find_flag)
  1533  00F2  1403               	bsf	status,0
  1534  00F3  0DEC               	rlf	(_Start_Find_flag),f
  1535  00F4  28F5               	goto	l14450
  1536                           	line	186
  1537                           	
  1538  00F5                     l9984:	
  1539                           	line	188
  1540                           	
  1541  00F5                     l14450:	
  1542                           ;Car_demo.c: 186: }
  1543                           ;Car_demo.c: 188: if(Start_Find_flag == 1)
  1544  00F5  086C               	movf	(_Start_Find_flag),w
  1545  00F6  3A01               	xorlw	01h
  1546  00F7  1D03               	skipz
  1547  00F8  28FA               	goto	u6211
  1548  00F9  28FB               	goto	u6210
  1549  00FA                     u6211:
  1550  00FA  2922               	goto	l14462
  1551  00FB                     u6210:
  1552                           	line	190
  1553                           	
  1554  00FB                     l14452:	
  1555                           ;Car_demo.c: 189: {
  1556                           ;Car_demo.c: 190: Motor_Speed_Set(40,40);
  1557  00FB  3028               	movlw	low(028h)
  1558  00FC  00A0               	movwf	(?_Motor_Speed_Set)
  1559  00FD  3000               	movlw	high(028h)
  1560  00FE  00A1               	movwf	((?_Motor_Speed_Set))+1
  1561  00FF  3028               	movlw	low(028h)
  1562  0100  00A2               	movwf	0+(?_Motor_Speed_Set)+02h
  1563  0101  3000               	movlw	high(028h)
  1564  0102  00A3               	movwf	(0+(?_Motor_Speed_Set)+02h)+1
  1565  0103  120A  158A  2700   	fcall	_Motor_Speed_Set
              120A  118A         
  1566                           	line	191
  1567                           	
  1568  0108                     l14454:	
  1569                           ;Car_demo.c: 191: if(Encoder_Counter > 200)
  1570  0108  3000               	movlw	high(0C9h)
  1571  0109  1283               	bcf	status, 5	;RP0=0, select bank0
  1572  010A  1303               	bcf	status, 6	;RP1=0, select bank0
  1573  010B  0264               	subwf	(_Encoder_Counter+1),w
  1574  010C  30C9               	movlw	low(0C9h)
  1575  010D  1903               	skipnz
  1576  010E  0263               	subwf	(_Encoder_Counter),w
  1577  010F  1C03               	skipc
  1578  0110  2912               	goto	u6221
  1579  0111  2913               	goto	u6220
  1580  0112                     u6221:
  1581  0112  28A0               	goto	l14428
  1582  0113                     u6220:
  1583                           	line	193
  1584                           	
  1585  0113                     l14456:	
  1586                           ;Car_demo.c: 192: {
  1587                           ;Car_demo.c: 193: IO_flag = 1;
  1588  0113  01E8               	clrf	(_IO_flag)
  1589  0114  1403               	bsf	status,0
  1590  0115  0DE8               	rlf	(_IO_flag),f
  1591                           	line	194
  1592                           	
  1593  0116                     l14458:	
  1594                           ;Car_demo.c: 194: Encoder_Counter=0;
  1595  0116  01E3               	clrf	(_Encoder_Counter)
  1596  0117  01E4               	clrf	(_Encoder_Counter+1)
  1597                           	line	195
  1598                           	
  1599  0118                     l14460:	
  1600                           ;Car_demo.c: 195: Circle_Mode = 2;
  1601  0118  3002               	movlw	(02h)
  1602  0119  1683               	bsf	status, 5	;RP0=1, select bank1
  1603  011A  1303               	bcf	status, 6	;RP1=0, select bank1
  1604  011B  00E0               	movwf	(??_main+0)^080h+0
  1605  011C  0860               	movf	(??_main+0)^080h+0,w
  1606  011D  1283               	bcf	status, 5	;RP0=0, select bank0
  1607  011E  1303               	bcf	status, 6	;RP1=0, select bank0
  1608  011F  00E7               	movwf	(_Circle_Mode)
  1609  0120  28A0               	goto	l14428
  1610                           	line	196
  1611                           	
  1612  0121                     l9986:	
  1613                           	line	197
  1614                           ;Car_demo.c: 196: }
  1615                           ;Car_demo.c: 197: }
  1616  0121  28A0               	goto	l14428
  1617                           	line	198
  1618                           	
  1619  0122                     l9985:	
  1620                           	line	201
  1621                           	
  1622  0122                     l14462:	
  1623                           ;Car_demo.c: 198: else
  1624                           ;Car_demo.c: 199: {
  1625                           ;Car_demo.c: 201: Turn_PWM = Trace_PID();
  1626  0122  120A  118A  2298   	fcall	_Trace_PID
              120A  118A         
  1627  0127  1283               	bcf	status, 5	;RP0=0, select bank0
  1628  0128  1303               	bcf	status, 6	;RP1=0, select bank0
  1629  0129  085A               	movf	(1+(?_Trace_PID)),w
  1630  012A  01E6               	clrf	(_Turn_PWM+1)
  1631  012B  07E6               	addwf	(_Turn_PWM+1)
  1632  012C  0859               	movf	(0+(?_Trace_PID)),w
  1633  012D  01E5               	clrf	(_Turn_PWM)
  1634  012E  07E5               	addwf	(_Turn_PWM)
  1635                           
  1636                           	line	202
  1637                           	
  1638  012F                     l14464:	
  1639                           ;Car_demo.c: 202: Speed_left = 40 - Turn_PWM;
  1640  012F  0365               	decf	(_Turn_PWM),w
  1641  0130  3AFF               	xorlw	0ffh
  1642  0131  3E28               	addlw	028h
  1643  0132  1683               	bsf	status, 5	;RP0=1, select bank1
  1644  0133  1303               	bcf	status, 6	;RP1=0, select bank1
  1645  0134  00E0               	movwf	(??_main+0)^080h+0
  1646  0135  0860               	movf	(??_main+0)^080h+0,w
  1647  0136  1283               	bcf	status, 5	;RP0=0, select bank0
  1648  0137  1303               	bcf	status, 6	;RP1=0, select bank0
  1649  0138  00EA               	movwf	(_Speed_left)
  1650                           	line	203
  1651                           	
  1652  0139                     l14466:	
  1653                           ;Car_demo.c: 203: Speed_right = 40 + Turn_PWM;
  1654  0139  0865               	movf	(_Turn_PWM),w
  1655  013A  3E28               	addlw	028h
  1656  013B  1683               	bsf	status, 5	;RP0=1, select bank1
  1657  013C  1303               	bcf	status, 6	;RP1=0, select bank1
  1658  013D  00E0               	movwf	(??_main+0)^080h+0
  1659  013E  0860               	movf	(??_main+0)^080h+0,w
  1660  013F  1283               	bcf	status, 5	;RP0=0, select bank0
  1661  0140  1303               	bcf	status, 6	;RP1=0, select bank0
  1662  0141  00EB               	movwf	(_Speed_right)
  1663                           	line	204
  1664                           	
  1665  0142                     l14468:	
  1666                           ;Car_demo.c: 204: Motor_Speed_Set(Speed_left,Speed_right);
  1667  0142  086A               	movf	(_Speed_left),w
  1668  0143  1683               	bsf	status, 5	;RP0=1, select bank1
  1669  0144  1303               	bcf	status, 6	;RP1=0, select bank1
  1670  0145  00E0               	movwf	(??_main+0)^080h+0
  1671  0146  01E1               	clrf	(??_main+0)^080h+0+1
  1672  0147  0860               	movf	0+(??_main+0)^080h+0,w
  1673  0148  1283               	bcf	status, 5	;RP0=0, select bank0
  1674  0149  1303               	bcf	status, 6	;RP1=0, select bank0
  1675  014A  00A0               	movwf	(?_Motor_Speed_Set)
  1676  014B  1683               	bsf	status, 5	;RP0=1, select bank1
  1677  014C  1303               	bcf	status, 6	;RP1=0, select bank1
  1678  014D  0861               	movf	1+(??_main+0)^080h+0,w
  1679  014E  1283               	bcf	status, 5	;RP0=0, select bank0
  1680  014F  1303               	bcf	status, 6	;RP1=0, select bank0
  1681  0150  00A1               	movwf	(?_Motor_Speed_Set+1)
  1682  0151  086B               	movf	(_Speed_right),w
  1683  0152  1683               	bsf	status, 5	;RP0=1, select bank1
  1684  0153  1303               	bcf	status, 6	;RP1=0, select bank1
  1685  0154  00E2               	movwf	(??_main+2)^080h+0
  1686  0155  01E3               	clrf	(??_main+2)^080h+0+1
  1687  0156  0862               	movf	0+(??_main+2)^080h+0,w
  1688  0157  1283               	bcf	status, 5	;RP0=0, select bank0
  1689  0158  1303               	bcf	status, 6	;RP1=0, select bank0
  1690  0159  00A2               	movwf	0+(?_Motor_Speed_Set)+02h
  1691  015A  1683               	bsf	status, 5	;RP0=1, select bank1
  1692  015B  1303               	bcf	status, 6	;RP1=0, select bank1
  1693  015C  0863               	movf	1+(??_main+2)^080h+0,w
  1694  015D  1283               	bcf	status, 5	;RP0=0, select bank0
  1695  015E  1303               	bcf	status, 6	;RP1=0, select bank0
  1696  015F  00A3               	movwf	1+(?_Motor_Speed_Set)+02h
  1697  0160  120A  158A  2700   	fcall	_Motor_Speed_Set
              120A  118A         
  1698  0165  28A0               	goto	l14428
  1699                           	line	205
  1700                           	
  1701  0166                     l9987:	
  1702                           	line	206
  1703                           ;Car_demo.c: 205: }
  1704                           ;Car_demo.c: 206: }
  1705  0166  28A0               	goto	l14428
  1706                           	line	207
  1707                           	
  1708  0167                     l9983:	
  1709                           	
  1710  0167                     l14470:	
  1711                           ;Car_demo.c: 207: else if(Circle_Mode == 2)
  1712  0167  1283               	bcf	status, 5	;RP0=0, select bank0
  1713  0168  1303               	bcf	status, 6	;RP1=0, select bank0
  1714  0169  0867               	movf	(_Circle_Mode),w
  1715  016A  3A02               	xorlw	02h
  1716  016B  1D03               	skipz
  1717  016C  296E               	goto	u6231
  1718  016D  296F               	goto	u6230
  1719  016E                     u6231:
  1720  016E  2A17               	goto	l14508
  1721  016F                     u6230:
  1722                           	line	209
  1723                           	
  1724  016F                     l14472:	
  1725                           ;Car_demo.c: 208: {
  1726                           ;Car_demo.c: 209: if(IO_flag == 0)
  1727  016F  08E8               	movf	(_IO_flag),f
  1728  0170  1D03               	skipz
  1729  0171  2973               	goto	u6241
  1730  0172  2974               	goto	u6240
  1731  0173                     u6241:
  1732  0173  29F8               	goto	l14498
  1733  0174                     u6240:
  1734                           	line	211
  1735                           	
  1736  0174                     l14474:	
  1737                           ;Car_demo.c: 210: {
  1738                           ;Car_demo.c: 211: if(Start_PD() == -99)
  1739  0174  120A  118A  270B   	fcall	_Start_PD
              120A  118A         
  1740  0179  30FF               	movlw	high(-99)
  1741  017A  1283               	bcf	status, 5	;RP0=0, select bank0
  1742  017B  1303               	bcf	status, 6	;RP1=0, select bank0
  1743  017C  0621               	xorwf	(1+(?_Start_PD)),w
  1744  017D  1D03               	skipz
  1745  017E  2981               	goto	u6255
  1746  017F  309D               	movlw	low(-99)
  1747  0180  0620               	xorwf	(0+(?_Start_PD)),w
  1748  0181                     u6255:
  1749                           
  1750  0181  1D03               	skipz
  1751  0182  2984               	goto	u6251
  1752  0183  2985               	goto	u6250
  1753  0184                     u6251:
  1754  0184  2989               	goto	l14478
  1755  0185                     u6250:
  1756                           	line	213
  1757                           	
  1758  0185                     l14476:	
  1759                           ;Car_demo.c: 212: {
  1760                           ;Car_demo.c: 213: Start_Find_flag = 1;
  1761  0185  01EC               	clrf	(_Start_Find_flag)
  1762  0186  1403               	bsf	status,0
  1763  0187  0DEC               	rlf	(_Start_Find_flag),f
  1764  0188  2989               	goto	l14478
  1765                           	line	214
  1766                           	
  1767  0189                     l9991:	
  1768                           	line	216
  1769                           	
  1770  0189                     l14478:	
  1771                           ;Car_demo.c: 214: }
  1772                           ;Car_demo.c: 216: if(Start_Find_flag)
  1773  0189  086C               	movf	(_Start_Find_flag),w
  1774  018A  1D03               	skipz
  1775  018B  298D               	goto	u6260
  1776  018C  29B3               	goto	l14490
  1777  018D                     u6260:
  1778                           	line	218
  1779                           	
  1780  018D                     l14480:	
  1781                           ;Car_demo.c: 217: {
  1782                           ;Car_demo.c: 218: Motor_Speed_Set(40,40);
  1783  018D  3028               	movlw	low(028h)
  1784  018E  00A0               	movwf	(?_Motor_Speed_Set)
  1785  018F  3000               	movlw	high(028h)
  1786  0190  00A1               	movwf	((?_Motor_Speed_Set))+1
  1787  0191  3028               	movlw	low(028h)
  1788  0192  00A2               	movwf	0+(?_Motor_Speed_Set)+02h
  1789  0193  3000               	movlw	high(028h)
  1790  0194  00A3               	movwf	(0+(?_Motor_Speed_Set)+02h)+1
  1791  0195  120A  158A  2700   	fcall	_Motor_Speed_Set
              120A  118A         
  1792                           	line	219
  1793                           	
  1794  019A                     l14482:	
  1795                           ;Car_demo.c: 219: if(Encoder_Counter > 120)
  1796  019A  3000               	movlw	high(079h)
  1797  019B  1283               	bcf	status, 5	;RP0=0, select bank0
  1798  019C  1303               	bcf	status, 6	;RP1=0, select bank0
  1799  019D  0264               	subwf	(_Encoder_Counter+1),w
  1800  019E  3079               	movlw	low(079h)
  1801  019F  1903               	skipnz
  1802  01A0  0263               	subwf	(_Encoder_Counter),w
  1803  01A1  1C03               	skipc
  1804  01A2  29A4               	goto	u6271
  1805  01A3  29A5               	goto	u6270
  1806  01A4                     u6271:
  1807  01A4  28A0               	goto	l14428
  1808  01A5                     u6270:
  1809                           	line	221
  1810                           	
  1811  01A5                     l14484:	
  1812                           ;Car_demo.c: 220: {
  1813                           ;Car_demo.c: 221: Start_Find_flag = 0;
  1814  01A5  01EC               	clrf	(_Start_Find_flag)
  1815                           	line	222
  1816                           ;Car_demo.c: 222: IO_flag = 0;
  1817  01A6  01E8               	clrf	(_IO_flag)
  1818                           	line	223
  1819                           	
  1820  01A7                     l14486:	
  1821                           ;Car_demo.c: 223: Encoder_Counter=0;
  1822  01A7  01E3               	clrf	(_Encoder_Counter)
  1823  01A8  01E4               	clrf	(_Encoder_Counter+1)
  1824                           	line	224
  1825                           	
  1826  01A9                     l14488:	
  1827                           ;Car_demo.c: 224: Circle_Mode = 3;
  1828  01A9  3003               	movlw	(03h)
  1829  01AA  1683               	bsf	status, 5	;RP0=1, select bank1
  1830  01AB  1303               	bcf	status, 6	;RP1=0, select bank1
  1831  01AC  00E0               	movwf	(??_main+0)^080h+0
  1832  01AD  0860               	movf	(??_main+0)^080h+0,w
  1833  01AE  1283               	bcf	status, 5	;RP0=0, select bank0
  1834  01AF  1303               	bcf	status, 6	;RP1=0, select bank0
  1835  01B0  00E7               	movwf	(_Circle_Mode)
  1836  01B1  28A0               	goto	l14428
  1837                           	line	225
  1838                           	
  1839  01B2                     l9993:	
  1840                           	line	226
  1841                           ;Car_demo.c: 225: }
  1842                           ;Car_demo.c: 226: }
  1843  01B2  28A0               	goto	l14428
  1844                           	line	227
  1845                           	
  1846  01B3                     l9992:	
  1847                           	line	230
  1848                           	
  1849  01B3                     l14490:	
  1850                           ;Car_demo.c: 227: else
  1851                           ;Car_demo.c: 228: {
  1852                           ;Car_demo.c: 230: Turn_PWM = Trace_PID();
  1853  01B3  120A  118A  2298   	fcall	_Trace_PID
              120A  118A         
  1854  01B8  1283               	bcf	status, 5	;RP0=0, select bank0
  1855  01B9  1303               	bcf	status, 6	;RP1=0, select bank0
  1856  01BA  085A               	movf	(1+(?_Trace_PID)),w
  1857  01BB  01E6               	clrf	(_Turn_PWM+1)
  1858  01BC  07E6               	addwf	(_Turn_PWM+1)
  1859  01BD  0859               	movf	(0+(?_Trace_PID)),w
  1860  01BE  01E5               	clrf	(_Turn_PWM)
  1861  01BF  07E5               	addwf	(_Turn_PWM)
  1862                           
  1863                           	line	231
  1864                           	
  1865  01C0                     l14492:	
  1866                           ;Car_demo.c: 231: Speed_left = 40 - Turn_PWM;
  1867  01C0  0365               	decf	(_Turn_PWM),w
  1868  01C1  3AFF               	xorlw	0ffh
  1869  01C2  3E28               	addlw	028h
  1870  01C3  1683               	bsf	status, 5	;RP0=1, select bank1
  1871  01C4  1303               	bcf	status, 6	;RP1=0, select bank1
  1872  01C5  00E0               	movwf	(??_main+0)^080h+0
  1873  01C6  0860               	movf	(??_main+0)^080h+0,w
  1874  01C7  1283               	bcf	status, 5	;RP0=0, select bank0
  1875  01C8  1303               	bcf	status, 6	;RP1=0, select bank0
  1876  01C9  00EA               	movwf	(_Speed_left)
  1877                           	line	232
  1878                           	
  1879  01CA                     l14494:	
  1880                           ;Car_demo.c: 232: Speed_right = 40 + Turn_PWM;
  1881  01CA  0865               	movf	(_Turn_PWM),w
  1882  01CB  3E28               	addlw	028h
  1883  01CC  1683               	bsf	status, 5	;RP0=1, select bank1
  1884  01CD  1303               	bcf	status, 6	;RP1=0, select bank1
  1885  01CE  00E0               	movwf	(??_main+0)^080h+0
  1886  01CF  0860               	movf	(??_main+0)^080h+0,w
  1887  01D0  1283               	bcf	status, 5	;RP0=0, select bank0
  1888  01D1  1303               	bcf	status, 6	;RP1=0, select bank0
  1889  01D2  00EB               	movwf	(_Speed_right)
  1890                           	line	233
  1891                           	
  1892  01D3                     l14496:	
  1893                           ;Car_demo.c: 233: Motor_Speed_Set(Speed_left,Speed_right);
  1894  01D3  086A               	movf	(_Speed_left),w
  1895  01D4  1683               	bsf	status, 5	;RP0=1, select bank1
  1896  01D5  1303               	bcf	status, 6	;RP1=0, select bank1
  1897  01D6  00E0               	movwf	(??_main+0)^080h+0
  1898  01D7  01E1               	clrf	(??_main+0)^080h+0+1
  1899  01D8  0860               	movf	0+(??_main+0)^080h+0,w
  1900  01D9  1283               	bcf	status, 5	;RP0=0, select bank0
  1901  01DA  1303               	bcf	status, 6	;RP1=0, select bank0
  1902  01DB  00A0               	movwf	(?_Motor_Speed_Set)
  1903  01DC  1683               	bsf	status, 5	;RP0=1, select bank1
  1904  01DD  1303               	bcf	status, 6	;RP1=0, select bank1
  1905  01DE  0861               	movf	1+(??_main+0)^080h+0,w
  1906  01DF  1283               	bcf	status, 5	;RP0=0, select bank0
  1907  01E0  1303               	bcf	status, 6	;RP1=0, select bank0
  1908  01E1  00A1               	movwf	(?_Motor_Speed_Set+1)
  1909  01E2  086B               	movf	(_Speed_right),w
  1910  01E3  1683               	bsf	status, 5	;RP0=1, select bank1
  1911  01E4  1303               	bcf	status, 6	;RP1=0, select bank1
  1912  01E5  00E2               	movwf	(??_main+2)^080h+0
  1913  01E6  01E3               	clrf	(??_main+2)^080h+0+1
  1914  01E7  0862               	movf	0+(??_main+2)^080h+0,w
  1915  01E8  1283               	bcf	status, 5	;RP0=0, select bank0
  1916  01E9  1303               	bcf	status, 6	;RP1=0, select bank0
  1917  01EA  00A2               	movwf	0+(?_Motor_Speed_Set)+02h
  1918  01EB  1683               	bsf	status, 5	;RP0=1, select bank1
  1919  01EC  1303               	bcf	status, 6	;RP1=0, select bank1
  1920  01ED  0863               	movf	1+(??_main+2)^080h+0,w
  1921  01EE  1283               	bcf	status, 5	;RP0=0, select bank0
  1922  01EF  1303               	bcf	status, 6	;RP1=0, select bank0
  1923  01F0  00A3               	movwf	1+(?_Motor_Speed_Set)+02h
  1924  01F1  120A  158A  2700   	fcall	_Motor_Speed_Set
              120A  118A         
  1925  01F6  28A0               	goto	l14428
  1926                           	line	234
  1927                           	
  1928  01F7                     l9994:	
  1929                           	line	235
  1930                           ;Car_demo.c: 234: }
  1931                           ;Car_demo.c: 235: }
  1932  01F7  28A0               	goto	l14428
  1933                           	line	236
  1934                           	
  1935  01F8                     l9990:	
  1936                           	line	238
  1937                           	
  1938  01F8                     l14498:	
  1939                           ;Car_demo.c: 236: else
  1940                           ;Car_demo.c: 237: {
  1941                           ;Car_demo.c: 238: if(Encoder_Counter > 320)
  1942  01F8  3001               	movlw	high(0141h)
  1943  01F9  1283               	bcf	status, 5	;RP0=0, select bank0
  1944  01FA  1303               	bcf	status, 6	;RP1=0, select bank0
  1945  01FB  0264               	subwf	(_Encoder_Counter+1),w
  1946  01FC  3041               	movlw	low(0141h)
  1947  01FD  1903               	skipnz
  1948  01FE  0263               	subwf	(_Encoder_Counter),w
  1949  01FF  1C03               	skipc
  1950  0200  2A02               	goto	u6281
  1951  0201  2A03               	goto	u6280
  1952  0202                     u6281:
  1953  0202  2A08               	goto	l14506
  1954  0203                     u6280:
  1955                           	line	240
  1956                           	
  1957  0203                     l14500:	
  1958                           ;Car_demo.c: 239: {
  1959                           ;Car_demo.c: 240: Start_Find_flag = 0;
  1960  0203  01EC               	clrf	(_Start_Find_flag)
  1961                           	line	241
  1962                           	
  1963  0204                     l14502:	
  1964                           ;Car_demo.c: 241: Encoder_Counter=0;
  1965  0204  01E3               	clrf	(_Encoder_Counter)
  1966  0205  01E4               	clrf	(_Encoder_Counter+1)
  1967                           	line	242
  1968                           	
  1969  0206                     l14504:	
  1970                           ;Car_demo.c: 242: IO_flag = 0;
  1971  0206  01E8               	clrf	(_IO_flag)
  1972  0207  2A08               	goto	l14506
  1973                           	line	243
  1974                           	
  1975  0208                     l9996:	
  1976                           	line	244
  1977                           	
  1978  0208                     l14506:	
  1979                           ;Car_demo.c: 243: }
  1980                           ;Car_demo.c: 244: Motor_Speed_Set(20,60);
  1981  0208  3014               	movlw	low(014h)
  1982  0209  00A0               	movwf	(?_Motor_Speed_Set)
  1983  020A  3000               	movlw	high(014h)
  1984  020B  00A1               	movwf	((?_Motor_Speed_Set))+1
  1985  020C  303C               	movlw	low(03Ch)
  1986  020D  00A2               	movwf	0+(?_Motor_Speed_Set)+02h
  1987  020E  3000               	movlw	high(03Ch)
  1988  020F  00A3               	movwf	(0+(?_Motor_Speed_Set)+02h)+1
  1989  0210  120A  158A  2700   	fcall	_Motor_Speed_Set
              120A  118A         
  1990  0215  28A0               	goto	l14428
  1991                           	line	245
  1992                           	
  1993  0216                     l9995:	
  1994                           	line	246
  1995                           ;Car_demo.c: 245: }
  1996                           ;Car_demo.c: 246: }
  1997  0216  28A0               	goto	l14428
  1998                           	line	247
  1999                           	
  2000  0217                     l9989:	
  2001                           	
  2002  0217                     l14508:	
  2003                           ;Car_demo.c: 247: else if(Circle_Mode == 3)
  2004  0217  1283               	bcf	status, 5	;RP0=0, select bank0
  2005  0218  1303               	bcf	status, 6	;RP1=0, select bank0
  2006  0219  0867               	movf	(_Circle_Mode),w
  2007  021A  3A03               	xorlw	03h
  2008  021B  1D03               	skipz
  2009  021C  2A1E               	goto	u6291
  2010  021D  2A1F               	goto	u6290
  2011  021E                     u6291:
  2012  021E  28A0               	goto	l14428
  2013  021F                     u6290:
  2014                           	line	249
  2015                           	
  2016  021F                     l14510:	
  2017                           ;Car_demo.c: 248: {
  2018                           ;Car_demo.c: 249: if(Start_PD() == -99)
  2019  021F  120A  118A  270B   	fcall	_Start_PD
              120A  118A         
  2020  0224  30FF               	movlw	high(-99)
  2021  0225  1283               	bcf	status, 5	;RP0=0, select bank0
  2022  0226  1303               	bcf	status, 6	;RP1=0, select bank0
  2023  0227  0621               	xorwf	(1+(?_Start_PD)),w
  2024  0228  1D03               	skipz
  2025  0229  2A2C               	goto	u6305
  2026  022A  309D               	movlw	low(-99)
  2027  022B  0620               	xorwf	(0+(?_Start_PD)),w
  2028  022C                     u6305:
  2029                           
  2030  022C  1D03               	skipz
  2031  022D  2A2F               	goto	u6301
  2032  022E  2A30               	goto	u6300
  2033  022F                     u6301:
  2034  022F  2A37               	goto	l14514
  2035  0230                     u6300:
  2036                           	line	251
  2037                           	
  2038  0230                     l14512:	
  2039                           ;Car_demo.c: 250: {
  2040                           ;Car_demo.c: 251: Start_Find_flag = 1;
  2041  0230  01EC               	clrf	(_Start_Find_flag)
  2042  0231  1403               	bsf	status,0
  2043  0232  0DEC               	rlf	(_Start_Find_flag),f
  2044                           	line	252
  2045                           ;Car_demo.c: 252: Stop_Flag=1;
  2046  0233  01ED               	clrf	(_Stop_Flag)
  2047  0234  1403               	bsf	status,0
  2048  0235  0DED               	rlf	(_Stop_Flag),f
  2049  0236  2A37               	goto	l14514
  2050                           	line	253
  2051                           	
  2052  0237                     l9999:	
  2053                           	line	255
  2054                           	
  2055  0237                     l14514:	
  2056                           ;Car_demo.c: 253: }
  2057                           ;Car_demo.c: 255: if(Stop_Flag == 1)
  2058  0237  086D               	movf	(_Stop_Flag),w
  2059  0238  3A01               	xorlw	01h
  2060  0239  1D03               	skipz
  2061  023A  2A3C               	goto	u6311
  2062  023B  2A3D               	goto	u6310
  2063  023C                     u6311:
  2064  023C  2A4B               	goto	l14518
  2065  023D                     u6310:
  2066                           	line	257
  2067                           	
  2068  023D                     l14516:	
  2069                           ;Car_demo.c: 256: {
  2070                           ;Car_demo.c: 257: Motor_Speed_Set(0,0);
  2071  023D  3000               	movlw	low(0)
  2072  023E  00A0               	movwf	(?_Motor_Speed_Set)
  2073  023F  3000               	movlw	high(0)
  2074  0240  00A1               	movwf	((?_Motor_Speed_Set))+1
  2075  0241  3000               	movlw	low(0)
  2076  0242  00A2               	movwf	0+(?_Motor_Speed_Set)+02h
  2077  0243  3000               	movlw	high(0)
  2078  0244  00A3               	movwf	(0+(?_Motor_Speed_Set)+02h)+1
  2079  0245  120A  158A  2700   	fcall	_Motor_Speed_Set
              120A  118A         
  2080                           	line	258
  2081                           ;Car_demo.c: 258: }
  2082  024A  28A0               	goto	l14428
  2083                           	line	259
  2084                           	
  2085  024B                     l10000:	
  2086                           	line	261
  2087                           	
  2088  024B                     l14518:	
  2089                           ;Car_demo.c: 259: else
  2090                           ;Car_demo.c: 260: {
  2091                           ;Car_demo.c: 261: Turn_PWM = Trace_PID();
  2092  024B  120A  118A  2298   	fcall	_Trace_PID
              120A  118A         
  2093  0250  1283               	bcf	status, 5	;RP0=0, select bank0
  2094  0251  1303               	bcf	status, 6	;RP1=0, select bank0
  2095  0252  085A               	movf	(1+(?_Trace_PID)),w
  2096  0253  01E6               	clrf	(_Turn_PWM+1)
  2097  0254  07E6               	addwf	(_Turn_PWM+1)
  2098  0255  0859               	movf	(0+(?_Trace_PID)),w
  2099  0256  01E5               	clrf	(_Turn_PWM)
  2100  0257  07E5               	addwf	(_Turn_PWM)
  2101                           
  2102                           	line	262
  2103                           	
  2104  0258                     l14520:	
  2105                           ;Car_demo.c: 262: Speed_left = 40 - Turn_PWM;
  2106  0258  0365               	decf	(_Turn_PWM),w
  2107  0259  3AFF               	xorlw	0ffh
  2108  025A  3E28               	addlw	028h
  2109  025B  1683               	bsf	status, 5	;RP0=1, select bank1
  2110  025C  1303               	bcf	status, 6	;RP1=0, select bank1
  2111  025D  00E0               	movwf	(??_main+0)^080h+0
  2112  025E  0860               	movf	(??_main+0)^080h+0,w
  2113  025F  1283               	bcf	status, 5	;RP0=0, select bank0
  2114  0260  1303               	bcf	status, 6	;RP1=0, select bank0
  2115  0261  00EA               	movwf	(_Speed_left)
  2116                           	line	263
  2117                           	
  2118  0262                     l14522:	
  2119                           ;Car_demo.c: 263: Speed_right = 40 + Turn_PWM;
  2120  0262  0865               	movf	(_Turn_PWM),w
  2121  0263  3E28               	addlw	028h
  2122  0264  1683               	bsf	status, 5	;RP0=1, select bank1
  2123  0265  1303               	bcf	status, 6	;RP1=0, select bank1
  2124  0266  00E0               	movwf	(??_main+0)^080h+0
  2125  0267  0860               	movf	(??_main+0)^080h+0,w
  2126  0268  1283               	bcf	status, 5	;RP0=0, select bank0
  2127  0269  1303               	bcf	status, 6	;RP1=0, select bank0
  2128  026A  00EB               	movwf	(_Speed_right)
  2129                           	line	264
  2130                           	
  2131  026B                     l14524:	
  2132                           ;Car_demo.c: 264: Motor_Speed_Set(Speed_left,Speed_right);
  2133  026B  086A               	movf	(_Speed_left),w
  2134  026C  1683               	bsf	status, 5	;RP0=1, select bank1
  2135  026D  1303               	bcf	status, 6	;RP1=0, select bank1
  2136  026E  00E0               	movwf	(??_main+0)^080h+0
  2137  026F  01E1               	clrf	(??_main+0)^080h+0+1
  2138  0270  0860               	movf	0+(??_main+0)^080h+0,w
  2139  0271  1283               	bcf	status, 5	;RP0=0, select bank0
  2140  0272  1303               	bcf	status, 6	;RP1=0, select bank0
  2141  0273  00A0               	movwf	(?_Motor_Speed_Set)
  2142  0274  1683               	bsf	status, 5	;RP0=1, select bank1
  2143  0275  1303               	bcf	status, 6	;RP1=0, select bank1
  2144  0276  0861               	movf	1+(??_main+0)^080h+0,w
  2145  0277  1283               	bcf	status, 5	;RP0=0, select bank0
  2146  0278  1303               	bcf	status, 6	;RP1=0, select bank0
  2147  0279  00A1               	movwf	(?_Motor_Speed_Set+1)
  2148  027A  086B               	movf	(_Speed_right),w
  2149  027B  1683               	bsf	status, 5	;RP0=1, select bank1
  2150  027C  1303               	bcf	status, 6	;RP1=0, select bank1
  2151  027D  00E2               	movwf	(??_main+2)^080h+0
  2152  027E  01E3               	clrf	(??_main+2)^080h+0+1
  2153  027F  0862               	movf	0+(??_main+2)^080h+0,w
  2154  0280  1283               	bcf	status, 5	;RP0=0, select bank0
  2155  0281  1303               	bcf	status, 6	;RP1=0, select bank0
  2156  0282  00A2               	movwf	0+(?_Motor_Speed_Set)+02h
  2157  0283  1683               	bsf	status, 5	;RP0=1, select bank1
  2158  0284  1303               	bcf	status, 6	;RP1=0, select bank1
  2159  0285  0863               	movf	1+(??_main+2)^080h+0,w
  2160  0286  1283               	bcf	status, 5	;RP0=0, select bank0
  2161  0287  1303               	bcf	status, 6	;RP1=0, select bank0
  2162  0288  00A3               	movwf	1+(?_Motor_Speed_Set)+02h
  2163  0289  120A  158A  2700   	fcall	_Motor_Speed_Set
              120A  118A         
  2164  028E  28A0               	goto	l14428
  2165                           	line	265
  2166                           	
  2167  028F                     l10001:	
  2168  028F  28A0               	goto	l14428
  2169                           	line	266
  2170                           	
  2171  0290                     l9998:	
  2172  0290  28A0               	goto	l14428
  2173                           	line	267
  2174                           	
  2175  0291                     l9997:	
  2176  0291  28A0               	goto	l14428
  2177                           	
  2178  0292                     l9988:	
  2179  0292  28A0               	goto	l14428
  2180                           	
  2181  0293                     l9982:	
  2182  0293  28A0               	goto	l14428
  2183                           	
  2184  0294                     l10002:	
  2185                           	line	162
  2186  0294  28A0               	goto	l14428
  2187                           	
  2188  0295                     l10003:	
  2189                           	line	268
  2190                           	
  2191  0295                     l10004:	
  2192                           	global	start
  2193  0295  120A  118A  2812   	ljmp	start
  2194                           	opt stack 0
  2195                           GLOBAL	__end_of_main
  2196  0298                     	__end_of_main:
  2197 ;; =============== function _main ends ============
  2198                           
  2199                           	signat	_main,88
  2200                           	global	_Trace_PID
  2201                           psect	text994,local,class=CODE,delta=2
  2202                           global __ptext994
  2203  0298                     __ptext994:
  2204                           
  2205 ;; *************** function _Trace_PID *****************
  2206 ;; Defined at:
  2207 ;;		line 21 in file "D:\6_pic_project\00_Design_Flow_Car\Driver\pid.c"
  2208 ;; Parameters:    Size  Location     Type
  2209 ;;		None
  2210 ;; Auto vars:     Size  Location     Type
  2211 ;;		None
  2212 ;; Return value:  Size  Location     Type
  2213 ;;                  2   57[BANK0 ] int 
  2214 ;; Registers used:
  2215 ;;		wreg, fsr0l, fsr0h, status,2, status,0, pclath, cstack
  2216 ;; Tracked objects:
  2217 ;;		On entry : 0/0
  2218 ;;		On exit  : 0/0
  2219 ;;		Unchanged: 0/0
  2220 ;; Data sizes:     COMMON   BANK0   BANK1   BANK3   BANK2
  2221 ;;      Params:         0       2       0       0       0
  2222 ;;      Locals:         0       0       0       0       0
  2223 ;;      Temps:          0       8       0       0       0
  2224 ;;      Totals:         0      10       0       0       0
  2225 ;;Total ram usage:       10 bytes
  2226 ;; Hardware stack levels used:    1
  2227 ;; Hardware stack levels required when called:    3
  2228 ;; This function calls:
  2229 ;;		___awtoft
  2230 ;;		___ftmul
  2231 ;;		___wmul
  2232 ;;		___ftadd
  2233 ;;		___fttol
  2234 ;; This function is called by:
  2235 ;;		_main
  2236 ;; This function uses a non-reentrant model
  2237 ;;
  2238                           psect	text994
  2239                           	file	"D:\6_pic_project\00_Design_Flow_Car\Driver\pid.c"
  2240                           	line	21
  2241                           	global	__size_of_Trace_PID
  2242  0199                     	__size_of_Trace_PID	equ	__end_of_Trace_PID-_Trace_PID
  2243                           	
  2244  0298                     _Trace_PID:	
  2245                           	opt	stack 4
  2246                           ; Regs used in _Trace_PID: [wreg-fsr0h+status,2+status,0+pclath+cstack]
  2247                           	line	22
  2248                           	
  2249  0298                     l14362:	
  2250                           ;pid.c: 22: Trace_Byte = (RC0<<7|RC3<<6|RE0<<5|RE1<<4|RE2<<3|RA4<<2|RC4<<1|RC5);
  2251  0298  3000               	movlw	0
  2252  0299  1283               	bcf	status, 5	;RP0=0, select bank0
  2253  029A  1303               	bcf	status, 6	;RP1=0, select bank0
  2254  029B  1A87               	btfsc	(61/8),(61)&7
  2255  029C  3001               	movlw	1
  2256  029D  00DB               	movwf	(??_Trace_PID+0)+0
  2257  029E  3000               	movlw	0
  2258  029F  1A07               	btfsc	(60/8),(60)&7
  2259  02A0  3001               	movlw	1
  2260  02A1  00DC               	movwf	(??_Trace_PID+1)+0
  2261  02A2  3001               	movlw	01h
  2262  02A3                     u6105:
  2263  02A3  1003               	clrc
  2264  02A4  0DDC               	rlf	(??_Trace_PID+1)+0,f
  2265  02A5  3EFF               	addlw	-1
  2266  02A6  1D03               	skipz
  2267  02A7  2AA3               	goto	u6105
  2268  02A8  3000               	movlw	0
  2269  02A9  1A05               	btfsc	(44/8),(44)&7
  2270  02AA  3001               	movlw	1
  2271  02AB  00DD               	movwf	(??_Trace_PID+2)+0
  2272  02AC  3002               	movlw	02h
  2273  02AD                     u6115:
  2274  02AD  1003               	clrc
  2275  02AE  0DDD               	rlf	(??_Trace_PID+2)+0,f
  2276  02AF  3EFF               	addlw	-1
  2277  02B0  1D03               	skipz
  2278  02B1  2AAD               	goto	u6115
  2279  02B2  3000               	movlw	0
  2280  02B3  1909               	btfsc	(74/8),(74)&7
  2281  02B4  3001               	movlw	1
  2282  02B5  00DE               	movwf	(??_Trace_PID+3)+0
  2283  02B6  3003               	movlw	03h
  2284  02B7                     u6125:
  2285  02B7  1003               	clrc
  2286  02B8  0DDE               	rlf	(??_Trace_PID+3)+0,f
  2287  02B9  3EFF               	addlw	-1
  2288  02BA  1D03               	skipz
  2289  02BB  2AB7               	goto	u6125
  2290  02BC  3000               	movlw	0
  2291  02BD  1889               	btfsc	(73/8),(73)&7
  2292  02BE  3001               	movlw	1
  2293  02BF  00DF               	movwf	(??_Trace_PID+4)+0
  2294  02C0  3004               	movlw	04h
  2295  02C1                     u6135:
  2296  02C1  1003               	clrc
  2297  02C2  0DDF               	rlf	(??_Trace_PID+4)+0,f
  2298  02C3  3EFF               	addlw	-1
  2299  02C4  1D03               	skipz
  2300  02C5  2AC1               	goto	u6135
  2301  02C6  3000               	movlw	0
  2302  02C7  1809               	btfsc	(72/8),(72)&7
  2303  02C8  3001               	movlw	1
  2304  02C9  00E0               	movwf	(??_Trace_PID+5)+0
  2305  02CA  3005               	movlw	05h
  2306  02CB                     u6145:
  2307  02CB  1003               	clrc
  2308  02CC  0DE0               	rlf	(??_Trace_PID+5)+0,f
  2309  02CD  3EFF               	addlw	-1
  2310  02CE  1D03               	skipz
  2311  02CF  2ACB               	goto	u6145
  2312  02D0  3000               	movlw	0
  2313  02D1  1987               	btfsc	(59/8),(59)&7
  2314  02D2  3001               	movlw	1
  2315  02D3  00E1               	movwf	(??_Trace_PID+6)+0
  2316  02D4  3006               	movlw	06h
  2317  02D5                     u6155:
  2318  02D5  1003               	clrc
  2319  02D6  0DE1               	rlf	(??_Trace_PID+6)+0,f
  2320  02D7  3EFF               	addlw	-1
  2321  02D8  1D03               	skipz
  2322  02D9  2AD5               	goto	u6155
  2323  02DA  3000               	movlw	0
  2324  02DB  1807               	btfsc	(56/8),(56)&7
  2325  02DC  3080               	movlw	(1 << (07h))
  2326  02DD  0461               	iorwf	0+(??_Trace_PID+6)+0,w
  2327  02DE  0460               	iorwf	0+(??_Trace_PID+5)+0,w
  2328  02DF  045F               	iorwf	0+(??_Trace_PID+4)+0,w
  2329  02E0  045E               	iorwf	0+(??_Trace_PID+3)+0,w
  2330  02E1  045D               	iorwf	0+(??_Trace_PID+2)+0,w
  2331  02E2  045C               	iorwf	0+(??_Trace_PID+1)+0,w
  2332  02E3  045B               	iorwf	(??_Trace_PID+0)+0,w
  2333  02E4  00E2               	movwf	(??_Trace_PID+7)+0
  2334  02E5  0862               	movf	(??_Trace_PID+7)+0,w
  2335  02E6  00EE               	movwf	(_Trace_Byte)
  2336                           	line	24
  2337                           ;pid.c: 24: switch(Trace_Byte)
  2338  02E7  2B50               	goto	l14396
  2339                           	line	27
  2340                           ;pid.c: 25: {
  2341                           ;pid.c: 27: case 0B11100111:
  2342                           	
  2343  02E8                     l8454:	
  2344                           	line	28
  2345                           	
  2346  02E8                     l14364:	
  2347                           ;pid.c: 28: turn_err=0;
  2348  02E8  1683               	bsf	status, 5	;RP0=1, select bank1
  2349  02E9  1303               	bcf	status, 6	;RP1=0, select bank1
  2350  02EA  01C4               	clrf	(_turn_err)^080h
  2351  02EB  01C5               	clrf	(_turn_err+1)^080h
  2352                           	line	29
  2353                           ;pid.c: 29: break;
  2354  02EC  2B80               	goto	l14398
  2355                           	line	30
  2356                           ;pid.c: 30: case 0B11110111:
  2357                           	
  2358  02ED                     l8456:	
  2359                           	line	31
  2360                           	
  2361  02ED                     l14366:	
  2362                           ;pid.c: 31: turn_err=-1;
  2363  02ED  30FF               	movlw	low(-1)
  2364  02EE  1683               	bsf	status, 5	;RP0=1, select bank1
  2365  02EF  1303               	bcf	status, 6	;RP1=0, select bank1
  2366  02F0  00C4               	movwf	(_turn_err)^080h
  2367  02F1  30FF               	movlw	high(-1)
  2368  02F2  00C5               	movwf	((_turn_err)^080h)+1
  2369                           	line	32
  2370                           ;pid.c: 32: break;
  2371  02F3  2B80               	goto	l14398
  2372                           	line	33
  2373                           ;pid.c: 33: case 0B11101111:
  2374                           	
  2375  02F4                     l8457:	
  2376                           	line	34
  2377                           	
  2378  02F4                     l14368:	
  2379                           ;pid.c: 34: turn_err=1;
  2380  02F4  3001               	movlw	low(01h)
  2381  02F5  1683               	bsf	status, 5	;RP0=1, select bank1
  2382  02F6  1303               	bcf	status, 6	;RP1=0, select bank1
  2383  02F7  00C4               	movwf	(_turn_err)^080h
  2384  02F8  3000               	movlw	high(01h)
  2385  02F9  00C5               	movwf	((_turn_err)^080h)+1
  2386                           	line	35
  2387                           ;pid.c: 35: break;
  2388  02FA  2B80               	goto	l14398
  2389                           	line	37
  2390                           ;pid.c: 37: case 0B11001111:
  2391                           	
  2392  02FB                     l8458:	
  2393                           	line	38
  2394                           	
  2395  02FB                     l14370:	
  2396                           ;pid.c: 38: turn_err=2;
  2397  02FB  3002               	movlw	low(02h)
  2398  02FC  1683               	bsf	status, 5	;RP0=1, select bank1
  2399  02FD  1303               	bcf	status, 6	;RP1=0, select bank1
  2400  02FE  00C4               	movwf	(_turn_err)^080h
  2401  02FF  3000               	movlw	high(02h)
  2402  0300  00C5               	movwf	((_turn_err)^080h)+1
  2403                           	line	39
  2404                           ;pid.c: 39: break;
  2405  0301  2B80               	goto	l14398
  2406                           	line	40
  2407                           ;pid.c: 40: case 0B11011111:
  2408                           	
  2409  0302                     l8459:	
  2410                           	line	41
  2411                           	
  2412  0302                     l14372:	
  2413                           ;pid.c: 41: turn_err=3;
  2414  0302  3003               	movlw	low(03h)
  2415  0303  1683               	bsf	status, 5	;RP0=1, select bank1
  2416  0304  1303               	bcf	status, 6	;RP1=0, select bank1
  2417  0305  00C4               	movwf	(_turn_err)^080h
  2418  0306  3000               	movlw	high(03h)
  2419  0307  00C5               	movwf	((_turn_err)^080h)+1
  2420                           	line	42
  2421                           ;pid.c: 42: break;
  2422  0308  2B80               	goto	l14398
  2423                           	line	43
  2424                           ;pid.c: 43: case 0B10011111:
  2425                           	
  2426  0309                     l8460:	
  2427                           	line	44
  2428                           	
  2429  0309                     l14374:	
  2430                           ;pid.c: 44: turn_err=4;
  2431  0309  3004               	movlw	low(04h)
  2432  030A  1683               	bsf	status, 5	;RP0=1, select bank1
  2433  030B  1303               	bcf	status, 6	;RP1=0, select bank1
  2434  030C  00C4               	movwf	(_turn_err)^080h
  2435  030D  3000               	movlw	high(04h)
  2436  030E  00C5               	movwf	((_turn_err)^080h)+1
  2437                           	line	45
  2438                           ;pid.c: 45: break;
  2439  030F  2B80               	goto	l14398
  2440                           	line	46
  2441                           ;pid.c: 46: case 0B10111111:
  2442                           	
  2443  0310                     l8461:	
  2444                           	line	47
  2445                           	
  2446  0310                     l14376:	
  2447                           ;pid.c: 47: turn_err=5;
  2448  0310  3005               	movlw	low(05h)
  2449  0311  1683               	bsf	status, 5	;RP0=1, select bank1
  2450  0312  1303               	bcf	status, 6	;RP1=0, select bank1
  2451  0313  00C4               	movwf	(_turn_err)^080h
  2452  0314  3000               	movlw	high(05h)
  2453  0315  00C5               	movwf	((_turn_err)^080h)+1
  2454                           	line	48
  2455                           ;pid.c: 48: break;
  2456  0316  2B80               	goto	l14398
  2457                           	line	49
  2458                           ;pid.c: 49: case 0B00111111:
  2459                           	
  2460  0317                     l8462:	
  2461                           	line	50
  2462                           	
  2463  0317                     l14378:	
  2464                           ;pid.c: 50: turn_err=6;
  2465  0317  3006               	movlw	low(06h)
  2466  0318  1683               	bsf	status, 5	;RP0=1, select bank1
  2467  0319  1303               	bcf	status, 6	;RP1=0, select bank1
  2468  031A  00C4               	movwf	(_turn_err)^080h
  2469  031B  3000               	movlw	high(06h)
  2470  031C  00C5               	movwf	((_turn_err)^080h)+1
  2471                           	line	51
  2472                           ;pid.c: 51: break;
  2473  031D  2B80               	goto	l14398
  2474                           	line	52
  2475                           ;pid.c: 52: case 0B01111111:
  2476                           	
  2477  031E                     l8463:	
  2478                           	line	53
  2479                           	
  2480  031E                     l14380:	
  2481                           ;pid.c: 53: turn_err=7;
  2482  031E  3007               	movlw	low(07h)
  2483  031F  1683               	bsf	status, 5	;RP0=1, select bank1
  2484  0320  1303               	bcf	status, 6	;RP1=0, select bank1
  2485  0321  00C4               	movwf	(_turn_err)^080h
  2486  0322  3000               	movlw	high(07h)
  2487  0323  00C5               	movwf	((_turn_err)^080h)+1
  2488                           	line	54
  2489                           ;pid.c: 54: break;
  2490  0324  2B80               	goto	l14398
  2491                           	line	57
  2492                           ;pid.c: 57: case 0B11110011:
  2493                           	
  2494  0325                     l8464:	
  2495                           	line	58
  2496                           	
  2497  0325                     l14382:	
  2498                           ;pid.c: 58: turn_err=-2;
  2499  0325  30FE               	movlw	low(-2)
  2500  0326  1683               	bsf	status, 5	;RP0=1, select bank1
  2501  0327  1303               	bcf	status, 6	;RP1=0, select bank1
  2502  0328  00C4               	movwf	(_turn_err)^080h
  2503  0329  30FF               	movlw	high(-2)
  2504  032A  00C5               	movwf	((_turn_err)^080h)+1
  2505                           	line	59
  2506                           ;pid.c: 59: break;
  2507  032B  2B80               	goto	l14398
  2508                           	line	60
  2509                           ;pid.c: 60: case 0B11111011:
  2510                           	
  2511  032C                     l8465:	
  2512                           	line	61
  2513                           	
  2514  032C                     l14384:	
  2515                           ;pid.c: 61: turn_err=-3;
  2516  032C  30FD               	movlw	low(-3)
  2517  032D  1683               	bsf	status, 5	;RP0=1, select bank1
  2518  032E  1303               	bcf	status, 6	;RP1=0, select bank1
  2519  032F  00C4               	movwf	(_turn_err)^080h
  2520  0330  30FF               	movlw	high(-3)
  2521  0331  00C5               	movwf	((_turn_err)^080h)+1
  2522                           	line	62
  2523                           ;pid.c: 62: break;
  2524  0332  2B80               	goto	l14398
  2525                           	line	63
  2526                           ;pid.c: 63: case 0B11111001:
  2527                           	
  2528  0333                     l8466:	
  2529                           	line	64
  2530                           	
  2531  0333                     l14386:	
  2532                           ;pid.c: 64: turn_err=-4;
  2533  0333  30FC               	movlw	low(-4)
  2534  0334  1683               	bsf	status, 5	;RP0=1, select bank1
  2535  0335  1303               	bcf	status, 6	;RP1=0, select bank1
  2536  0336  00C4               	movwf	(_turn_err)^080h
  2537  0337  30FF               	movlw	high(-4)
  2538  0338  00C5               	movwf	((_turn_err)^080h)+1
  2539                           	line	65
  2540                           ;pid.c: 65: break;
  2541  0339  2B80               	goto	l14398
  2542                           	line	66
  2543                           ;pid.c: 66: case 0B11111101:
  2544                           	
  2545  033A                     l8467:	
  2546                           	line	67
  2547                           	
  2548  033A                     l14388:	
  2549                           ;pid.c: 67: turn_err=-5;
  2550  033A  30FB               	movlw	low(-5)
  2551  033B  1683               	bsf	status, 5	;RP0=1, select bank1
  2552  033C  1303               	bcf	status, 6	;RP1=0, select bank1
  2553  033D  00C4               	movwf	(_turn_err)^080h
  2554  033E  30FF               	movlw	high(-5)
  2555  033F  00C5               	movwf	((_turn_err)^080h)+1
  2556                           	line	68
  2557                           ;pid.c: 68: break;
  2558  0340  2B80               	goto	l14398
  2559                           	line	69
  2560                           ;pid.c: 69: case 0B11111100:
  2561                           	
  2562  0341                     l8468:	
  2563                           	line	70
  2564                           	
  2565  0341                     l14390:	
  2566                           ;pid.c: 70: turn_err=-6;
  2567  0341  30FA               	movlw	low(-6)
  2568  0342  1683               	bsf	status, 5	;RP0=1, select bank1
  2569  0343  1303               	bcf	status, 6	;RP1=0, select bank1
  2570  0344  00C4               	movwf	(_turn_err)^080h
  2571  0345  30FF               	movlw	high(-6)
  2572  0346  00C5               	movwf	((_turn_err)^080h)+1
  2573                           	line	71
  2574                           ;pid.c: 71: break;
  2575  0347  2B80               	goto	l14398
  2576                           	line	72
  2577                           ;pid.c: 72: case 0B11111110:
  2578                           	
  2579  0348                     l8469:	
  2580                           	line	73
  2581                           	
  2582  0348                     l14392:	
  2583                           ;pid.c: 73: turn_err=-7;
  2584  0348  30F9               	movlw	low(-7)
  2585  0349  1683               	bsf	status, 5	;RP0=1, select bank1
  2586  034A  1303               	bcf	status, 6	;RP1=0, select bank1
  2587  034B  00C4               	movwf	(_turn_err)^080h
  2588  034C  30FF               	movlw	high(-7)
  2589  034D  00C5               	movwf	((_turn_err)^080h)+1
  2590                           	line	74
  2591                           ;pid.c: 74: break;
  2592  034E  2B80               	goto	l14398
  2593                           	line	75
  2594                           	
  2595  034F                     l14394:	
  2596                           ;pid.c: 75: }
  2597  034F  2B80               	goto	l14398
  2598                           	line	24
  2599                           	
  2600  0350                     l8453:	
  2601                           	
  2602  0350                     l14396:	
  2603  0350  1283               	bcf	status, 5	;RP0=0, select bank0
  2604  0351  086E               	movf	(_Trace_Byte),w
  2605                           	; Switch size 1, requested type "space"
  2606                           ; Number of cases is 15, Range of values is 63 to 254
  2607                           ; switch strategies available:
  2608                           ; Name         Instructions Cycles
  2609                           ; simple_byte           46    24 (average)
  2610                           ; jumptable            263     9 (fixed)
  2611                           ;	Chosen strategy is simple_byte
  2612                           
  2613                           	opt asmopt_off
  2614  0352  3A3F               	xorlw	63^0	; case 63
  2615  0353  1903               	skipnz
  2616  0354  2B17               	goto	l14378
  2617  0355  3A40               	xorlw	127^63	; case 127
  2618  0356  1903               	skipnz
  2619  0357  2B1E               	goto	l14380
  2620  0358  3AE0               	xorlw	159^127	; case 159
  2621  0359  1903               	skipnz
  2622  035A  2B09               	goto	l14374
  2623  035B  3A20               	xorlw	191^159	; case 191
  2624  035C  1903               	skipnz
  2625  035D  2B10               	goto	l14376
  2626  035E  3A70               	xorlw	207^191	; case 207
  2627  035F  1903               	skipnz
  2628  0360  2AFB               	goto	l14370
  2629  0361  3A10               	xorlw	223^207	; case 223
  2630  0362  1903               	skipnz
  2631  0363  2B02               	goto	l14372
  2632  0364  3A38               	xorlw	231^223	; case 231
  2633  0365  1903               	skipnz
  2634  0366  2AE8               	goto	l14364
  2635  0367  3A08               	xorlw	239^231	; case 239
  2636  0368  1903               	skipnz
  2637  0369  2AF4               	goto	l14368
  2638  036A  3A1C               	xorlw	243^239	; case 243
  2639  036B  1903               	skipnz
  2640  036C  2B25               	goto	l14382
  2641  036D  3A04               	xorlw	247^243	; case 247
  2642  036E  1903               	skipnz
  2643  036F  2AED               	goto	l14366
  2644  0370  3A0E               	xorlw	249^247	; case 249
  2645  0371  1903               	skipnz
  2646  0372  2B33               	goto	l14386
  2647  0373  3A02               	xorlw	251^249	; case 251
  2648  0374  1903               	skipnz
  2649  0375  2B2C               	goto	l14384
  2650  0376  3A07               	xorlw	252^251	; case 252
  2651  0377  1903               	skipnz
  2652  0378  2B41               	goto	l14390
  2653  0379  3A01               	xorlw	253^252	; case 253
  2654  037A  1903               	skipnz
  2655  037B  2B3A               	goto	l14388
  2656  037C  3A03               	xorlw	254^253	; case 254
  2657  037D  1903               	skipnz
  2658  037E  2B48               	goto	l14392
  2659  037F  2B80               	goto	l14398
  2660                           	opt asmopt_on
  2661                           
  2662                           	line	75
  2663                           	
  2664  0380                     l8455:	
  2665                           	line	77
  2666                           	
  2667  0380                     l14398:	
  2668                           ;pid.c: 77: err_difference= turn_err - last_err;
  2669  0380  1683               	bsf	status, 5	;RP0=1, select bank1
  2670  0381  1303               	bcf	status, 6	;RP1=0, select bank1
  2671  0382  0940               	comf	(_last_err)^080h,w
  2672  0383  1283               	bcf	status, 5	;RP0=0, select bank0
  2673  0384  1303               	bcf	status, 6	;RP1=0, select bank0
  2674  0385  00DB               	movwf	(??_Trace_PID+0)+0
  2675  0386  1683               	bsf	status, 5	;RP0=1, select bank1
  2676  0387  1303               	bcf	status, 6	;RP1=0, select bank1
  2677  0388  0941               	comf	(_last_err+1)^080h,w
  2678  0389  1283               	bcf	status, 5	;RP0=0, select bank0
  2679  038A  1303               	bcf	status, 6	;RP1=0, select bank0
  2680  038B  00DC               	movwf	((??_Trace_PID+0)+0+1)
  2681  038C  0ADB               	incf	(??_Trace_PID+0)+0,f
  2682  038D  1903               	skipnz
  2683  038E  0ADC               	incf	((??_Trace_PID+0)+0+1),f
  2684  038F  1683               	bsf	status, 5	;RP0=1, select bank1
  2685  0390  1303               	bcf	status, 6	;RP1=0, select bank1
  2686  0391  0844               	movf	(_turn_err)^080h,w
  2687  0392  1283               	bcf	status, 5	;RP0=0, select bank0
  2688  0393  1303               	bcf	status, 6	;RP1=0, select bank0
  2689  0394  075B               	addwf	0+(??_Trace_PID+0)+0,w
  2690  0395  1683               	bsf	status, 5	;RP0=1, select bank1
  2691  0396  1303               	bcf	status, 6	;RP1=0, select bank1
  2692  0397  00BE               	movwf	(_err_difference)^080h
  2693  0398  0845               	movf	(_turn_err+1)^080h,w
  2694  0399  1803               	skipnc
  2695  039A  0A45               	incf	(_turn_err+1)^080h,w
  2696  039B  1283               	bcf	status, 5	;RP0=0, select bank0
  2697  039C  1303               	bcf	status, 6	;RP1=0, select bank0
  2698  039D  075C               	addwf	1+(??_Trace_PID+0)+0,w
  2699  039E  1683               	bsf	status, 5	;RP0=1, select bank1
  2700  039F  1303               	bcf	status, 6	;RP1=0, select bank1
  2701  03A0  00BF               	movwf	1+(_err_difference)^080h
  2702                           	line	79
  2703                           ;pid.c: 79: last_err= turn_err;
  2704  03A1  0845               	movf	(_turn_err+1)^080h,w
  2705  03A2  01C1               	clrf	(_last_err+1)^080h
  2706  03A3  07C1               	addwf	(_last_err+1)^080h
  2707  03A4  0844               	movf	(_turn_err)^080h,w
  2708  03A5  01C0               	clrf	(_last_err)^080h
  2709  03A6  07C0               	addwf	(_last_err)^080h
  2710                           
  2711                           	line	81
  2712                           	
  2713  03A7                     l14400:	
  2714                           ;pid.c: 81: return (int)(turn_err*Kp + err_difference*Kd);
  2715  03A7  0845               	movf	(_turn_err+1)^080h,w
  2716  03A8  1283               	bcf	status, 5	;RP0=0, select bank0
  2717  03A9  1303               	bcf	status, 6	;RP1=0, select bank0
  2718  03AA  01B7               	clrf	(?___awtoft+1)
  2719  03AB  07B7               	addwf	(?___awtoft+1)
  2720  03AC  1683               	bsf	status, 5	;RP0=1, select bank1
  2721  03AD  1303               	bcf	status, 6	;RP1=0, select bank1
  2722  03AE  0844               	movf	(_turn_err)^080h,w
  2723  03AF  1283               	bcf	status, 5	;RP0=0, select bank0
  2724  03B0  1303               	bcf	status, 6	;RP1=0, select bank0
  2725  03B1  01B6               	clrf	(?___awtoft)
  2726  03B2  07B6               	addwf	(?___awtoft)
  2727                           
  2728  03B3  120A  158A  269D   	fcall	___awtoft
              120A  118A         
  2729  03B8  1283               	bcf	status, 5	;RP0=0, select bank0
  2730  03B9  1303               	bcf	status, 6	;RP1=0, select bank0
  2731  03BA  0836               	movf	(0+(?___awtoft)),w
  2732  03BB  00BF               	movwf	0+(?___ftmul)+03h
  2733  03BC  0837               	movf	(1+(?___awtoft)),w
  2734  03BD  00C0               	movwf	1+(?___ftmul)+03h
  2735  03BE  0838               	movf	(2+(?___awtoft)),w
  2736  03BF  00C1               	movwf	2+(?___ftmul)+03h
  2737  03C0  1683               	bsf	status, 5	;RP0=1, select bank1
  2738  03C1  1303               	bcf	status, 6	;RP1=0, select bank1
  2739  03C2  085D               	movf	(_Kp)^080h,w
  2740  03C3  1283               	bcf	status, 5	;RP0=0, select bank0
  2741  03C4  1303               	bcf	status, 6	;RP1=0, select bank0
  2742  03C5  00BC               	movwf	(?___ftmul)
  2743  03C6  1683               	bsf	status, 5	;RP0=1, select bank1
  2744  03C7  1303               	bcf	status, 6	;RP1=0, select bank1
  2745  03C8  085E               	movf	(_Kp+1)^080h,w
  2746  03C9  1283               	bcf	status, 5	;RP0=0, select bank0
  2747  03CA  1303               	bcf	status, 6	;RP1=0, select bank0
  2748  03CB  00BD               	movwf	(?___ftmul+1)
  2749  03CC  1683               	bsf	status, 5	;RP0=1, select bank1
  2750  03CD  1303               	bcf	status, 6	;RP1=0, select bank1
  2751  03CE  085F               	movf	(_Kp+2)^080h,w
  2752  03CF  1283               	bcf	status, 5	;RP0=0, select bank0
  2753  03D0  1303               	bcf	status, 6	;RP1=0, select bank0
  2754  03D1  00BE               	movwf	(?___ftmul+2)
  2755  03D2  120A  118A  2577   	fcall	___ftmul
              120A  118A         
  2756  03D7  1283               	bcf	status, 5	;RP0=0, select bank0
  2757  03D8  1303               	bcf	status, 6	;RP1=0, select bank0
  2758  03D9  083C               	movf	(0+(?___ftmul)),w
  2759  03DA  00CF               	movwf	0+(?___ftadd)+03h
  2760  03DB  083D               	movf	(1+(?___ftmul)),w
  2761  03DC  00D0               	movwf	1+(?___ftadd)+03h
  2762  03DD  083E               	movf	(2+(?___ftmul)),w
  2763  03DE  00D1               	movwf	2+(?___ftadd)+03h
  2764  03DF  1683               	bsf	status, 5	;RP0=1, select bank1
  2765  03E0  1303               	bcf	status, 6	;RP1=0, select bank1
  2766  03E1  082B               	movf	(_Kd+1)^080h,w
  2767  03E2  1283               	bcf	status, 5	;RP0=0, select bank0
  2768  03E3  1303               	bcf	status, 6	;RP1=0, select bank0
  2769  03E4  01A3               	clrf	1+(?___wmul)+02h
  2770  03E5  07A3               	addwf	1+(?___wmul)+02h
  2771  03E6  1683               	bsf	status, 5	;RP0=1, select bank1
  2772  03E7  1303               	bcf	status, 6	;RP1=0, select bank1
  2773  03E8  082A               	movf	(_Kd)^080h,w
  2774  03E9  1283               	bcf	status, 5	;RP0=0, select bank0
  2775  03EA  1303               	bcf	status, 6	;RP1=0, select bank0
  2776  03EB  01A2               	clrf	0+(?___wmul)+02h
  2777  03EC  07A2               	addwf	0+(?___wmul)+02h
  2778                           
  2779  03ED  1683               	bsf	status, 5	;RP0=1, select bank1
  2780  03EE  1303               	bcf	status, 6	;RP1=0, select bank1
  2781  03EF  083F               	movf	(_err_difference+1)^080h,w
  2782  03F0  1283               	bcf	status, 5	;RP0=0, select bank0
  2783  03F1  1303               	bcf	status, 6	;RP1=0, select bank0
  2784  03F2  01A1               	clrf	(?___wmul+1)
  2785  03F3  07A1               	addwf	(?___wmul+1)
  2786  03F4  1683               	bsf	status, 5	;RP0=1, select bank1
  2787  03F5  1303               	bcf	status, 6	;RP1=0, select bank1
  2788  03F6  083E               	movf	(_err_difference)^080h,w
  2789  03F7  1283               	bcf	status, 5	;RP0=0, select bank0
  2790  03F8  1303               	bcf	status, 6	;RP1=0, select bank0
  2791  03F9  01A0               	clrf	(?___wmul)
  2792  03FA  07A0               	addwf	(?___wmul)
  2793                           
  2794  03FB  120A  158A  2671   	fcall	___wmul
              120A  118A         
  2795  0400  1283               	bcf	status, 5	;RP0=0, select bank0
  2796  0401  1303               	bcf	status, 6	;RP1=0, select bank0
  2797  0402  0821               	movf	(1+(?___wmul)),w
  2798  0403  01B7               	clrf	(?___awtoft+1)
  2799  0404  07B7               	addwf	(?___awtoft+1)
  2800  0405  0820               	movf	(0+(?___wmul)),w
  2801  0406  01B6               	clrf	(?___awtoft)
  2802  0407  07B6               	addwf	(?___awtoft)
  2803                           
  2804  0408  120A  158A  269D   	fcall	___awtoft
              120A  118A         
  2805  040D  1283               	bcf	status, 5	;RP0=0, select bank0
  2806  040E  1303               	bcf	status, 6	;RP1=0, select bank0
  2807  040F  0836               	movf	(0+(?___awtoft)),w
  2808  0410  00CC               	movwf	(?___ftadd)
  2809  0411  0837               	movf	(1+(?___awtoft)),w
  2810  0412  00CD               	movwf	(?___ftadd+1)
  2811  0413  0838               	movf	(2+(?___awtoft)),w
  2812  0414  00CE               	movwf	(?___ftadd+2)
  2813  0415  120A  118A  2431   	fcall	___ftadd
              120A  118A         
  2814  041A  1283               	bcf	status, 5	;RP0=0, select bank0
  2815  041B  1303               	bcf	status, 6	;RP1=0, select bank0
  2816  041C  084C               	movf	(0+(?___ftadd)),w
  2817  041D  00A8               	movwf	(?___fttol)
  2818  041E  084D               	movf	(1+(?___ftadd)),w
  2819  041F  00A9               	movwf	(?___fttol+1)
  2820  0420  084E               	movf	(2+(?___ftadd)),w
  2821  0421  00AA               	movwf	(?___fttol+2)
  2822  0422  120A  118A  2665   	fcall	___fttol
              120A  118A         
  2823  0427  1283               	bcf	status, 5	;RP0=0, select bank0
  2824  0428  1303               	bcf	status, 6	;RP1=0, select bank0
  2825  0429  0829               	movf	1+(((0+(?___fttol)))),w
  2826  042A  01DA               	clrf	(?_Trace_PID+1)
  2827  042B  07DA               	addwf	(?_Trace_PID+1)
  2828  042C  0828               	movf	0+(((0+(?___fttol)))),w
  2829  042D  01D9               	clrf	(?_Trace_PID)
  2830  042E  07D9               	addwf	(?_Trace_PID)
  2831                           
  2832  042F  2C30               	goto	l8470
  2833                           	
  2834  0430                     l14402:	
  2835                           	line	82
  2836                           	
  2837  0430                     l8470:	
  2838  0430  0008               	return
  2839                           	opt stack 0
  2840                           GLOBAL	__end_of_Trace_PID
  2841  0431                     	__end_of_Trace_PID:
  2842 ;; =============== function _Trace_PID ends ============
  2843                           
  2844                           	signat	_Trace_PID,90
  2845                           	global	_LCD1602_WriteString
  2846                           psect	text995,local,class=CODE,delta=2
  2847                           global __ptext995
  2848  0F3B                     __ptext995:
  2849                           
  2850 ;; *************** function _LCD1602_WriteString *****************
  2851 ;; Defined at:
  2852 ;;		line 84 in file "D:\6_pic_project\00_Design_Flow_Car\Driver\LCD1602.c"
  2853 ;; Parameters:    Size  Location     Type
  2854 ;;  row             1    wreg     unsigned char 
  2855 ;;  column          1    3[BANK0 ] unsigned char 
  2856 ;;  String          1    4[BANK0 ] PTR unsigned char 
  2857 ;;		 -> STR_3(7), STR_2(6), 
  2858 ;; Auto vars:     Size  Location     Type
  2859 ;;  row             1    7[BANK0 ] unsigned char 
  2860 ;;  Location        1    6[BANK0 ] unsigned char 
  2861 ;; Return value:  Size  Location     Type
  2862 ;;		None               void
  2863 ;; Registers used:
  2864 ;;		wreg, fsr0l, fsr0h, status,2, status,0, pclath, cstack
  2865 ;; Tracked objects:
  2866 ;;		On entry : 0/0
  2867 ;;		On exit  : 0/0
  2868 ;;		Unchanged: 0/0
  2869 ;; Data sizes:     COMMON   BANK0   BANK1   BANK3   BANK2
  2870 ;;      Params:         0       2       0       0       0
  2871 ;;      Locals:         0       2       0       0       0
  2872 ;;      Temps:          0       1       0       0       0
  2873 ;;      Totals:         0       5       0       0       0
  2874 ;;Total ram usage:        5 bytes
  2875 ;; Hardware stack levels used:    1
  2876 ;; Hardware stack levels required when called:    3
  2877 ;; This function calls:
  2878 ;;		_LCD1602_WriteCommand
  2879 ;;		_LCD1602_WriteData
  2880 ;; This function is called by:
  2881 ;;		_main
  2882 ;; This function uses a non-reentrant model
  2883 ;;
  2884                           psect	text995
  2885                           	file	"D:\6_pic_project\00_Design_Flow_Car\Driver\LCD1602.c"
  2886                           	line	84
  2887                           	global	__size_of_LCD1602_WriteString
  2888  0048                     	__size_of_LCD1602_WriteString	equ	__end_of_LCD1602_WriteString-_LCD1602_WriteString
  2889                           	
  2890  0F3B                     _LCD1602_WriteString:	
  2891                           	opt	stack 4
  2892                           ; Regs used in _LCD1602_WriteString: [wreg-fsr0h+status,2+status,0+pclath+cstack]
  2893                           ;LCD1602_WriteString@row stored from wreg
  2894                           	line	86
  2895  0F3B  1283               	bcf	status, 5	;RP0=0, select bank0
  2896  0F3C  1303               	bcf	status, 6	;RP1=0, select bank0
  2897  0F3D  00A7               	movwf	(LCD1602_WriteString@row)
  2898                           	
  2899  0F3E                     l14346:	
  2900                           ;LCD1602.c: 85: unsigned char Location;
  2901                           ;LCD1602.c: 86: if(row == 1)
  2902  0F3E  0827               	movf	(LCD1602_WriteString@row),w
  2903  0F3F  3A01               	xorlw	01h
  2904  0F40  1D03               	skipz
  2905  0F41  2F43               	goto	u6071
  2906  0F42  2F44               	goto	u6070
  2907  0F43                     u6071:
  2908  0F43  2F4A               	goto	l14350
  2909  0F44                     u6070:
  2910                           	line	88
  2911                           	
  2912  0F44                     l14348:	
  2913                           ;LCD1602.c: 87: {
  2914                           ;LCD1602.c: 88: Location = 0x80 + column;
  2915  0F44  0823               	movf	(LCD1602_WriteString@column),w
  2916  0F45  3E80               	addlw	080h
  2917  0F46  00A5               	movwf	(??_LCD1602_WriteString+0)+0
  2918  0F47  0825               	movf	(??_LCD1602_WriteString+0)+0,w
  2919  0F48  00A6               	movwf	(LCD1602_WriteString@Location)
  2920                           	line	89
  2921                           ;LCD1602.c: 89: }
  2922  0F49  2F57               	goto	l14354
  2923                           	line	90
  2924                           	
  2925  0F4A                     l705:	
  2926                           	
  2927  0F4A                     l14350:	
  2928                           ;LCD1602.c: 90: else if(row == 2)
  2929  0F4A  0827               	movf	(LCD1602_WriteString@row),w
  2930  0F4B  3A02               	xorlw	02h
  2931  0F4C  1D03               	skipz
  2932  0F4D  2F4F               	goto	u6081
  2933  0F4E  2F50               	goto	u6080
  2934  0F4F                     u6081:
  2935  0F4F  2F57               	goto	l14354
  2936  0F50                     u6080:
  2937                           	line	92
  2938                           	
  2939  0F50                     l14352:	
  2940                           ;LCD1602.c: 91: {
  2941                           ;LCD1602.c: 92: Location = 0xC0 + column;
  2942  0F50  0823               	movf	(LCD1602_WriteString@column),w
  2943  0F51  3EC0               	addlw	0C0h
  2944  0F52  00A5               	movwf	(??_LCD1602_WriteString+0)+0
  2945  0F53  0825               	movf	(??_LCD1602_WriteString+0)+0,w
  2946  0F54  00A6               	movwf	(LCD1602_WriteString@Location)
  2947  0F55  2F57               	goto	l14354
  2948                           	line	93
  2949                           	
  2950  0F56                     l707:	
  2951  0F56  2F57               	goto	l14354
  2952                           	line	94
  2953                           	
  2954  0F57                     l706:	
  2955                           	
  2956  0F57                     l14354:	
  2957                           ;LCD1602.c: 93: }
  2958                           ;LCD1602.c: 94: LCD1602_WriteCommand(Location);
  2959  0F57  0826               	movf	(LCD1602_WriteString@Location),w
  2960  0F58  120A  158A  2592   	fcall	_LCD1602_WriteCommand
              120A  158A         
  2961                           	line	97
  2962                           ;LCD1602.c: 97: while(*String != '\0')
  2963  0F5D  2F73               	goto	l14360
  2964                           	
  2965  0F5E                     l709:	
  2966                           	line	99
  2967                           	
  2968  0F5E                     l14356:	
  2969                           ;LCD1602.c: 98: {
  2970                           ;LCD1602.c: 99: LCD1602_WriteData(*String++);
  2971  0F5E  1283               	bcf	status, 5	;RP0=0, select bank0
  2972  0F5F  1303               	bcf	status, 6	;RP1=0, select bank0
  2973  0F60  0824               	movf	(LCD1602_WriteString@String),w
  2974  0F61  0084               	movwf	fsr0
  2975  0F62  120A  158A  2000   	fcall	stringdir
              120A  158A         
  2976  0F67  120A  158A  25A3   	fcall	_LCD1602_WriteData
              120A  158A         
  2977                           	
  2978  0F6C                     l14358:	
  2979  0F6C  3001               	movlw	(01h)
  2980  0F6D  1283               	bcf	status, 5	;RP0=0, select bank0
  2981  0F6E  1303               	bcf	status, 6	;RP1=0, select bank0
  2982  0F6F  00A5               	movwf	(??_LCD1602_WriteString+0)+0
  2983  0F70  0825               	movf	(??_LCD1602_WriteString+0)+0,w
  2984  0F71  07A4               	addwf	(LCD1602_WriteString@String),f
  2985  0F72  2F73               	goto	l14360
  2986                           	line	100
  2987                           	
  2988  0F73                     l708:	
  2989                           	line	97
  2990                           	
  2991  0F73                     l14360:	
  2992  0F73  1283               	bcf	status, 5	;RP0=0, select bank0
  2993  0F74  1303               	bcf	status, 6	;RP1=0, select bank0
  2994  0F75  0824               	movf	(LCD1602_WriteString@String),w
  2995  0F76  0084               	movwf	fsr0
  2996  0F77  120A  158A  2000   	fcall	stringdir
              120A  158A         
  2997  0F7C  3800               	iorlw	0
  2998  0F7D  1D03               	skipz
  2999  0F7E  2F80               	goto	u6091
  3000  0F7F  2F81               	goto	u6090
  3001  0F80                     u6091:
  3002  0F80  2F5E               	goto	l14356
  3003  0F81                     u6090:
  3004  0F81  2F82               	goto	l711
  3005                           	
  3006  0F82                     l710:	
  3007                           	line	101
  3008                           	
  3009  0F82                     l711:	
  3010  0F82  0008               	return
  3011                           	opt stack 0
  3012                           GLOBAL	__end_of_LCD1602_WriteString
  3013  0F83                     	__end_of_LCD1602_WriteString:
  3014 ;; =============== function _LCD1602_WriteString ends ============
  3015                           
  3016                           	signat	_LCD1602_WriteString,12408
  3017                           	global	_LCD1602_Init
  3018                           psect	text996,local,class=CODE,delta=2
  3019                           global __ptext996
  3020  0E23                     __ptext996:
  3021                           
  3022 ;; *************** function _LCD1602_Init *****************
  3023 ;; Defined at:
  3024 ;;		line 45 in file "D:\6_pic_project\00_Design_Flow_Car\Driver\LCD1602.c"
  3025 ;; Parameters:    Size  Location     Type
  3026 ;;		None
  3027 ;; Auto vars:     Size  Location     Type
  3028 ;;		None
  3029 ;; Return value:  Size  Location     Type
  3030 ;;		None               void
  3031 ;; Registers used:
  3032 ;;		wreg, status,2, status,0, pclath, cstack
  3033 ;; Tracked objects:
  3034 ;;		On entry : 0/0
  3035 ;;		On exit  : 0/0
  3036 ;;		Unchanged: 0/0
  3037 ;; Data sizes:     COMMON   BANK0   BANK1   BANK3   BANK2
  3038 ;;      Params:         0       0       0       0       0
  3039 ;;      Locals:         0       0       0       0       0
  3040 ;;      Temps:          0       0       0       0       0
  3041 ;;      Totals:         0       0       0       0       0
  3042 ;;Total ram usage:        0 bytes
  3043 ;; Hardware stack levels used:    1
  3044 ;; Hardware stack levels required when called:    3
  3045 ;; This function calls:
  3046 ;;		_LCD1602_Delay
  3047 ;;		_LCD1602_WriteCommand
  3048 ;; This function is called by:
  3049 ;;		_main
  3050 ;; This function uses a non-reentrant model
  3051 ;;
  3052                           psect	text996
  3053                           	file	"D:\6_pic_project\00_Design_Flow_Car\Driver\LCD1602.c"
  3054                           	line	45
  3055                           	global	__size_of_LCD1602_Init
  3056  0027                     	__size_of_LCD1602_Init	equ	__end_of_LCD1602_Init-_LCD1602_Init
  3057                           	
  3058  0E23                     _LCD1602_Init:	
  3059                           	opt	stack 4
  3060                           ; Regs used in _LCD1602_Init: [wreg+status,2+status,0+pclath+cstack]
  3061                           	line	46
  3062                           	
  3063  0E23                     l14332:	
  3064                           ;LCD1602.c: 46: PORTD=0X00;
  3065  0E23  1283               	bcf	status, 5	;RP0=0, select bank0
  3066  0E24  1303               	bcf	status, 6	;RP1=0, select bank0
  3067  0E25  0188               	clrf	(8)	;volatile
  3068                           	line	47
  3069                           	
  3070  0E26                     l14334:	
  3071                           ;LCD1602.c: 47: LCD1602_Delay();
  3072  0E26  120A  158A  2607   	fcall	_LCD1602_Delay
              120A  158A         
  3073                           	line	48
  3074                           	
  3075  0E2B                     l14336:	
  3076                           ;LCD1602.c: 48: LCD1602_WriteCommand(0x01);
  3077  0E2B  3001               	movlw	(01h)
  3078  0E2C  120A  158A  2592   	fcall	_LCD1602_WriteCommand
              120A  158A         
  3079                           	line	49
  3080                           	
  3081  0E31                     l14338:	
  3082                           ;LCD1602.c: 49: LCD1602_WriteCommand(0x38);
  3083  0E31  3038               	movlw	(038h)
  3084  0E32  120A  158A  2592   	fcall	_LCD1602_WriteCommand
              120A  158A         
  3085                           	line	50
  3086                           	
  3087  0E37                     l14340:	
  3088                           ;LCD1602.c: 50: LCD1602_WriteCommand(0x0C);
  3089  0E37  300C               	movlw	(0Ch)
  3090  0E38  120A  158A  2592   	fcall	_LCD1602_WriteCommand
              120A  158A         
  3091                           	line	51
  3092                           	
  3093  0E3D                     l14342:	
  3094                           ;LCD1602.c: 51: LCD1602_WriteCommand(0x06);
  3095  0E3D  3006               	movlw	(06h)
  3096  0E3E  120A  158A  2592   	fcall	_LCD1602_WriteCommand
              120A  158A         
  3097                           	line	52
  3098                           	
  3099  0E43                     l14344:	
  3100                           ;LCD1602.c: 52: LCD1602_WriteCommand(0x80);
  3101  0E43  3080               	movlw	(080h)
  3102  0E44  120A  158A  2592   	fcall	_LCD1602_WriteCommand
              120A  158A         
  3103                           	line	53
  3104                           	
  3105  0E49                     l696:	
  3106  0E49  0008               	return
  3107                           	opt stack 0
  3108                           GLOBAL	__end_of_LCD1602_Init
  3109  0E4A                     	__end_of_LCD1602_Init:
  3110 ;; =============== function _LCD1602_Init ends ============
  3111                           
  3112                           	signat	_LCD1602_Init,88
  3113                           	global	___awtoft
  3114                           psect	text997,local,class=CODE,delta=2
  3115                           global __ptext997
  3116  0E9D                     __ptext997:
  3117                           
  3118 ;; *************** function ___awtoft *****************
  3119 ;; Defined at:
  3120 ;;		line 33 in file "C:\Program Files (x86)\HI-TECH Software\PICC\9.82\sources\awtoft.c"
  3121 ;; Parameters:    Size  Location     Type
  3122 ;;  c               2   22[BANK0 ] int 
  3123 ;; Auto vars:     Size  Location     Type
  3124 ;;  sign            1   27[BANK0 ] unsigned char 
  3125 ;; Return value:  Size  Location     Type
  3126 ;;                  3   22[BANK0 ] float 
  3127 ;; Registers used:
  3128 ;;		wreg, status,2, status,0, pclath, cstack
  3129 ;; Tracked objects:
  3130 ;;		On entry : 0/0
  3131 ;;		On exit  : 0/0
  3132 ;;		Unchanged: 0/0
  3133 ;; Data sizes:     COMMON   BANK0   BANK1   BANK3   BANK2
  3134 ;;      Params:         0       3       0       0       0
  3135 ;;      Locals:         0       1       0       0       0
  3136 ;;      Temps:          0       2       0       0       0
  3137 ;;      Totals:         0       6       0       0       0
  3138 ;;Total ram usage:        6 bytes
  3139 ;; Hardware stack levels used:    1
  3140 ;; Hardware stack levels required when called:    2
  3141 ;; This function calls:
  3142 ;;		___ftpack
  3143 ;; This function is called by:
  3144 ;;		_Trace_PID
  3145 ;; This function uses a non-reentrant model
  3146 ;;
  3147                           psect	text997
  3148                           	file	"C:\Program Files (x86)\HI-TECH Software\PICC\9.82\sources\awtoft.c"
  3149                           	line	33
  3150                           	global	__size_of___awtoft
  3151  002C                     	__size_of___awtoft	equ	__end_of___awtoft-___awtoft
  3152                           	
  3153  0E9D                     ___awtoft:	
  3154                           	opt	stack 4
  3155                           ; Regs used in ___awtoft: [wreg+status,2+status,0+pclath+cstack]
  3156                           	line	36
  3157                           	
  3158  0E9D                     l14324:	
  3159  0E9D  1283               	bcf	status, 5	;RP0=0, select bank0
  3160  0E9E  1303               	bcf	status, 6	;RP1=0, select bank0
  3161  0E9F  01BB               	clrf	(___awtoft@sign)
  3162                           	line	37
  3163  0EA0  1FB7               	btfss	(___awtoft@c+1),7
  3164  0EA1  2EA3               	goto	u6061
  3165  0EA2  2EA4               	goto	u6060
  3166  0EA3                     u6061:
  3167  0EA3  2EAD               	goto	l14328
  3168  0EA4                     u6060:
  3169                           	line	38
  3170                           	
  3171  0EA4                     l14326:	
  3172  0EA4  09B6               	comf	(___awtoft@c),f
  3173  0EA5  09B7               	comf	(___awtoft@c+1),f
  3174  0EA6  0AB6               	incf	(___awtoft@c),f
  3175  0EA7  1903               	skipnz
  3176  0EA8  0AB7               	incf	(___awtoft@c+1),f
  3177                           	line	39
  3178  0EA9  01BB               	clrf	(___awtoft@sign)
  3179  0EAA  1403               	bsf	status,0
  3180  0EAB  0DBB               	rlf	(___awtoft@sign),f
  3181  0EAC  2EAD               	goto	l14328
  3182                           	line	40
  3183                           	
  3184  0EAD                     l10842:	
  3185                           	line	41
  3186                           	
  3187  0EAD                     l14328:	
  3188  0EAD  0836               	movf	(___awtoft@c),w
  3189  0EAE  00A0               	movwf	(?___ftpack)
  3190  0EAF  0837               	movf	(___awtoft@c+1),w
  3191  0EB0  00A1               	movwf	(?___ftpack+1)
  3192  0EB1  01A2               	clrf	(?___ftpack+2)
  3193  0EB2  308E               	movlw	(08Eh)
  3194  0EB3  00B9               	movwf	(??___awtoft+0)+0
  3195  0EB4  0839               	movf	(??___awtoft+0)+0,w
  3196  0EB5  00A3               	movwf	0+(?___ftpack)+03h
  3197  0EB6  083B               	movf	(___awtoft@sign),w
  3198  0EB7  00BA               	movwf	(??___awtoft+1)+0
  3199  0EB8  083A               	movf	(??___awtoft+1)+0,w
  3200  0EB9  00A4               	movwf	0+(?___ftpack)+04h
  3201  0EBA  120A  158A  2783   	fcall	___ftpack
              120A  158A         
  3202  0EBF  1283               	bcf	status, 5	;RP0=0, select bank0
  3203  0EC0  1303               	bcf	status, 6	;RP1=0, select bank0
  3204  0EC1  0820               	movf	(0+(?___ftpack)),w
  3205  0EC2  00B6               	movwf	(?___awtoft)
  3206  0EC3  0821               	movf	(1+(?___ftpack)),w
  3207  0EC4  00B7               	movwf	(?___awtoft+1)
  3208  0EC5  0822               	movf	(2+(?___ftpack)),w
  3209  0EC6  00B8               	movwf	(?___awtoft+2)
  3210  0EC7  2EC8               	goto	l10843
  3211                           	
  3212  0EC8                     l14330:	
  3213                           	line	42
  3214                           	
  3215  0EC8                     l10843:	
  3216  0EC8  0008               	return
  3217                           	opt stack 0
  3218                           GLOBAL	__end_of___awtoft
  3219  0EC9                     	__end_of___awtoft:
  3220 ;; =============== function ___awtoft ends ============
  3221                           
  3222                           	signat	___awtoft,4219
  3223                           	global	___ftmul
  3224                           psect	text998,local,class=CODE,delta=2
  3225                           global __ptext998
  3226  0577                     __ptext998:
  3227                           
  3228 ;; *************** function ___ftmul *****************
  3229 ;; Defined at:
  3230 ;;		line 52 in file "C:\Program Files (x86)\HI-TECH Software\PICC\9.82\sources\ftmul.c"
  3231 ;; Parameters:    Size  Location     Type
  3232 ;;  f1              3   28[BANK0 ] float 
  3233 ;;  f2              3   31[BANK0 ] float 
  3234 ;; Auto vars:     Size  Location     Type
  3235 ;;  f3_as_produc    3   39[BANK0 ] unsigned um
  3236 ;;  sign            1   43[BANK0 ] unsigned char 
  3237 ;;  cntr            1   42[BANK0 ] unsigned char 
  3238 ;;  exp             1   38[BANK0 ] unsigned char 
  3239 ;; Return value:  Size  Location     Type
  3240 ;;                  3   28[BANK0 ] float 
  3241 ;; Registers used:
  3242 ;;		wreg, status,2, status,0, pclath, cstack
  3243 ;; Tracked objects:
  3244 ;;		On entry : 0/0
  3245 ;;		On exit  : 0/0
  3246 ;;		Unchanged: 0/0
  3247 ;; Data sizes:     COMMON   BANK0   BANK1   BANK3   BANK2
  3248 ;;      Params:         0       6       0       0       0
  3249 ;;      Locals:         0       6       0       0       0
  3250 ;;      Temps:          0       4       0       0       0
  3251 ;;      Totals:         0      16       0       0       0
  3252 ;;Total ram usage:       16 bytes
  3253 ;; Hardware stack levels used:    1
  3254 ;; Hardware stack levels required when called:    2
  3255 ;; This function calls:
  3256 ;;		___ftpack
  3257 ;; This function is called by:
  3258 ;;		_Trace_PID
  3259 ;;		_csb
  3260 ;; This function uses a non-reentrant model
  3261 ;;
  3262                           psect	text998
  3263                           	file	"C:\Program Files (x86)\HI-TECH Software\PICC\9.82\sources\ftmul.c"
  3264                           	line	52
  3265                           	global	__size_of___ftmul
  3266  00EE                     	__size_of___ftmul	equ	__end_of___ftmul-___ftmul
  3267                           	
  3268  0577                     ___ftmul:	
  3269                           	opt	stack 4
  3270                           ; Regs used in ___ftmul: [wreg+status,2+status,0+pclath+cstack]
  3271                           	line	56
  3272                           	
  3273  0577                     l14274:	
  3274  0577  1283               	bcf	status, 5	;RP0=0, select bank0
  3275  0578  1303               	bcf	status, 6	;RP1=0, select bank0
  3276  0579  083C               	movf	(___ftmul@f1),w
  3277  057A  00C2               	movwf	((??___ftmul+0)+0)
  3278  057B  083D               	movf	(___ftmul@f1+1),w
  3279  057C  00C3               	movwf	((??___ftmul+0)+0+1)
  3280  057D  083E               	movf	(___ftmul@f1+2),w
  3281  057E  00C4               	movwf	((??___ftmul+0)+0+2)
  3282  057F  1003               	clrc
  3283  0580  0D43               	rlf	(??___ftmul+0)+1,w
  3284  0581  0D44               	rlf	(??___ftmul+0)+2,w
  3285  0582  00C5               	movwf	(??___ftmul+3)+0
  3286  0583  0845               	movf	(??___ftmul+3)+0,w
  3287  0584  00C6               	movwf	(___ftmul@exp)
  3288  0585  08C6               	movf	((___ftmul@exp)),f
  3289  0586  1D03               	skipz
  3290  0587  2D89               	goto	u5921
  3291  0588  2D8A               	goto	u5920
  3292  0589                     u5921:
  3293  0589  2D92               	goto	l14280
  3294  058A                     u5920:
  3295                           	line	57
  3296                           	
  3297  058A                     l14276:	
  3298  058A  3000               	movlw	0x0
  3299  058B  00BC               	movwf	(?___ftmul)
  3300  058C  3000               	movlw	0x0
  3301  058D  00BD               	movwf	(?___ftmul+1)
  3302  058E  3000               	movlw	0x0
  3303  058F  00BE               	movwf	(?___ftmul+2)
  3304  0590  2E64               	goto	l10805
  3305                           	
  3306  0591                     l14278:	
  3307  0591  2E64               	goto	l10805
  3308                           	
  3309  0592                     l10804:	
  3310                           	line	58
  3311                           	
  3312  0592                     l14280:	
  3313  0592  083F               	movf	(___ftmul@f2),w
  3314  0593  00C2               	movwf	((??___ftmul+0)+0)
  3315  0594  0840               	movf	(___ftmul@f2+1),w
  3316  0595  00C3               	movwf	((??___ftmul+0)+0+1)
  3317  0596  0841               	movf	(___ftmul@f2+2),w
  3318  0597  00C4               	movwf	((??___ftmul+0)+0+2)
  3319  0598  1003               	clrc
  3320  0599  0D43               	rlf	(??___ftmul+0)+1,w
  3321  059A  0D44               	rlf	(??___ftmul+0)+2,w
  3322  059B  00C5               	movwf	(??___ftmul+3)+0
  3323  059C  0845               	movf	(??___ftmul+3)+0,w
  3324  059D  00CB               	movwf	(___ftmul@sign)
  3325  059E  08CB               	movf	((___ftmul@sign)),f
  3326  059F  1D03               	skipz
  3327  05A0  2DA2               	goto	u5931
  3328  05A1  2DA3               	goto	u5930
  3329  05A2                     u5931:
  3330  05A2  2DAB               	goto	l14286
  3331  05A3                     u5930:
  3332                           	line	59
  3333                           	
  3334  05A3                     l14282:	
  3335  05A3  3000               	movlw	0x0
  3336  05A4  00BC               	movwf	(?___ftmul)
  3337  05A5  3000               	movlw	0x0
  3338  05A6  00BD               	movwf	(?___ftmul+1)
  3339  05A7  3000               	movlw	0x0
  3340  05A8  00BE               	movwf	(?___ftmul+2)
  3341  05A9  2E64               	goto	l10805
  3342                           	
  3343  05AA                     l14284:	
  3344  05AA  2E64               	goto	l10805
  3345                           	
  3346  05AB                     l10806:	
  3347                           	line	60
  3348                           	
  3349  05AB                     l14286:	
  3350  05AB  084B               	movf	(___ftmul@sign),w
  3351  05AC  3E7B               	addlw	07Bh
  3352  05AD  00C2               	movwf	(??___ftmul+0)+0
  3353  05AE  0842               	movf	(??___ftmul+0)+0,w
  3354  05AF  07C6               	addwf	(___ftmul@exp),f
  3355                           	line	61
  3356  05B0  083C               	movf	(___ftmul@f1),w
  3357  05B1  00C2               	movwf	((??___ftmul+0)+0)
  3358  05B2  083D               	movf	(___ftmul@f1+1),w
  3359  05B3  00C3               	movwf	((??___ftmul+0)+0+1)
  3360  05B4  083E               	movf	(___ftmul@f1+2),w
  3361  05B5  00C4               	movwf	((??___ftmul+0)+0+2)
  3362  05B6  3010               	movlw	010h
  3363  05B7                     u5945:
  3364  05B7  1003               	clrc
  3365  05B8  0CC4               	rrf	(??___ftmul+0)+2,f
  3366  05B9  0CC3               	rrf	(??___ftmul+0)+1,f
  3367  05BA  0CC2               	rrf	(??___ftmul+0)+0,f
  3368  05BB                     u5940:
  3369  05BB  3EFF               	addlw	-1
  3370  05BC  1D03               	skipz
  3371  05BD  2DB7               	goto	u5945
  3372  05BE  0842               	movf	0+(??___ftmul+0)+0,w
  3373  05BF  00C5               	movwf	(??___ftmul+3)+0
  3374  05C0  0845               	movf	(??___ftmul+3)+0,w
  3375  05C1  00CB               	movwf	(___ftmul@sign)
  3376                           	line	62
  3377  05C2  083F               	movf	(___ftmul@f2),w
  3378  05C3  00C2               	movwf	((??___ftmul+0)+0)
  3379  05C4  0840               	movf	(___ftmul@f2+1),w
  3380  05C5  00C3               	movwf	((??___ftmul+0)+0+1)
  3381  05C6  0841               	movf	(___ftmul@f2+2),w
  3382  05C7  00C4               	movwf	((??___ftmul+0)+0+2)
  3383  05C8  3010               	movlw	010h
  3384  05C9                     u5955:
  3385  05C9  1003               	clrc
  3386  05CA  0CC4               	rrf	(??___ftmul+0)+2,f
  3387  05CB  0CC3               	rrf	(??___ftmul+0)+1,f
  3388  05CC  0CC2               	rrf	(??___ftmul+0)+0,f
  3389  05CD                     u5950:
  3390  05CD  3EFF               	addlw	-1
  3391  05CE  1D03               	skipz
  3392  05CF  2DC9               	goto	u5955
  3393  05D0  0842               	movf	0+(??___ftmul+0)+0,w
  3394  05D1  00C5               	movwf	(??___ftmul+3)+0
  3395  05D2  0845               	movf	(??___ftmul+3)+0,w
  3396  05D3  06CB               	xorwf	(___ftmul@sign),f
  3397                           	line	63
  3398  05D4  3080               	movlw	(080h)
  3399  05D5  00C2               	movwf	(??___ftmul+0)+0
  3400  05D6  0842               	movf	(??___ftmul+0)+0,w
  3401  05D7  05CB               	andwf	(___ftmul@sign),f
  3402                           	line	64
  3403                           	
  3404  05D8                     l14288:	
  3405  05D8  17BD               	bsf	(___ftmul@f1)+(15/8),(15)&7
  3406                           	line	66
  3407                           	
  3408  05D9                     l14290:	
  3409  05D9  17C0               	bsf	(___ftmul@f2)+(15/8),(15)&7
  3410                           	line	67
  3411                           	
  3412  05DA                     l14292:	
  3413  05DA  30FF               	movlw	0FFh
  3414  05DB  05BF               	andwf	(___ftmul@f2),f
  3415  05DC  30FF               	movlw	0FFh
  3416  05DD  05C0               	andwf	(___ftmul@f2+1),f
  3417  05DE  3000               	movlw	0
  3418  05DF  05C1               	andwf	(___ftmul@f2+2),f
  3419                           	line	68
  3420                           	
  3421  05E0                     l14294:	
  3422  05E0  3000               	movlw	0
  3423  05E1  00C7               	movwf	(___ftmul@f3_as_product)
  3424  05E2  3000               	movlw	0
  3425  05E3  00C8               	movwf	(___ftmul@f3_as_product+1)
  3426  05E4  3000               	movlw	0
  3427  05E5  00C9               	movwf	(___ftmul@f3_as_product+2)
  3428                           	line	69
  3429                           	
  3430  05E6                     l14296:	
  3431  05E6  3007               	movlw	(07h)
  3432  05E7  00C2               	movwf	(??___ftmul+0)+0
  3433  05E8  0842               	movf	(??___ftmul+0)+0,w
  3434  05E9  00CA               	movwf	(___ftmul@cntr)
  3435  05EA  2DEB               	goto	l14298
  3436                           	line	70
  3437                           	
  3438  05EB                     l10807:	
  3439                           	line	71
  3440                           	
  3441  05EB                     l14298:	
  3442  05EB  1C3C               	btfss	(___ftmul@f1),(0)&7
  3443  05EC  2DEE               	goto	u5961
  3444  05ED  2DEF               	goto	u5960
  3445  05EE                     u5961:
  3446  05EE  2E00               	goto	l14302
  3447  05EF                     u5960:
  3448                           	line	72
  3449                           	
  3450  05EF                     l14300:	
  3451  05EF  083F               	movf	(___ftmul@f2),w
  3452  05F0  07C7               	addwf	(___ftmul@f3_as_product),f
  3453  05F1  0840               	movf	(___ftmul@f2+1),w
  3454  05F2  1103               	clrz
  3455  05F3  1803               	skipnc
  3456  05F4  0A40               	incf	(___ftmul@f2+1),w
  3457  05F5  1903               	skipnz
  3458  05F6  2DF8               	goto	u5971
  3459  05F7  07C8               	addwf	(___ftmul@f3_as_product+1),f
  3460  05F8                     u5971:
  3461  05F8  0841               	movf	(___ftmul@f2+2),w
  3462  05F9  1103               	clrz
  3463  05FA  1803               	skipnc
  3464  05FB  0A41               	incf	(___ftmul@f2+2),w
  3465  05FC  1903               	skipnz
  3466  05FD  2DFF               	goto	u5972
  3467  05FE  07C9               	addwf	(___ftmul@f3_as_product+2),f
  3468  05FF                     u5972:
  3469                           
  3470  05FF  2E00               	goto	l14302
  3471                           	
  3472  0600                     l10808:	
  3473                           	line	73
  3474                           	
  3475  0600                     l14302:	
  3476  0600  3001               	movlw	01h
  3477  0601                     u5985:
  3478  0601  1003               	clrc
  3479  0602  0CBE               	rrf	(___ftmul@f1+2),f
  3480  0603  0CBD               	rrf	(___ftmul@f1+1),f
  3481  0604  0CBC               	rrf	(___ftmul@f1),f
  3482  0605  3EFF               	addlw	-1
  3483  0606  1D03               	skipz
  3484  0607  2E01               	goto	u5985
  3485                           
  3486                           	line	74
  3487                           	
  3488  0608                     l14304:	
  3489  0608  3001               	movlw	01h
  3490  0609                     u5995:
  3491  0609  1003               	clrc
  3492  060A  0DBF               	rlf	(___ftmul@f2),f
  3493  060B  0DC0               	rlf	(___ftmul@f2+1),f
  3494  060C  0DC1               	rlf	(___ftmul@f2+2),f
  3495  060D  3EFF               	addlw	-1
  3496  060E  1D03               	skipz
  3497  060F  2E09               	goto	u5995
  3498                           	line	75
  3499                           	
  3500  0610                     l14306:	
  3501  0610  3001               	movlw	low(01h)
  3502  0611  02CA               	subwf	(___ftmul@cntr),f
  3503  0612  1D03               	btfss	status,2
  3504  0613  2E15               	goto	u6001
  3505  0614  2E16               	goto	u6000
  3506  0615                     u6001:
  3507  0615  2DEB               	goto	l14298
  3508  0616                     u6000:
  3509  0616  2E17               	goto	l14308
  3510                           	
  3511  0617                     l10809:	
  3512                           	line	76
  3513                           	
  3514  0617                     l14308:	
  3515  0617  3009               	movlw	(09h)
  3516  0618  00C2               	movwf	(??___ftmul+0)+0
  3517  0619  0842               	movf	(??___ftmul+0)+0,w
  3518  061A  00CA               	movwf	(___ftmul@cntr)
  3519  061B  2E1C               	goto	l14310
  3520                           	line	77
  3521                           	
  3522  061C                     l10810:	
  3523                           	line	78
  3524                           	
  3525  061C                     l14310:	
  3526  061C  1C3C               	btfss	(___ftmul@f1),(0)&7
  3527  061D  2E1F               	goto	u6011
  3528  061E  2E20               	goto	u6010
  3529  061F                     u6011:
  3530  061F  2E31               	goto	l14314
  3531  0620                     u6010:
  3532                           	line	79
  3533                           	
  3534  0620                     l14312:	
  3535  0620  083F               	movf	(___ftmul@f2),w
  3536  0621  07C7               	addwf	(___ftmul@f3_as_product),f
  3537  0622  0840               	movf	(___ftmul@f2+1),w
  3538  0623  1103               	clrz
  3539  0624  1803               	skipnc
  3540  0625  0A40               	incf	(___ftmul@f2+1),w
  3541  0626  1903               	skipnz
  3542  0627  2E29               	goto	u6021
  3543  0628  07C8               	addwf	(___ftmul@f3_as_product+1),f
  3544  0629                     u6021:
  3545  0629  0841               	movf	(___ftmul@f2+2),w
  3546  062A  1103               	clrz
  3547  062B  1803               	skipnc
  3548  062C  0A41               	incf	(___ftmul@f2+2),w
  3549  062D  1903               	skipnz
  3550  062E  2E30               	goto	u6022
  3551  062F  07C9               	addwf	(___ftmul@f3_as_product+2),f
  3552  0630                     u6022:
  3553                           
  3554  0630  2E31               	goto	l14314
  3555                           	
  3556  0631                     l10811:	
  3557                           	line	80
  3558                           	
  3559  0631                     l14314:	
  3560  0631  3001               	movlw	01h
  3561  0632                     u6035:
  3562  0632  1003               	clrc
  3563  0633  0CBE               	rrf	(___ftmul@f1+2),f
  3564  0634  0CBD               	rrf	(___ftmul@f1+1),f
  3565  0635  0CBC               	rrf	(___ftmul@f1),f
  3566  0636  3EFF               	addlw	-1
  3567  0637  1D03               	skipz
  3568  0638  2E32               	goto	u6035
  3569                           
  3570                           	line	81
  3571                           	
  3572  0639                     l14316:	
  3573  0639  3001               	movlw	01h
  3574  063A                     u6045:
  3575  063A  1003               	clrc
  3576  063B  0CC9               	rrf	(___ftmul@f3_as_product+2),f
  3577  063C  0CC8               	rrf	(___ftmul@f3_as_product+1),f
  3578  063D  0CC7               	rrf	(___ftmul@f3_as_product),f
  3579  063E  3EFF               	addlw	-1
  3580  063F  1D03               	skipz
  3581  0640  2E3A               	goto	u6045
  3582                           
  3583                           	line	82
  3584                           	
  3585  0641                     l14318:	
  3586  0641  3001               	movlw	low(01h)
  3587  0642  02CA               	subwf	(___ftmul@cntr),f
  3588  0643  1D03               	btfss	status,2
  3589  0644  2E46               	goto	u6051
  3590  0645  2E47               	goto	u6050
  3591  0646                     u6051:
  3592  0646  2E1C               	goto	l14310
  3593  0647                     u6050:
  3594  0647  2E48               	goto	l14320
  3595                           	
  3596  0648                     l10812:	
  3597                           	line	83
  3598                           	
  3599  0648                     l14320:	
  3600  0648  0847               	movf	(___ftmul@f3_as_product),w
  3601  0649  00A0               	movwf	(?___ftpack)
  3602  064A  0848               	movf	(___ftmul@f3_as_product+1),w
  3603  064B  00A1               	movwf	(?___ftpack+1)
  3604  064C  0849               	movf	(___ftmul@f3_as_product+2),w
  3605  064D  00A2               	movwf	(?___ftpack+2)
  3606  064E  0846               	movf	(___ftmul@exp),w
  3607  064F  00C2               	movwf	(??___ftmul+0)+0
  3608  0650  0842               	movf	(??___ftmul+0)+0,w
  3609  0651  00A3               	movwf	0+(?___ftpack)+03h
  3610  0652  084B               	movf	(___ftmul@sign),w
  3611  0653  00C3               	movwf	(??___ftmul+1)+0
  3612  0654  0843               	movf	(??___ftmul+1)+0,w
  3613  0655  00A4               	movwf	0+(?___ftpack)+04h
  3614  0656  120A  158A  2783   	fcall	___ftpack
              120A  118A         
  3615  065B  1283               	bcf	status, 5	;RP0=0, select bank0
  3616  065C  1303               	bcf	status, 6	;RP1=0, select bank0
  3617  065D  0820               	movf	(0+(?___ftpack)),w
  3618  065E  00BC               	movwf	(?___ftmul)
  3619  065F  0821               	movf	(1+(?___ftpack)),w
  3620  0660  00BD               	movwf	(?___ftmul+1)
  3621  0661  0822               	movf	(2+(?___ftpack)),w
  3622  0662  00BE               	movwf	(?___ftmul+2)
  3623  0663  2E64               	goto	l10805
  3624                           	
  3625  0664                     l14322:	
  3626                           	line	84
  3627                           	
  3628  0664                     l10805:	
  3629  0664  0008               	return
  3630                           	opt stack 0
  3631                           GLOBAL	__end_of___ftmul
  3632  0665                     	__end_of___ftmul:
  3633 ;; =============== function ___ftmul ends ============
  3634                           
  3635                           	signat	___ftmul,8315
  3636                           	global	___ftadd
  3637                           psect	text999,local,class=CODE,delta=2
  3638                           global __ptext999
  3639  0431                     __ptext999:
  3640                           
  3641 ;; *************** function ___ftadd *****************
  3642 ;; Defined at:
  3643 ;;		line 87 in file "C:\Program Files (x86)\HI-TECH Software\PICC\9.82\sources\ftadd.c"
  3644 ;; Parameters:    Size  Location     Type
  3645 ;;  f1              3   44[BANK0 ] float 
  3646 ;;  f2              3   47[BANK0 ] float 
  3647 ;; Auto vars:     Size  Location     Type
  3648 ;;  exp1            1   56[BANK0 ] unsigned char 
  3649 ;;  exp2            1   55[BANK0 ] unsigned char 
  3650 ;;  sign            1   54[BANK0 ] unsigned char 
  3651 ;; Return value:  Size  Location     Type
  3652 ;;                  3   44[BANK0 ] float 
  3653 ;; Registers used:
  3654 ;;		wreg, status,2, status,0, pclath, cstack
  3655 ;; Tracked objects:
  3656 ;;		On entry : 0/0
  3657 ;;		On exit  : 0/0
  3658 ;;		Unchanged: 0/0
  3659 ;; Data sizes:     COMMON   BANK0   BANK1   BANK3   BANK2
  3660 ;;      Params:         0       6       0       0       0
  3661 ;;      Locals:         0       3       0       0       0
  3662 ;;      Temps:          0       4       0       0       0
  3663 ;;      Totals:         0      13       0       0       0
  3664 ;;Total ram usage:       13 bytes
  3665 ;; Hardware stack levels used:    1
  3666 ;; Hardware stack levels required when called:    2
  3667 ;; This function calls:
  3668 ;;		___ftpack
  3669 ;; This function is called by:
  3670 ;;		_Trace_PID
  3671 ;;		___ftsub
  3672 ;; This function uses a non-reentrant model
  3673 ;;
  3674                           psect	text999
  3675                           	file	"C:\Program Files (x86)\HI-TECH Software\PICC\9.82\sources\ftadd.c"
  3676                           	line	87
  3677                           	global	__size_of___ftadd
  3678  0146                     	__size_of___ftadd	equ	__end_of___ftadd-___ftadd
  3679                           	
  3680  0431                     ___ftadd:	
  3681                           	opt	stack 4
  3682                           ; Regs used in ___ftadd: [wreg+status,2+status,0+pclath+cstack]
  3683                           	line	90
  3684                           	
  3685  0431                     l14204:	
  3686  0431  1283               	bcf	status, 5	;RP0=0, select bank0
  3687  0432  1303               	bcf	status, 6	;RP1=0, select bank0
  3688  0433  084C               	movf	(___ftadd@f1),w
  3689  0434  00D2               	movwf	((??___ftadd+0)+0)
  3690  0435  084D               	movf	(___ftadd@f1+1),w
  3691  0436  00D3               	movwf	((??___ftadd+0)+0+1)
  3692  0437  084E               	movf	(___ftadd@f1+2),w
  3693  0438  00D4               	movwf	((??___ftadd+0)+0+2)
  3694  0439  1003               	clrc
  3695  043A  0D53               	rlf	(??___ftadd+0)+1,w
  3696  043B  0D54               	rlf	(??___ftadd+0)+2,w
  3697  043C  00D5               	movwf	(??___ftadd+3)+0
  3698  043D  0855               	movf	(??___ftadd+3)+0,w
  3699  043E  00D8               	movwf	(___ftadd@exp1)
  3700                           	line	91
  3701  043F  084F               	movf	(___ftadd@f2),w
  3702  0440  00D2               	movwf	((??___ftadd+0)+0)
  3703  0441  0850               	movf	(___ftadd@f2+1),w
  3704  0442  00D3               	movwf	((??___ftadd+0)+0+1)
  3705  0443  0851               	movf	(___ftadd@f2+2),w
  3706  0444  00D4               	movwf	((??___ftadd+0)+0+2)
  3707  0445  1003               	clrc
  3708  0446  0D53               	rlf	(??___ftadd+0)+1,w
  3709  0447  0D54               	rlf	(??___ftadd+0)+2,w
  3710  0448  00D5               	movwf	(??___ftadd+3)+0
  3711  0449  0855               	movf	(??___ftadd+3)+0,w
  3712  044A  00D7               	movwf	(___ftadd@exp2)
  3713                           	line	92
  3714                           	
  3715  044B                     l14206:	
  3716  044B  0858               	movf	(___ftadd@exp1),w
  3717  044C  1D03               	skipz
  3718  044D  2C4F               	goto	u5680
  3719  044E  2C60               	goto	l14212
  3720  044F                     u5680:
  3721                           	
  3722  044F                     l14208:	
  3723  044F  0857               	movf	(___ftadd@exp2),w
  3724  0450  0258               	subwf	(___ftadd@exp1),w
  3725  0451  1803               	skipnc
  3726  0452  2C54               	goto	u5691
  3727  0453  2C55               	goto	u5690
  3728  0454                     u5691:
  3729  0454  2C68               	goto	l14216
  3730  0455                     u5690:
  3731                           	
  3732  0455                     l14210:	
  3733  0455  0358               	decf	(___ftadd@exp1),w
  3734  0456  3AFF               	xorlw	0ffh
  3735  0457  0757               	addwf	(___ftadd@exp2),w
  3736  0458  00D2               	movwf	(??___ftadd+0)+0
  3737  0459  3019               	movlw	(019h)
  3738  045A  0252               	subwf	0+(??___ftadd+0)+0,w
  3739  045B  1C03               	skipc
  3740  045C  2C5E               	goto	u5701
  3741  045D  2C5F               	goto	u5700
  3742  045E                     u5701:
  3743  045E  2C68               	goto	l14216
  3744  045F                     u5700:
  3745  045F  2C60               	goto	l14212
  3746                           	
  3747  0460                     l10752:	
  3748                           	line	93
  3749                           	
  3750  0460                     l14212:	
  3751  0460  084F               	movf	(___ftadd@f2),w
  3752  0461  00CC               	movwf	(?___ftadd)
  3753  0462  0850               	movf	(___ftadd@f2+1),w
  3754  0463  00CD               	movwf	(?___ftadd+1)
  3755  0464  0851               	movf	(___ftadd@f2+2),w
  3756  0465  00CE               	movwf	(?___ftadd+2)
  3757  0466  2D76               	goto	l10753
  3758                           	
  3759  0467                     l14214:	
  3760  0467  2D76               	goto	l10753
  3761                           	
  3762  0468                     l10750:	
  3763                           	line	94
  3764                           	
  3765  0468                     l14216:	
  3766  0468  0857               	movf	(___ftadd@exp2),w
  3767  0469  1D03               	skipz
  3768  046A  2C6C               	goto	u5710
  3769  046B  2C7C               	goto	l10756
  3770  046C                     u5710:
  3771                           	
  3772  046C                     l14218:	
  3773  046C  0858               	movf	(___ftadd@exp1),w
  3774  046D  0257               	subwf	(___ftadd@exp2),w
  3775  046E  1803               	skipnc
  3776  046F  2C71               	goto	u5721
  3777  0470  2C72               	goto	u5720
  3778  0471                     u5721:
  3779  0471  2C7D               	goto	l14222
  3780  0472                     u5720:
  3781                           	
  3782  0472                     l14220:	
  3783  0472  0357               	decf	(___ftadd@exp2),w
  3784  0473  3AFF               	xorlw	0ffh
  3785  0474  0758               	addwf	(___ftadd@exp1),w
  3786  0475  00D2               	movwf	(??___ftadd+0)+0
  3787  0476  3019               	movlw	(019h)
  3788  0477  0252               	subwf	0+(??___ftadd+0)+0,w
  3789  0478  1C03               	skipc
  3790  0479  2C7B               	goto	u5731
  3791  047A  2C7C               	goto	u5730
  3792  047B                     u5731:
  3793  047B  2C7D               	goto	l14222
  3794  047C                     u5730:
  3795                           	
  3796  047C                     l10756:	
  3797                           	line	95
  3798  047C  2D76               	goto	l10753
  3799                           	
  3800  047D                     l10754:	
  3801                           	line	96
  3802                           	
  3803  047D                     l14222:	
  3804  047D  3006               	movlw	(06h)
  3805  047E  00D2               	movwf	(??___ftadd+0)+0
  3806  047F  0852               	movf	(??___ftadd+0)+0,w
  3807  0480  00D6               	movwf	(___ftadd@sign)
  3808                           	line	97
  3809                           	
  3810  0481                     l14224:	
  3811  0481  1FCE               	btfss	(___ftadd@f1+2),(23)&7
  3812  0482  2C84               	goto	u5741
  3813  0483  2C85               	goto	u5740
  3814  0484                     u5741:
  3815  0484  2C86               	goto	l10757
  3816  0485                     u5740:
  3817                           	line	98
  3818                           	
  3819  0485                     l14226:	
  3820  0485  17D6               	bsf	(___ftadd@sign)+(7/8),(7)&7
  3821                           	
  3822  0486                     l10757:	
  3823                           	line	99
  3824  0486  1FD1               	btfss	(___ftadd@f2+2),(23)&7
  3825  0487  2C89               	goto	u5751
  3826  0488  2C8A               	goto	u5750
  3827  0489                     u5751:
  3828  0489  2C8B               	goto	l10758
  3829  048A                     u5750:
  3830                           	line	100
  3831                           	
  3832  048A                     l14228:	
  3833  048A  1756               	bsf	(___ftadd@sign)+(6/8),(6)&7
  3834                           	
  3835  048B                     l10758:	
  3836                           	line	101
  3837  048B  17CD               	bsf	(___ftadd@f1)+(15/8),(15)&7
  3838                           	line	102
  3839                           	
  3840  048C                     l14230:	
  3841  048C  30FF               	movlw	0FFh
  3842  048D  05CC               	andwf	(___ftadd@f1),f
  3843  048E  30FF               	movlw	0FFh
  3844  048F  05CD               	andwf	(___ftadd@f1+1),f
  3845  0490  3000               	movlw	0
  3846  0491  05CE               	andwf	(___ftadd@f1+2),f
  3847                           	line	103
  3848                           	
  3849  0492                     l14232:	
  3850  0492  17D0               	bsf	(___ftadd@f2)+(15/8),(15)&7
  3851                           	line	104
  3852  0493  30FF               	movlw	0FFh
  3853  0494  05CF               	andwf	(___ftadd@f2),f
  3854  0495  30FF               	movlw	0FFh
  3855  0496  05D0               	andwf	(___ftadd@f2+1),f
  3856  0497  3000               	movlw	0
  3857  0498  05D1               	andwf	(___ftadd@f2+2),f
  3858                           	line	106
  3859  0499  0857               	movf	(___ftadd@exp2),w
  3860  049A  0258               	subwf	(___ftadd@exp1),w
  3861  049B  1803               	skipnc
  3862  049C  2C9E               	goto	u5761
  3863  049D  2C9F               	goto	u5760
  3864  049E                     u5761:
  3865  049E  2CD0               	goto	l14244
  3866  049F                     u5760:
  3867  049F  2CA0               	goto	l14234
  3868                           	line	109
  3869                           	
  3870  04A0                     l10760:	
  3871                           	line	110
  3872                           	
  3873  04A0                     l14234:	
  3874  04A0  3001               	movlw	01h
  3875  04A1                     u5775:
  3876  04A1  1003               	clrc
  3877  04A2  0DCF               	rlf	(___ftadd@f2),f
  3878  04A3  0DD0               	rlf	(___ftadd@f2+1),f
  3879  04A4  0DD1               	rlf	(___ftadd@f2+2),f
  3880  04A5  3EFF               	addlw	-1
  3881  04A6  1D03               	skipz
  3882  04A7  2CA1               	goto	u5775
  3883                           	line	111
  3884  04A8  3001               	movlw	low(01h)
  3885  04A9  02D7               	subwf	(___ftadd@exp2),f
  3886                           	line	112
  3887                           	
  3888  04AA                     l14236:	
  3889  04AA  0857               	movf	(___ftadd@exp2),w
  3890  04AB  0658               	xorwf	(___ftadd@exp1),w
  3891  04AC  1903               	skipnz
  3892  04AD  2CAF               	goto	u5781
  3893  04AE  2CB0               	goto	u5780
  3894  04AF                     u5781:
  3895  04AF  2CC8               	goto	l14242
  3896  04B0                     u5780:
  3897                           	
  3898  04B0                     l14238:	
  3899  04B0  3001               	movlw	low(01h)
  3900  04B1  02D6               	subwf	(___ftadd@sign),f
  3901  04B2  0856               	movf	((___ftadd@sign)),w
  3902  04B3  3907               	andlw	07h
  3903  04B4  1D03               	btfss	status,2
  3904  04B5  2CB7               	goto	u5791
  3905  04B6  2CB8               	goto	u5790
  3906  04B7                     u5791:
  3907  04B7  2CA0               	goto	l14234
  3908  04B8                     u5790:
  3909  04B8  2CC8               	goto	l14242
  3910                           	
  3911  04B9                     l10762:	
  3912  04B9  2CC8               	goto	l14242
  3913                           	
  3914  04BA                     l10763:	
  3915                           	line	113
  3916  04BA  2CC8               	goto	l14242
  3917                           	
  3918  04BB                     l10765:	
  3919                           	line	114
  3920                           	
  3921  04BB                     l14240:	
  3922  04BB  3001               	movlw	01h
  3923  04BC                     u5805:
  3924  04BC  1003               	clrc
  3925  04BD  0CCE               	rrf	(___ftadd@f1+2),f
  3926  04BE  0CCD               	rrf	(___ftadd@f1+1),f
  3927  04BF  0CCC               	rrf	(___ftadd@f1),f
  3928  04C0  3EFF               	addlw	-1
  3929  04C1  1D03               	skipz
  3930  04C2  2CBC               	goto	u5805
  3931                           
  3932                           	line	115
  3933  04C3  3001               	movlw	(01h)
  3934  04C4  00D2               	movwf	(??___ftadd+0)+0
  3935  04C5  0852               	movf	(??___ftadd+0)+0,w
  3936  04C6  07D8               	addwf	(___ftadd@exp1),f
  3937  04C7  2CC8               	goto	l14242
  3938                           	line	116
  3939                           	
  3940  04C8                     l10764:	
  3941                           	line	113
  3942                           	
  3943  04C8                     l14242:	
  3944  04C8  0858               	movf	(___ftadd@exp1),w
  3945  04C9  0657               	xorwf	(___ftadd@exp2),w
  3946  04CA  1D03               	skipz
  3947  04CB  2CCD               	goto	u5811
  3948  04CC  2CCE               	goto	u5810
  3949  04CD                     u5811:
  3950  04CD  2CBB               	goto	l14240
  3951  04CE                     u5810:
  3952  04CE  2D07               	goto	l10767
  3953                           	
  3954  04CF                     l10766:	
  3955                           	line	117
  3956  04CF  2D07               	goto	l10767
  3957                           	
  3958  04D0                     l10759:	
  3959                           	
  3960  04D0                     l14244:	
  3961  04D0  0858               	movf	(___ftadd@exp1),w
  3962  04D1  0257               	subwf	(___ftadd@exp2),w
  3963  04D2  1803               	skipnc
  3964  04D3  2CD5               	goto	u5821
  3965  04D4  2CD6               	goto	u5820
  3966  04D5                     u5821:
  3967  04D5  2D07               	goto	l10767
  3968  04D6                     u5820:
  3969  04D6  2CD7               	goto	l14246
  3970                           	line	120
  3971                           	
  3972  04D7                     l10769:	
  3973                           	line	121
  3974                           	
  3975  04D7                     l14246:	
  3976  04D7  3001               	movlw	01h
  3977  04D8                     u5835:
  3978  04D8  1003               	clrc
  3979  04D9  0DCC               	rlf	(___ftadd@f1),f
  3980  04DA  0DCD               	rlf	(___ftadd@f1+1),f
  3981  04DB  0DCE               	rlf	(___ftadd@f1+2),f
  3982  04DC  3EFF               	addlw	-1
  3983  04DD  1D03               	skipz
  3984  04DE  2CD8               	goto	u5835
  3985                           	line	122
  3986  04DF  3001               	movlw	low(01h)
  3987  04E0  02D8               	subwf	(___ftadd@exp1),f
  3988                           	line	123
  3989                           	
  3990  04E1                     l14248:	
  3991  04E1  0857               	movf	(___ftadd@exp2),w
  3992  04E2  0658               	xorwf	(___ftadd@exp1),w
  3993  04E3  1903               	skipnz
  3994  04E4  2CE6               	goto	u5841
  3995  04E5  2CE7               	goto	u5840
  3996  04E6                     u5841:
  3997  04E6  2CFF               	goto	l14254
  3998  04E7                     u5840:
  3999                           	
  4000  04E7                     l14250:	
  4001  04E7  3001               	movlw	low(01h)
  4002  04E8  02D6               	subwf	(___ftadd@sign),f
  4003  04E9  0856               	movf	((___ftadd@sign)),w
  4004  04EA  3907               	andlw	07h
  4005  04EB  1D03               	btfss	status,2
  4006  04EC  2CEE               	goto	u5851
  4007  04ED  2CEF               	goto	u5850
  4008  04EE                     u5851:
  4009  04EE  2CD7               	goto	l14246
  4010  04EF                     u5850:
  4011  04EF  2CFF               	goto	l14254
  4012                           	
  4013  04F0                     l10771:	
  4014  04F0  2CFF               	goto	l14254
  4015                           	
  4016  04F1                     l10772:	
  4017                           	line	124
  4018  04F1  2CFF               	goto	l14254
  4019                           	
  4020  04F2                     l10774:	
  4021                           	line	125
  4022                           	
  4023  04F2                     l14252:	
  4024  04F2  3001               	movlw	01h
  4025  04F3                     u5865:
  4026  04F3  1003               	clrc
  4027  04F4  0CD1               	rrf	(___ftadd@f2+2),f
  4028  04F5  0CD0               	rrf	(___ftadd@f2+1),f
  4029  04F6  0CCF               	rrf	(___ftadd@f2),f
  4030  04F7  3EFF               	addlw	-1
  4031  04F8  1D03               	skipz
  4032  04F9  2CF3               	goto	u5865
  4033                           
  4034                           	line	126
  4035  04FA  3001               	movlw	(01h)
  4036  04FB  00D2               	movwf	(??___ftadd+0)+0
  4037  04FC  0852               	movf	(??___ftadd+0)+0,w
  4038  04FD  07D7               	addwf	(___ftadd@exp2),f
  4039  04FE  2CFF               	goto	l14254
  4040                           	line	127
  4041                           	
  4042  04FF                     l10773:	
  4043                           	line	124
  4044                           	
  4045  04FF                     l14254:	
  4046  04FF  0858               	movf	(___ftadd@exp1),w
  4047  0500  0657               	xorwf	(___ftadd@exp2),w
  4048  0501  1D03               	skipz
  4049  0502  2D04               	goto	u5871
  4050  0503  2D05               	goto	u5870
  4051  0504                     u5871:
  4052  0504  2CF2               	goto	l14252
  4053  0505                     u5870:
  4054  0505  2D07               	goto	l10767
  4055                           	
  4056  0506                     l10775:	
  4057  0506  2D07               	goto	l10767
  4058                           	line	128
  4059                           	
  4060  0507                     l10768:	
  4061                           	line	129
  4062                           	
  4063  0507                     l10767:	
  4064  0507  1FD6               	btfss	(___ftadd@sign),(7)&7
  4065  0508  2D0A               	goto	u5881
  4066  0509  2D0B               	goto	u5880
  4067  050A                     u5881:
  4068  050A  2D1C               	goto	l14258
  4069  050B                     u5880:
  4070                           	line	131
  4071                           	
  4072  050B                     l14256:	
  4073  050B  30FF               	movlw	0FFh
  4074  050C  06CC               	xorwf	(___ftadd@f1),f
  4075  050D  30FF               	movlw	0FFh
  4076  050E  06CD               	xorwf	(___ftadd@f1+1),f
  4077  050F  30FF               	movlw	0FFh
  4078  0510  06CE               	xorwf	(___ftadd@f1+2),f
  4079                           	line	132
  4080  0511  3001               	movlw	01h
  4081  0512  07CC               	addwf	(___ftadd@f1),f
  4082  0513  3000               	movlw	0
  4083  0514  1803               	skipnc
  4084  0515  3001               movlw 1
  4085  0516  07CD               	addwf	(___ftadd@f1+1),f
  4086  0517  3000               	movlw	0
  4087  0518  1803               	skipnc
  4088  0519  3001               movlw 1
  4089  051A  07CE               	addwf	(___ftadd@f1+2),f
  4090  051B  2D1C               	goto	l14258
  4091                           	line	133
  4092                           	
  4093  051C                     l10776:	
  4094                           	line	134
  4095                           	
  4096  051C                     l14258:	
  4097  051C  1F56               	btfss	(___ftadd@sign),(6)&7
  4098  051D  2D1F               	goto	u5891
  4099  051E  2D20               	goto	u5890
  4100  051F                     u5891:
  4101  051F  2D31               	goto	l14262
  4102  0520                     u5890:
  4103                           	line	136
  4104                           	
  4105  0520                     l14260:	
  4106  0520  30FF               	movlw	0FFh
  4107  0521  06CF               	xorwf	(___ftadd@f2),f
  4108  0522  30FF               	movlw	0FFh
  4109  0523  06D0               	xorwf	(___ftadd@f2+1),f
  4110  0524  30FF               	movlw	0FFh
  4111  0525  06D1               	xorwf	(___ftadd@f2+2),f
  4112                           	line	137
  4113  0526  3001               	movlw	01h
  4114  0527  07CF               	addwf	(___ftadd@f2),f
  4115  0528  3000               	movlw	0
  4116  0529  1803               	skipnc
  4117  052A  3001               movlw 1
  4118  052B  07D0               	addwf	(___ftadd@f2+1),f
  4119  052C  3000               	movlw	0
  4120  052D  1803               	skipnc
  4121  052E  3001               movlw 1
  4122  052F  07D1               	addwf	(___ftadd@f2+2),f
  4123  0530  2D31               	goto	l14262
  4124                           	line	138
  4125                           	
  4126  0531                     l10777:	
  4127                           	line	139
  4128                           	
  4129  0531                     l14262:	
  4130  0531  01D6               	clrf	(___ftadd@sign)
  4131                           	line	140
  4132  0532  084C               	movf	(___ftadd@f1),w
  4133  0533  07CF               	addwf	(___ftadd@f2),f
  4134  0534  084D               	movf	(___ftadd@f1+1),w
  4135  0535  1103               	clrz
  4136  0536  1803               	skipnc
  4137  0537  0A4D               	incf	(___ftadd@f1+1),w
  4138  0538  1903               	skipnz
  4139  0539  2D3B               	goto	u5901
  4140  053A  07D0               	addwf	(___ftadd@f2+1),f
  4141  053B                     u5901:
  4142  053B  084E               	movf	(___ftadd@f1+2),w
  4143  053C  1103               	clrz
  4144  053D  1803               	skipnc
  4145  053E  0A4E               	incf	(___ftadd@f1+2),w
  4146  053F  1903               	skipnz
  4147  0540  2D42               	goto	u5902
  4148  0541  07D1               	addwf	(___ftadd@f2+2),f
  4149  0542                     u5902:
  4150                           
  4151                           	line	141
  4152                           	
  4153  0542                     l14264:	
  4154  0542  1FD1               	btfss	(___ftadd@f2+2),(23)&7
  4155  0543  2D45               	goto	u5911
  4156  0544  2D46               	goto	u5910
  4157  0545                     u5911:
  4158  0545  2D5A               	goto	l14270
  4159  0546                     u5910:
  4160                           	line	142
  4161                           	
  4162  0546                     l14266:	
  4163  0546  30FF               	movlw	0FFh
  4164  0547  06CF               	xorwf	(___ftadd@f2),f
  4165  0548  30FF               	movlw	0FFh
  4166  0549  06D0               	xorwf	(___ftadd@f2+1),f
  4167  054A  30FF               	movlw	0FFh
  4168  054B  06D1               	xorwf	(___ftadd@f2+2),f
  4169                           	line	143
  4170  054C  3001               	movlw	01h
  4171  054D  07CF               	addwf	(___ftadd@f2),f
  4172  054E  3000               	movlw	0
  4173  054F  1803               	skipnc
  4174  0550  3001               movlw 1
  4175  0551  07D0               	addwf	(___ftadd@f2+1),f
  4176  0552  3000               	movlw	0
  4177  0553  1803               	skipnc
  4178  0554  3001               movlw 1
  4179  0555  07D1               	addwf	(___ftadd@f2+2),f
  4180                           	line	144
  4181                           	
  4182  0556                     l14268:	
  4183  0556  01D6               	clrf	(___ftadd@sign)
  4184  0557  1403               	bsf	status,0
  4185  0558  0DD6               	rlf	(___ftadd@sign),f
  4186  0559  2D5A               	goto	l14270
  4187                           	line	145
  4188                           	
  4189  055A                     l10778:	
  4190                           	line	146
  4191                           	
  4192  055A                     l14270:	
  4193  055A  084F               	movf	(___ftadd@f2),w
  4194  055B  00A0               	movwf	(?___ftpack)
  4195  055C  0850               	movf	(___ftadd@f2+1),w
  4196  055D  00A1               	movwf	(?___ftpack+1)
  4197  055E  0851               	movf	(___ftadd@f2+2),w
  4198  055F  00A2               	movwf	(?___ftpack+2)
  4199  0560  0858               	movf	(___ftadd@exp1),w
  4200  0561  00D2               	movwf	(??___ftadd+0)+0
  4201  0562  0852               	movf	(??___ftadd+0)+0,w
  4202  0563  00A3               	movwf	0+(?___ftpack)+03h
  4203  0564  0856               	movf	(___ftadd@sign),w
  4204  0565  00D3               	movwf	(??___ftadd+1)+0
  4205  0566  0853               	movf	(??___ftadd+1)+0,w
  4206  0567  00A4               	movwf	0+(?___ftpack)+04h
  4207  0568  120A  158A  2783   	fcall	___ftpack
              120A  118A         
  4208  056D  1283               	bcf	status, 5	;RP0=0, select bank0
  4209  056E  1303               	bcf	status, 6	;RP1=0, select bank0
  4210  056F  0820               	movf	(0+(?___ftpack)),w
  4211  0570  00CC               	movwf	(?___ftadd)
  4212  0571  0821               	movf	(1+(?___ftpack)),w
  4213  0572  00CD               	movwf	(?___ftadd+1)
  4214  0573  0822               	movf	(2+(?___ftpack)),w
  4215  0574  00CE               	movwf	(?___ftadd+2)
  4216  0575  2D76               	goto	l10753
  4217                           	
  4218  0576                     l14272:	
  4219                           	line	148
  4220                           	
  4221  0576                     l10753:	
  4222  0576  0008               	return
  4223                           	opt stack 0
  4224                           GLOBAL	__end_of___ftadd
  4225  0577                     	__end_of___ftadd:
  4226 ;; =============== function ___ftadd ends ============
  4227                           
  4228                           	signat	___ftadd,8315
  4229                           	global	_Delay_ms
  4230                           psect	text1000,local,class=CODE,delta=2
  4231                           global __ptext1000
  4232  0DF0                     __ptext1000:
  4233                           
  4234 ;; *************** function _Delay_ms *****************
  4235 ;; Defined at:
  4236 ;;		line 4 in file "D:\6_pic_project\00_Design_Flow_Car\System\Delay.c"
  4237 ;; Parameters:    Size  Location     Type
  4238 ;;  x               2    0[BANK0 ] unsigned int 
  4239 ;; Auto vars:     Size  Location     Type
  4240 ;;		None
  4241 ;; Return value:  Size  Location     Type
  4242 ;;		None               void
  4243 ;; Registers used:
  4244 ;;		wreg
  4245 ;; Tracked objects:
  4246 ;;		On entry : 0/0
  4247 ;;		On exit  : 0/0
  4248 ;;		Unchanged: 0/0
  4249 ;; Data sizes:     COMMON   BANK0   BANK1   BANK3   BANK2
  4250 ;;      Params:         0       2       0       0       0
  4251 ;;      Locals:         0       0       0       0       0
  4252 ;;      Temps:          0       0       0       0       0
  4253 ;;      Totals:         0       2       0       0       0
  4254 ;;Total ram usage:        2 bytes
  4255 ;; Hardware stack levels used:    1
  4256 ;; Hardware stack levels required when called:    1
  4257 ;; This function calls:
  4258 ;;		Nothing
  4259 ;; This function is called by:
  4260 ;;		_main
  4261 ;; This function uses a non-reentrant model
  4262 ;;
  4263                           psect	text1000
  4264                           	file	"D:\6_pic_project\00_Design_Flow_Car\System\Delay.c"
  4265                           	line	4
  4266                           	global	__size_of_Delay_ms
  4267  0017                     	__size_of_Delay_ms	equ	__end_of_Delay_ms-_Delay_ms
  4268                           	
  4269  0DF0                     _Delay_ms:	
  4270                           	opt	stack 6
  4271                           ; Regs used in _Delay_ms: [wreg]
  4272                           	line	5
  4273                           	
  4274  0DF0                     l14200:	
  4275                           ;Delay.c: 5: while(x--)
  4276  0DF0  2DF3               	goto	l14202
  4277                           	
  4278  0DF1                     l5687:	
  4279                           	line	7
  4280                           ;Delay.c: 6: {
  4281                           ;Delay.c: 7: _nop();
  4282  0DF1  0000               	nop
  4283  0DF2  2DF3               	goto	l14202
  4284                           	line	8
  4285                           	
  4286  0DF3                     l5686:	
  4287                           	line	5
  4288                           	
  4289  0DF3                     l14202:	
  4290  0DF3  3001               	movlw	low(01h)
  4291  0DF4  1283               	bcf	status, 5	;RP0=0, select bank0
  4292  0DF5  1303               	bcf	status, 6	;RP1=0, select bank0
  4293  0DF6  02A0               	subwf	(Delay_ms@x),f
  4294  0DF7  3000               	movlw	high(01h)
  4295  0DF8  1C03               	skipc
  4296  0DF9  03A1               	decf	(Delay_ms@x+1),f
  4297  0DFA  02A1               	subwf	(Delay_ms@x+1),f
  4298  0DFB  30FF               	movlw	high(0FFFFh)
  4299  0DFC  0621               	xorwf	((Delay_ms@x+1)),w
  4300  0DFD  1D03               	skipz
  4301  0DFE  2E01               	goto	u5675
  4302  0DFF  30FF               	movlw	low(0FFFFh)
  4303  0E00  0620               	xorwf	((Delay_ms@x)),w
  4304  0E01                     u5675:
  4305                           
  4306  0E01  1D03               	skipz
  4307  0E02  2E04               	goto	u5671
  4308  0E03  2E05               	goto	u5670
  4309  0E04                     u5671:
  4310  0E04  2DF1               	goto	l5687
  4311  0E05                     u5670:
  4312  0E05  2E06               	goto	l5689
  4313                           	
  4314  0E06                     l5688:	
  4315                           	line	9
  4316                           	
  4317  0E06                     l5689:	
  4318  0E06  0008               	return
  4319                           	opt stack 0
  4320                           GLOBAL	__end_of_Delay_ms
  4321  0E07                     	__end_of_Delay_ms:
  4322 ;; =============== function _Delay_ms ends ============
  4323                           
  4324                           	signat	_Delay_ms,4216
  4325                           	global	_printf
  4326                           psect	text1001,local,class=CODE,delta=2
  4327                           global __ptext1001
  4328  0795                     __ptext1001:
  4329                           
  4330 ;; *************** function _printf *****************
  4331 ;; Defined at:
  4332 ;;		line 461 in file "C:\Program Files (x86)\HI-TECH Software\PICC\9.82\lib\doprnt.c"
  4333 ;; Parameters:    Size  Location     Type
  4334 ;;  f               1    wreg     PTR const unsigned char 
  4335 ;;		 -> STR_4(18), STR_1(3), 
  4336 ;; Auto vars:     Size  Location     Type
  4337 ;;  f               1    6[BANK0 ] PTR const unsigned char 
  4338 ;;		 -> STR_4(18), STR_1(3), 
  4339 ;;  _val            4    0        struct .
  4340 ;;  c               1    7[BANK0 ] char 
  4341 ;;  ap              1    5[BANK0 ] PTR void [1]
  4342 ;;		 -> ?_printf(2), 
  4343 ;;  flag            1    4[BANK0 ] unsigned char 
  4344 ;;  prec            1    0        char 
  4345 ;; Return value:  Size  Location     Type
  4346 ;;                  2    1[BANK0 ] int 
  4347 ;; Registers used:
  4348 ;;		wreg, fsr0l, fsr0h, status,2, status,0, pclath, cstack
  4349 ;; Tracked objects:
  4350 ;;		On entry : 0/0
  4351 ;;		On exit  : 0/0
  4352 ;;		Unchanged: 0/0
  4353 ;; Data sizes:     COMMON   BANK0   BANK1   BANK3   BANK2
  4354 ;;      Params:         0       2       0       0       0
  4355 ;;      Locals:         0       4       0       0       0
  4356 ;;      Temps:          0       1       0       0       0
  4357 ;;      Totals:         0       7       0       0       0
  4358 ;;Total ram usage:        7 bytes
  4359 ;; Hardware stack levels used:    1
  4360 ;; Hardware stack levels required when called:    2
  4361 ;; This function calls:
  4362 ;;		_putch
  4363 ;; This function is called by:
  4364 ;;		_main
  4365 ;;		_Serial_PrintString
  4366 ;; This function uses a non-reentrant model
  4367 ;;
  4368                           psect	text1001
  4369                           	file	"C:\Program Files (x86)\HI-TECH Software\PICC\9.82\sources\doprnt.c"
  4370                           	line	461
  4371                           	global	__size_of_printf
  4372  0058                     	__size_of_printf	equ	__end_of_printf-_printf
  4373                           	
  4374  0795                     _printf:	
  4375                           	opt	stack 5
  4376                           ; Regs used in _printf: [wreg-fsr0h+status,2+status,0+pclath+cstack]
  4377                           ;printf@f stored from wreg
  4378                           	line	537
  4379  0795  1283               	bcf	status, 5	;RP0=0, select bank0
  4380  0796  1303               	bcf	status, 6	;RP1=0, select bank0
  4381  0797  00A6               	movwf	(printf@f)
  4382                           	
  4383  0798                     l14182:	
  4384  0798  3021               	movlw	(?_printf)&0ffh
  4385  0799  00A3               	movwf	(??_printf+0)+0
  4386  079A  0823               	movf	(??_printf+0)+0,w
  4387  079B  00A5               	movwf	(printf@ap)
  4388                           	line	540
  4389  079C  2FD6               	goto	l14198
  4390                           	
  4391  079D                     l10014:	
  4392                           	line	542
  4393                           	
  4394  079D                     l14184:	
  4395  079D  0827               	movf	(printf@c),w
  4396  079E  3A25               	xorlw	025h
  4397  079F  1903               	skipnz
  4398  07A0  2FA2               	goto	u5651
  4399  07A1  2FA3               	goto	u5650
  4400  07A2                     u5651:
  4401  07A2  2FAA               	goto	l10015
  4402  07A3                     u5650:
  4403                           	line	545
  4404                           	
  4405  07A3                     l14186:	
  4406  07A3  0827               	movf	(printf@c),w
  4407  07A4  120A  158A  2565   	fcall	_putch
              120A  118A         
  4408                           	line	546
  4409  07A9  2FD6               	goto	l14198
  4410                           	line	547
  4411                           	
  4412  07AA                     l10015:	
  4413                           	line	552
  4414  07AA  01A4               	clrf	(printf@flag)
  4415                           	line	638
  4416  07AB  2FC1               	goto	l14196
  4417                           	line	640
  4418                           	
  4419  07AC                     l10017:	
  4420                           	line	641
  4421  07AC  2FEC               	goto	l10023
  4422                           	line	787
  4423                           	
  4424  07AD                     l10019:	
  4425                           	line	802
  4426                           	
  4427  07AD                     l14188:	
  4428  07AD  0825               	movf	(printf@ap),w
  4429  07AE  0084               	movwf	fsr0
  4430  07AF  1383               	bcf	status, 7	;select IRP bank0
  4431  07B0  0800               	movf	indf,w
  4432  07B1  00A3               	movwf	(??_printf+0)+0
  4433  07B2  0823               	movf	(??_printf+0)+0,w
  4434  07B3  00A7               	movwf	(printf@c)
  4435                           	
  4436  07B4                     l14190:	
  4437  07B4  3002               	movlw	(02h)
  4438  07B5  00A3               	movwf	(??_printf+0)+0
  4439  07B6  0823               	movf	(??_printf+0)+0,w
  4440  07B7  07A5               	addwf	(printf@ap),f
  4441  07B8  2FB9               	goto	l14192
  4442                           	line	805
  4443                           	
  4444  07B9                     l10020:	
  4445                           	line	812
  4446                           	
  4447  07B9                     l14192:	
  4448  07B9  0827               	movf	(printf@c),w
  4449  07BA  120A  158A  2565   	fcall	_putch
              120A  118A         
  4450                           	line	813
  4451  07BF  2FD6               	goto	l14198
  4452                           	line	825
  4453                           	
  4454  07C0                     l14194:	
  4455  07C0  2FD6               	goto	l14198
  4456                           	line	638
  4457                           	
  4458  07C1                     l10016:	
  4459                           	
  4460  07C1                     l14196:	
  4461  07C1  3001               	movlw	01h
  4462  07C2  1283               	bcf	status, 5	;RP0=0, select bank0
  4463  07C3  1303               	bcf	status, 6	;RP1=0, select bank0
  4464  07C4  07A6               	addwf	(printf@f),f
  4465  07C5  30FF               	movlw	-01h
  4466  07C6  0726               	addwf	(printf@f),w
  4467  07C7  0084               	movwf	fsr0
  4468  07C8  120A  158A  2000   	fcall	stringdir
              120A  118A         
  4469  07CD  00A7               	movwf	(printf@c)
  4470                           	; Switch size 1, requested type "space"
  4471                           ; Number of cases is 2, Range of values is 0 to 99
  4472                           ; switch strategies available:
  4473                           ; Name         Instructions Cycles
  4474                           ; simple_byte            7     4 (average)
  4475                           ; jumptable            260     6 (fixed)
  4476                           ; rangetable           104     6 (fixed)
  4477                           ; spacedrange          206     9 (fixed)
  4478                           ; locatedrange         100     3 (fixed)
  4479                           ;	Chosen strategy is simple_byte
  4480                           
  4481                           	opt asmopt_off
  4482  07CE  3A00               	xorlw	0^0	; case 0
  4483  07CF  1903               	skipnz
  4484  07D0  2FEC               	goto	l10023
  4485  07D1  3A63               	xorlw	99^0	; case 99
  4486  07D2  1903               	skipnz
  4487  07D3  2FAD               	goto	l14188
  4488  07D4  2FB9               	goto	l14192
  4489                           	opt asmopt_on
  4490                           
  4491                           	line	825
  4492                           	
  4493  07D5                     l10021:	
  4494  07D5  2FD6               	goto	l14198
  4495                           	line	1525
  4496                           	
  4497  07D6                     l10013:	
  4498                           	line	540
  4499                           	
  4500  07D6                     l14198:	
  4501  07D6  3001               	movlw	01h
  4502  07D7  1283               	bcf	status, 5	;RP0=0, select bank0
  4503  07D8  1303               	bcf	status, 6	;RP1=0, select bank0
  4504  07D9  07A6               	addwf	(printf@f),f
  4505  07DA  30FF               	movlw	-01h
  4506  07DB  0726               	addwf	(printf@f),w
  4507  07DC  0084               	movwf	fsr0
  4508  07DD  120A  158A  2000   	fcall	stringdir
              120A  118A         
  4509  07E2  00A3               	movwf	(??_printf+0)+0
  4510  07E3  0823               	movf	(??_printf+0)+0,w
  4511  07E4  00A7               	movwf	(printf@c)
  4512  07E5  08A7               	movf	((printf@c)),f
  4513  07E6  1D03               	skipz
  4514  07E7  2FE9               	goto	u5661
  4515  07E8  2FEA               	goto	u5660
  4516  07E9                     u5661:
  4517  07E9  2F9D               	goto	l14184
  4518  07EA                     u5660:
  4519  07EA  2FEC               	goto	l10023
  4520                           	
  4521  07EB                     l10022:	
  4522  07EB  2FEC               	goto	l10023
  4523                           	line	1527
  4524                           	
  4525  07EC                     l10018:	
  4526                           	line	1533
  4527                           ;	Return value of _printf is never used
  4528                           	
  4529  07EC                     l10023:	
  4530  07EC  0008               	return
  4531                           	opt stack 0
  4532                           GLOBAL	__end_of_printf
  4533  07ED                     	__end_of_printf:
  4534 ;; =============== function _printf ends ============
  4535                           
  4536                           	signat	_printf,602
  4537                           	global	_LCD1602_WriteData
  4538                           psect	text1002,local,class=CODE,delta=2
  4539                           global __ptext1002
  4540  0DA3                     __ptext1002:
  4541                           
  4542 ;; *************** function _LCD1602_WriteData *****************
  4543 ;; Defined at:
  4544 ;;		line 38 in file "D:\6_pic_project\00_Design_Flow_Car\Driver\LCD1602.c"
  4545 ;; Parameters:    Size  Location     Type
  4546 ;;  Data            1    wreg     unsigned char 
  4547 ;; Auto vars:     Size  Location     Type
  4548 ;;  Data            1    2[BANK0 ] unsigned char 
  4549 ;; Return value:  Size  Location     Type
  4550 ;;		None               void
  4551 ;; Registers used:
  4552 ;;		wreg, status,2, status,0, pclath, cstack
  4553 ;; Tracked objects:
  4554 ;;		On entry : 0/0
  4555 ;;		On exit  : 0/0
  4556 ;;		Unchanged: 0/0
  4557 ;; Data sizes:     COMMON   BANK0   BANK1   BANK3   BANK2
  4558 ;;      Params:         0       0       0       0       0
  4559 ;;      Locals:         0       1       0       0       0
  4560 ;;      Temps:          0       0       0       0       0
  4561 ;;      Totals:         0       1       0       0       0
  4562 ;;Total ram usage:        1 bytes
  4563 ;; Hardware stack levels used:    1
  4564 ;; Hardware stack levels required when called:    2
  4565 ;; This function calls:
  4566 ;;		_LCD1602_Delay
  4567 ;; This function is called by:
  4568 ;;		_LCD1602_WriteString
  4569 ;;		_LCD1602_WriteChar
  4570 ;;		_LCD1602_WriteNum
  4571 ;;		_LCD1602_WriteLongNum
  4572 ;; This function uses a non-reentrant model
  4573 ;;
  4574                           psect	text1002
  4575                           	file	"D:\6_pic_project\00_Design_Flow_Car\Driver\LCD1602.c"
  4576                           	line	38
  4577                           	global	__size_of_LCD1602_WriteData
  4578  0011                     	__size_of_LCD1602_WriteData	equ	__end_of_LCD1602_WriteData-_LCD1602_WriteData
  4579                           	
  4580  0DA3                     _LCD1602_WriteData:	
  4581                           	opt	stack 4
  4582                           ; Regs used in _LCD1602_WriteData: [wreg+status,2+status,0+pclath+cstack]
  4583                           ;LCD1602_WriteData@Data stored from wreg
  4584  0DA3  1283               	bcf	status, 5	;RP0=0, select bank0
  4585  0DA4  1303               	bcf	status, 6	;RP1=0, select bank0
  4586  0DA5  00A2               	movwf	(LCD1602_WriteData@Data)
  4587                           	line	39
  4588                           	
  4589  0DA6                     l14170:	
  4590                           ;LCD1602.c: 39: PORTD=Data;
  4591  0DA6  0822               	movf	(LCD1602_WriteData@Data),w
  4592  0DA7  0088               	movwf	(8)	;volatile
  4593                           	line	40
  4594                           	
  4595  0DA8                     l14172:	
  4596                           ;LCD1602.c: 40: RA5=1;RA2=0;RA3=0;LCD1602_Delay();RA3=1;
  4597  0DA8  1685               	bsf	(45/8),(45)&7
  4598                           	
  4599  0DA9                     l14174:	
  4600  0DA9  1105               	bcf	(42/8),(42)&7
  4601                           	
  4602  0DAA                     l14176:	
  4603  0DAA  1185               	bcf	(43/8),(43)&7
  4604                           	
  4605  0DAB                     l14178:	
  4606  0DAB  120A  158A  2607   	fcall	_LCD1602_Delay
              120A  158A         
  4607                           	
  4608  0DB0                     l14180:	
  4609  0DB0  1283               	bcf	status, 5	;RP0=0, select bank0
  4610  0DB1  1303               	bcf	status, 6	;RP1=0, select bank0
  4611  0DB2  1585               	bsf	(43/8),(43)&7
  4612                           	line	41
  4613                           	
  4614  0DB3                     l693:	
  4615  0DB3  0008               	return
  4616                           	opt stack 0
  4617                           GLOBAL	__end_of_LCD1602_WriteData
  4618  0DB4                     	__end_of_LCD1602_WriteData:
  4619 ;; =============== function _LCD1602_WriteData ends ============
  4620                           
  4621                           	signat	_LCD1602_WriteData,4216
  4622                           	global	_LCD1602_WriteCommand
  4623                           psect	text1003,local,class=CODE,delta=2
  4624                           global __ptext1003
  4625  0D92                     __ptext1003:
  4626                           
  4627 ;; *************** function _LCD1602_WriteCommand *****************
  4628 ;; Defined at:
  4629 ;;		line 26 in file "D:\6_pic_project\00_Design_Flow_Car\Driver\LCD1602.c"
  4630 ;; Parameters:    Size  Location     Type
  4631 ;;  Command         1    wreg     unsigned char 
  4632 ;; Auto vars:     Size  Location     Type
  4633 ;;  Command         1    2[BANK0 ] unsigned char 
  4634 ;; Return value:  Size  Location     Type
  4635 ;;		None               void
  4636 ;; Registers used:
  4637 ;;		wreg, status,2, status,0, pclath, cstack
  4638 ;; Tracked objects:
  4639 ;;		On entry : 0/0
  4640 ;;		On exit  : 0/0
  4641 ;;		Unchanged: 0/0
  4642 ;; Data sizes:     COMMON   BANK0   BANK1   BANK3   BANK2
  4643 ;;      Params:         0       0       0       0       0
  4644 ;;      Locals:         0       1       0       0       0
  4645 ;;      Temps:          0       0       0       0       0
  4646 ;;      Totals:         0       1       0       0       0
  4647 ;;Total ram usage:        1 bytes
  4648 ;; Hardware stack levels used:    1
  4649 ;; Hardware stack levels required when called:    2
  4650 ;; This function calls:
  4651 ;;		_LCD1602_Delay
  4652 ;; This function is called by:
  4653 ;;		_LCD1602_Init
  4654 ;;		_LCD1602_WriteString
  4655 ;;		_LCD1602_WriteChar
  4656 ;;		_LCD1602_WriteNum
  4657 ;;		_LCD1602_WriteLongNum
  4658 ;; This function uses a non-reentrant model
  4659 ;;
  4660                           psect	text1003
  4661                           	file	"D:\6_pic_project\00_Design_Flow_Car\Driver\LCD1602.c"
  4662                           	line	26
  4663                           	global	__size_of_LCD1602_WriteCommand
  4664  0011                     	__size_of_LCD1602_WriteCommand	equ	__end_of_LCD1602_WriteCommand-_LCD1602_WriteCommand
  4665                           	
  4666  0D92                     _LCD1602_WriteCommand:	
  4667                           	opt	stack 4
  4668                           ; Regs used in _LCD1602_WriteCommand: [wreg+status,2+status,0+pclath+cstack]
  4669                           ;LCD1602_WriteCommand@Command stored from wreg
  4670  0D92  1283               	bcf	status, 5	;RP0=0, select bank0
  4671  0D93  1303               	bcf	status, 6	;RP1=0, select bank0
  4672  0D94  00A2               	movwf	(LCD1602_WriteCommand@Command)
  4673                           	line	27
  4674                           	
  4675  0D95                     l14158:	
  4676                           ;LCD1602.c: 27: PORTD=Command;
  4677  0D95  0822               	movf	(LCD1602_WriteCommand@Command),w
  4678  0D96  0088               	movwf	(8)	;volatile
  4679                           	line	28
  4680                           	
  4681  0D97                     l14160:	
  4682                           ;LCD1602.c: 28: RA5=0;RA2=0;RA3=0;LCD1602_Delay();RA3=1;
  4683  0D97  1285               	bcf	(45/8),(45)&7
  4684                           	
  4685  0D98                     l14162:	
  4686  0D98  1105               	bcf	(42/8),(42)&7
  4687                           	
  4688  0D99                     l14164:	
  4689  0D99  1185               	bcf	(43/8),(43)&7
  4690                           	
  4691  0D9A                     l14166:	
  4692  0D9A  120A  158A  2607   	fcall	_LCD1602_Delay
              120A  158A         
  4693                           	
  4694  0D9F                     l14168:	
  4695  0D9F  1283               	bcf	status, 5	;RP0=0, select bank0
  4696  0DA0  1303               	bcf	status, 6	;RP1=0, select bank0
  4697  0DA1  1585               	bsf	(43/8),(43)&7
  4698                           	line	29
  4699                           	
  4700  0DA2                     l690:	
  4701  0DA2  0008               	return
  4702                           	opt stack 0
  4703                           GLOBAL	__end_of_LCD1602_WriteCommand
  4704  0DA3                     	__end_of_LCD1602_WriteCommand:
  4705 ;; =============== function _LCD1602_WriteCommand ends ============
  4706                           
  4707                           	signat	_LCD1602_WriteCommand,4216
  4708                           	global	___fttol
  4709                           psect	text1004,local,class=CODE,delta=2
  4710                           global __ptext1004
  4711  0665                     __ptext1004:
  4712                           
  4713 ;; *************** function ___fttol *****************
  4714 ;; Defined at:
  4715 ;;		line 45 in file "C:\Program Files (x86)\HI-TECH Software\PICC\9.82\sources\fttol.c"
  4716 ;; Parameters:    Size  Location     Type
  4717 ;;  f1              3    8[BANK0 ] float 
  4718 ;; Auto vars:     Size  Location     Type
  4719 ;;  lval            4   17[BANK0 ] unsigned long 
  4720 ;;  exp1            1   21[BANK0 ] unsigned char 
  4721 ;;  sign1           1   16[BANK0 ] unsigned char 
  4722 ;; Return value:  Size  Location     Type
  4723 ;;                  4    8[BANK0 ] long 
  4724 ;; Registers used:
  4725 ;;		wreg, status,2, status,0
  4726 ;; Tracked objects:
  4727 ;;		On entry : 0/0
  4728 ;;		On exit  : 0/0
  4729 ;;		Unchanged: 0/0
  4730 ;; Data sizes:     COMMON   BANK0   BANK1   BANK3   BANK2
  4731 ;;      Params:         0       4       0       0       0
  4732 ;;      Locals:         0       6       0       0       0
  4733 ;;      Temps:          0       4       0       0       0
  4734 ;;      Totals:         0      14       0       0       0
  4735 ;;Total ram usage:       14 bytes
  4736 ;; Hardware stack levels used:    1
  4737 ;; Hardware stack levels required when called:    1
  4738 ;; This function calls:
  4739 ;;		Nothing
  4740 ;; This function is called by:
  4741 ;;		_Trace_PID
  4742 ;; This function uses a non-reentrant model
  4743 ;;
  4744                           psect	text1004
  4745                           	file	"C:\Program Files (x86)\HI-TECH Software\PICC\9.82\sources\fttol.c"
  4746                           	line	45
  4747                           	global	__size_of___fttol
  4748  00A6                     	__size_of___fttol	equ	__end_of___fttol-___fttol
  4749                           	
  4750  0665                     ___fttol:	
  4751                           	opt	stack 5
  4752                           ; Regs used in ___fttol: [wreg+status,2+status,0]
  4753                           	line	49
  4754                           	
  4755  0665                     l13338:	
  4756  0665  1283               	bcf	status, 5	;RP0=0, select bank0
  4757  0666  1303               	bcf	status, 6	;RP1=0, select bank0
  4758  0667  0828               	movf	(___fttol@f1),w
  4759  0668  00AC               	movwf	((??___fttol+0)+0)
  4760  0669  0829               	movf	(___fttol@f1+1),w
  4761  066A  00AD               	movwf	((??___fttol+0)+0+1)
  4762  066B  082A               	movf	(___fttol@f1+2),w
  4763  066C  00AE               	movwf	((??___fttol+0)+0+2)
  4764  066D  1003               	clrc
  4765  066E  0D2D               	rlf	(??___fttol+0)+1,w
  4766  066F  0D2E               	rlf	(??___fttol+0)+2,w
  4767  0670  00AF               	movwf	(??___fttol+3)+0
  4768  0671  082F               	movf	(??___fttol+3)+0,w
  4769  0672  00B5               	movwf	(___fttol@exp1)
  4770  0673  08B5               	movf	((___fttol@exp1)),f
  4771  0674  1D03               	skipz
  4772  0675  2E77               	goto	u4261
  4773  0676  2E78               	goto	u4260
  4774  0677                     u4261:
  4775  0677  2E82               	goto	l13344
  4776  0678                     u4260:
  4777                           	line	50
  4778                           	
  4779  0678                     l13340:	
  4780  0678  3000               	movlw	0
  4781  0679  00AB               	movwf	(?___fttol+3)
  4782  067A  3000               	movlw	0
  4783  067B  00AA               	movwf	(?___fttol+2)
  4784  067C  3000               	movlw	0
  4785  067D  00A9               	movwf	(?___fttol+1)
  4786  067E  3000               	movlw	0
  4787  067F  00A8               	movwf	(?___fttol)
  4788                           
  4789  0680  2F0A               	goto	l10816
  4790                           	
  4791  0681                     l13342:	
  4792  0681  2F0A               	goto	l10816
  4793                           	
  4794  0682                     l10815:	
  4795                           	line	51
  4796                           	
  4797  0682                     l13344:	
  4798  0682  0828               	movf	(___fttol@f1),w
  4799  0683  00AC               	movwf	((??___fttol+0)+0)
  4800  0684  0829               	movf	(___fttol@f1+1),w
  4801  0685  00AD               	movwf	((??___fttol+0)+0+1)
  4802  0686  082A               	movf	(___fttol@f1+2),w
  4803  0687  00AE               	movwf	((??___fttol+0)+0+2)
  4804  0688  3017               	movlw	017h
  4805  0689                     u4275:
  4806  0689  1003               	clrc
  4807  068A  0CAE               	rrf	(??___fttol+0)+2,f
  4808  068B  0CAD               	rrf	(??___fttol+0)+1,f
  4809  068C  0CAC               	rrf	(??___fttol+0)+0,f
  4810  068D                     u4270:
  4811  068D  3EFF               	addlw	-1
  4812  068E  1D03               	skipz
  4813  068F  2E89               	goto	u4275
  4814  0690  082C               	movf	0+(??___fttol+0)+0,w
  4815  0691  00AF               	movwf	(??___fttol+3)+0
  4816  0692  082F               	movf	(??___fttol+3)+0,w
  4817  0693  00B0               	movwf	(___fttol@sign1)
  4818                           	line	52
  4819                           	
  4820  0694                     l13346:	
  4821  0694  17A9               	bsf	(___fttol@f1)+(15/8),(15)&7
  4822                           	line	53
  4823                           	
  4824  0695                     l13348:	
  4825  0695  30FF               	movlw	0FFh
  4826  0696  05A8               	andwf	(___fttol@f1),f
  4827  0697  30FF               	movlw	0FFh
  4828  0698  05A9               	andwf	(___fttol@f1+1),f
  4829  0699  3000               	movlw	0
  4830  069A  05AA               	andwf	(___fttol@f1+2),f
  4831                           	line	54
  4832                           	
  4833  069B                     l13350:	
  4834  069B  0828               	movf	(___fttol@f1),w
  4835  069C  00B1               	movwf	(___fttol@lval)
  4836  069D  0829               	movf	(___fttol@f1+1),w
  4837  069E  00B2               	movwf	((___fttol@lval))+1
  4838  069F  082A               	movf	(___fttol@f1+2),w
  4839  06A0  00B3               	movwf	((___fttol@lval))+2
  4840  06A1  01B4               	clrf	((___fttol@lval))+3
  4841                           	line	55
  4842                           	
  4843  06A2                     l13352:	
  4844  06A2  308E               	movlw	low(08Eh)
  4845  06A3  02B5               	subwf	(___fttol@exp1),f
  4846                           	line	56
  4847                           	
  4848  06A4                     l13354:	
  4849  06A4  1FB5               	btfss	(___fttol@exp1),7
  4850  06A5  2EA7               	goto	u4281
  4851  06A6  2EA8               	goto	u4280
  4852  06A7                     u4281:
  4853  06A7  2ECD               	goto	l13364
  4854  06A8                     u4280:
  4855                           	line	57
  4856                           	
  4857  06A8                     l13356:	
  4858  06A8  0835               	movf	(___fttol@exp1),w
  4859  06A9  3A80               	xorlw	80h
  4860  06AA  3E8F               	addlw	-((-15)^80h)
  4861  06AB  1803               	skipnc
  4862  06AC  2EAE               	goto	u4291
  4863  06AD  2EAF               	goto	u4290
  4864  06AE                     u4291:
  4865  06AE  2EBA               	goto	l13362
  4866  06AF                     u4290:
  4867                           	line	58
  4868                           	
  4869  06AF                     l13358:	
  4870  06AF  3000               	movlw	0
  4871  06B0  00AB               	movwf	(?___fttol+3)
  4872  06B1  3000               	movlw	0
  4873  06B2  00AA               	movwf	(?___fttol+2)
  4874  06B3  3000               	movlw	0
  4875  06B4  00A9               	movwf	(?___fttol+1)
  4876  06B5  3000               	movlw	0
  4877  06B6  00A8               	movwf	(?___fttol)
  4878                           
  4879  06B7  2F0A               	goto	l10816
  4880                           	
  4881  06B8                     l13360:	
  4882  06B8  2F0A               	goto	l10816
  4883                           	
  4884  06B9                     l10818:	
  4885  06B9  2EBA               	goto	l13362
  4886                           	line	59
  4887                           	
  4888  06BA                     l10819:	
  4889                           	line	60
  4890                           	
  4891  06BA                     l13362:	
  4892  06BA  3001               	movlw	01h
  4893  06BB                     u4305:
  4894  06BB  1003               	clrc
  4895  06BC  0CB4               	rrf	(___fttol@lval+3),f
  4896  06BD  0CB3               	rrf	(___fttol@lval+2),f
  4897  06BE  0CB2               	rrf	(___fttol@lval+1),f
  4898  06BF  0CB1               	rrf	(___fttol@lval),f
  4899  06C0  3EFF               	addlw	-1
  4900  06C1  1D03               	skipz
  4901  06C2  2EBB               	goto	u4305
  4902                           
  4903                           	line	61
  4904  06C3  3001               	movlw	(01h)
  4905  06C4  00AC               	movwf	(??___fttol+0)+0
  4906  06C5  082C               	movf	(??___fttol+0)+0,w
  4907  06C6  07B5               	addwf	(___fttol@exp1),f
  4908  06C7  1D03               	btfss	status,2
  4909  06C8  2ECA               	goto	u4311
  4910  06C9  2ECB               	goto	u4310
  4911  06CA                     u4311:
  4912  06CA  2EBA               	goto	l13362
  4913  06CB                     u4310:
  4914  06CB  2EF1               	goto	l13374
  4915                           	
  4916  06CC                     l10820:	
  4917                           	line	62
  4918  06CC  2EF1               	goto	l13374
  4919                           	
  4920  06CD                     l10817:	
  4921                           	line	63
  4922                           	
  4923  06CD                     l13364:	
  4924  06CD  3018               	movlw	(018h)
  4925  06CE  0235               	subwf	(___fttol@exp1),w
  4926  06CF  1C03               	skipc
  4927  06D0  2ED2               	goto	u4321
  4928  06D1  2ED3               	goto	u4320
  4929  06D2                     u4321:
  4930  06D2  2EEA               	goto	l13372
  4931  06D3                     u4320:
  4932                           	line	64
  4933                           	
  4934  06D3                     l13366:	
  4935  06D3  3000               	movlw	0
  4936  06D4  00AB               	movwf	(?___fttol+3)
  4937  06D5  3000               	movlw	0
  4938  06D6  00AA               	movwf	(?___fttol+2)
  4939  06D7  3000               	movlw	0
  4940  06D8  00A9               	movwf	(?___fttol+1)
  4941  06D9  3000               	movlw	0
  4942  06DA  00A8               	movwf	(?___fttol)
  4943                           
  4944  06DB  2F0A               	goto	l10816
  4945                           	
  4946  06DC                     l13368:	
  4947  06DC  2F0A               	goto	l10816
  4948                           	
  4949  06DD                     l10822:	
  4950                           	line	65
  4951  06DD  2EEA               	goto	l13372
  4952                           	
  4953  06DE                     l10824:	
  4954                           	line	66
  4955                           	
  4956  06DE                     l13370:	
  4957  06DE  3001               	movlw	01h
  4958  06DF  00AC               	movwf	(??___fttol+0)+0
  4959  06E0                     u4335:
  4960  06E0  1003               	clrc
  4961  06E1  0DB1               	rlf	(___fttol@lval),f
  4962  06E2  0DB2               	rlf	(___fttol@lval+1),f
  4963  06E3  0DB3               	rlf	(___fttol@lval+2),f
  4964  06E4  0DB4               	rlf	(___fttol@lval+3),f
  4965  06E5  0BAC               	decfsz	(??___fttol+0)+0
  4966  06E6  2EE0               	goto	u4335
  4967                           	line	67
  4968  06E7  3001               	movlw	low(01h)
  4969  06E8  02B5               	subwf	(___fttol@exp1),f
  4970  06E9  2EEA               	goto	l13372
  4971                           	line	68
  4972                           	
  4973  06EA                     l10823:	
  4974                           	line	65
  4975                           	
  4976  06EA                     l13372:	
  4977  06EA  08B5               	movf	(___fttol@exp1),f
  4978  06EB  1D03               	skipz
  4979  06EC  2EEE               	goto	u4341
  4980  06ED  2EEF               	goto	u4340
  4981  06EE                     u4341:
  4982  06EE  2EDE               	goto	l13370
  4983  06EF                     u4340:
  4984  06EF  2EF1               	goto	l13374
  4985                           	
  4986  06F0                     l10825:	
  4987  06F0  2EF1               	goto	l13374
  4988                           	line	69
  4989                           	
  4990  06F1                     l10821:	
  4991                           	line	70
  4992                           	
  4993  06F1                     l13374:	
  4994  06F1  0830               	movf	(___fttol@sign1),w
  4995  06F2  1D03               	skipz
  4996  06F3  2EF5               	goto	u4350
  4997  06F4  2F01               	goto	l13378
  4998  06F5                     u4350:
  4999                           	line	71
  5000                           	
  5001  06F5                     l13376:	
  5002  06F5  09B1               	comf	(___fttol@lval),f
  5003  06F6  09B2               	comf	(___fttol@lval+1),f
  5004  06F7  09B3               	comf	(___fttol@lval+2),f
  5005  06F8  09B4               	comf	(___fttol@lval+3),f
  5006  06F9  0AB1               	incf	(___fttol@lval),f
  5007  06FA  1903               	skipnz
  5008  06FB  0AB2               	incf	(___fttol@lval+1),f
  5009  06FC  1903               	skipnz
  5010  06FD  0AB3               	incf	(___fttol@lval+2),f
  5011  06FE  1903               	skipnz
  5012  06FF  0AB4               	incf	(___fttol@lval+3),f
  5013  0700  2F01               	goto	l13378
  5014                           	
  5015  0701                     l10826:	
  5016                           	line	72
  5017                           	
  5018  0701                     l13378:	
  5019  0701  0834               	movf	(___fttol@lval+3),w
  5020  0702  00AB               	movwf	(?___fttol+3)
  5021  0703  0833               	movf	(___fttol@lval+2),w
  5022  0704  00AA               	movwf	(?___fttol+2)
  5023  0705  0832               	movf	(___fttol@lval+1),w
  5024  0706  00A9               	movwf	(?___fttol+1)
  5025  0707  0831               	movf	(___fttol@lval),w
  5026  0708  00A8               	movwf	(?___fttol)
  5027                           
  5028  0709  2F0A               	goto	l10816
  5029                           	
  5030  070A                     l13380:	
  5031                           	line	73
  5032                           	
  5033  070A                     l10816:	
  5034  070A  0008               	return
  5035                           	opt stack 0
  5036                           GLOBAL	__end_of___fttol
  5037  070B                     	__end_of___fttol:
  5038 ;; =============== function ___fttol ends ============
  5039                           
  5040                           	signat	___fttol,4220
  5041                           	global	___ftpack
  5042                           psect	text1005,local,class=CODE,delta=2
  5043                           global __ptext1005
  5044  0F83                     __ptext1005:
  5045                           
  5046 ;; *************** function ___ftpack *****************
  5047 ;; Defined at:
  5048 ;;		line 63 in file "C:\Program Files (x86)\HI-TECH Software\PICC\9.82\sources\float.c"
  5049 ;; Parameters:    Size  Location     Type
  5050 ;;  arg             3    0[BANK0 ] unsigned um
  5051 ;;  exp             1    3[BANK0 ] unsigned char 
  5052 ;;  sign            1    4[BANK0 ] unsigned char 
  5053 ;; Auto vars:     Size  Location     Type
  5054 ;;		None
  5055 ;; Return value:  Size  Location     Type
  5056 ;;                  3    0[BANK0 ] float 
  5057 ;; Registers used:
  5058 ;;		wreg, status,2, status,0
  5059 ;; Tracked objects:
  5060 ;;		On entry : 0/0
  5061 ;;		On exit  : 0/0
  5062 ;;		Unchanged: 0/0
  5063 ;; Data sizes:     COMMON   BANK0   BANK1   BANK3   BANK2
  5064 ;;      Params:         0       5       0       0       0
  5065 ;;      Locals:         0       0       0       0       0
  5066 ;;      Temps:          0       3       0       0       0
  5067 ;;      Totals:         0       8       0       0       0
  5068 ;;Total ram usage:        8 bytes
  5069 ;; Hardware stack levels used:    1
  5070 ;; Hardware stack levels required when called:    1
  5071 ;; This function calls:
  5072 ;;		Nothing
  5073 ;; This function is called by:
  5074 ;;		___ftadd
  5075 ;;		___ftmul
  5076 ;;		___awtoft
  5077 ;;		___ftdiv
  5078 ;;		___lbtoft
  5079 ;;		___abtoft
  5080 ;;		___lwtoft
  5081 ;;		___altoft
  5082 ;;		___lltoft
  5083 ;;		___attoft
  5084 ;;		___lttoft
  5085 ;; This function uses a non-reentrant model
  5086 ;;
  5087                           psect	text1005
  5088                           	file	"C:\Program Files (x86)\HI-TECH Software\PICC\9.82\sources\float.c"
  5089                           	line	63
  5090                           	global	__size_of___ftpack
  5091  007D                     	__size_of___ftpack	equ	__end_of___ftpack-___ftpack
  5092                           	
  5093  0F83                     ___ftpack:	
  5094                           	opt	stack 4
  5095                           ; Regs used in ___ftpack: [wreg+status,2+status,0]
  5096                           	line	64
  5097                           	
  5098  0F83                     l14026:	
  5099  0F83  1283               	bcf	status, 5	;RP0=0, select bank0
  5100  0F84  1303               	bcf	status, 6	;RP1=0, select bank0
  5101  0F85  0823               	movf	(___ftpack@exp),w
  5102  0F86  1D03               	skipz
  5103  0F87  2F89               	goto	u5390
  5104  0F88  2F91               	goto	l14030
  5105  0F89                     u5390:
  5106                           	
  5107  0F89                     l14028:	
  5108  0F89  0822               	movf	(___ftpack@arg+2),w
  5109  0F8A  0421               	iorwf	(___ftpack@arg+1),w
  5110  0F8B  0420               	iorwf	(___ftpack@arg),w
  5111  0F8C  1D03               	skipz
  5112  0F8D  2F8F               	goto	u5401
  5113  0F8E  2F90               	goto	u5400
  5114  0F8F                     u5401:
  5115  0F8F  2FA7               	goto	l14036
  5116  0F90                     u5400:
  5117  0F90  2F91               	goto	l14030
  5118                           	
  5119  0F91                     l11040:	
  5120                           	line	65
  5121                           	
  5122  0F91                     l14030:	
  5123  0F91  3000               	movlw	0x0
  5124  0F92  00A0               	movwf	(?___ftpack)
  5125  0F93  3000               	movlw	0x0
  5126  0F94  00A1               	movwf	(?___ftpack+1)
  5127  0F95  3000               	movlw	0x0
  5128  0F96  00A2               	movwf	(?___ftpack+2)
  5129  0F97  2FFF               	goto	l11041
  5130                           	
  5131  0F98                     l14032:	
  5132  0F98  2FFF               	goto	l11041
  5133                           	
  5134  0F99                     l11038:	
  5135                           	line	66
  5136  0F99  2FA7               	goto	l14036
  5137                           	
  5138  0F9A                     l11043:	
  5139                           	line	67
  5140                           	
  5141  0F9A                     l14034:	
  5142  0F9A  3001               	movlw	(01h)
  5143  0F9B  00A5               	movwf	(??___ftpack+0)+0
  5144  0F9C  0825               	movf	(??___ftpack+0)+0,w
  5145  0F9D  07A3               	addwf	(___ftpack@exp),f
  5146                           	line	68
  5147  0F9E  3001               	movlw	01h
  5148  0F9F                     u5415:
  5149  0F9F  1003               	clrc
  5150  0FA0  0CA2               	rrf	(___ftpack@arg+2),f
  5151  0FA1  0CA1               	rrf	(___ftpack@arg+1),f
  5152  0FA2  0CA0               	rrf	(___ftpack@arg),f
  5153  0FA3  3EFF               	addlw	-1
  5154  0FA4  1D03               	skipz
  5155  0FA5  2F9F               	goto	u5415
  5156                           
  5157  0FA6  2FA7               	goto	l14036
  5158                           	line	69
  5159                           	
  5160  0FA7                     l11042:	
  5161                           	line	66
  5162                           	
  5163  0FA7                     l14036:	
  5164  0FA7  30FE               	movlw	low highword(0FE0000h)
  5165  0FA8  0522               	andwf	(___ftpack@arg+2),w
  5166  0FA9  1D03               	btfss	status,2
  5167  0FAA  2FAC               	goto	u5421
  5168  0FAB  2FAD               	goto	u5420
  5169  0FAC                     u5421:
  5170  0FAC  2F9A               	goto	l14034
  5171  0FAD                     u5420:
  5172  0FAD  2FC5               	goto	l11045
  5173                           	
  5174  0FAE                     l11044:	
  5175                           	line	70
  5176  0FAE  2FC5               	goto	l11045
  5177                           	
  5178  0FAF                     l11046:	
  5179                           	line	71
  5180                           	
  5181  0FAF                     l14038:	
  5182  0FAF  3001               	movlw	(01h)
  5183  0FB0  00A5               	movwf	(??___ftpack+0)+0
  5184  0FB1  0825               	movf	(??___ftpack+0)+0,w
  5185  0FB2  07A3               	addwf	(___ftpack@exp),f
  5186                           	line	72
  5187                           	
  5188  0FB3                     l14040:	
  5189  0FB3  3001               	movlw	01h
  5190  0FB4  07A0               	addwf	(___ftpack@arg),f
  5191  0FB5  3000               	movlw	0
  5192  0FB6  1803               	skipnc
  5193  0FB7  3001               movlw 1
  5194  0FB8  07A1               	addwf	(___ftpack@arg+1),f
  5195  0FB9  3000               	movlw	0
  5196  0FBA  1803               	skipnc
  5197  0FBB  3001               movlw 1
  5198  0FBC  07A2               	addwf	(___ftpack@arg+2),f
  5199                           	line	73
  5200                           	
  5201  0FBD                     l14042:	
  5202  0FBD  3001               	movlw	01h
  5203  0FBE                     u5435:
  5204  0FBE  1003               	clrc
  5205  0FBF  0CA2               	rrf	(___ftpack@arg+2),f
  5206  0FC0  0CA1               	rrf	(___ftpack@arg+1),f
  5207  0FC1  0CA0               	rrf	(___ftpack@arg),f
  5208  0FC2  3EFF               	addlw	-1
  5209  0FC3  1D03               	skipz
  5210  0FC4  2FBE               	goto	u5435
  5211                           
  5212                           	line	74
  5213                           	
  5214  0FC5                     l11045:	
  5215                           	line	70
  5216  0FC5  30FF               	movlw	low highword(0FF0000h)
  5217  0FC6  0522               	andwf	(___ftpack@arg+2),w
  5218  0FC7  1D03               	btfss	status,2
  5219  0FC8  2FCA               	goto	u5441
  5220  0FC9  2FCB               	goto	u5440
  5221  0FCA                     u5441:
  5222  0FCA  2FAF               	goto	l14038
  5223  0FCB                     u5440:
  5224  0FCB  2FD8               	goto	l14046
  5225                           	
  5226  0FCC                     l11047:	
  5227                           	line	75
  5228  0FCC  2FD8               	goto	l14046
  5229                           	
  5230  0FCD                     l11049:	
  5231                           	line	76
  5232                           	
  5233  0FCD                     l14044:	
  5234  0FCD  3001               	movlw	low(01h)
  5235  0FCE  02A3               	subwf	(___ftpack@exp),f
  5236                           	line	77
  5237  0FCF  3001               	movlw	01h
  5238  0FD0                     u5455:
  5239  0FD0  1003               	clrc
  5240  0FD1  0DA0               	rlf	(___ftpack@arg),f
  5241  0FD2  0DA1               	rlf	(___ftpack@arg+1),f
  5242  0FD3  0DA2               	rlf	(___ftpack@arg+2),f
  5243  0FD4  3EFF               	addlw	-1
  5244  0FD5  1D03               	skipz
  5245  0FD6  2FD0               	goto	u5455
  5246  0FD7  2FD8               	goto	l14046
  5247                           	line	78
  5248                           	
  5249  0FD8                     l11048:	
  5250                           	line	75
  5251                           	
  5252  0FD8                     l14046:	
  5253  0FD8  1FA1               	btfss	(___ftpack@arg+1),(15)&7
  5254  0FD9  2FDB               	goto	u5461
  5255  0FDA  2FDC               	goto	u5460
  5256  0FDB                     u5461:
  5257  0FDB  2FCD               	goto	l14044
  5258  0FDC                     u5460:
  5259                           	
  5260  0FDC                     l11050:	
  5261                           	line	79
  5262  0FDC  1823               	btfsc	(___ftpack@exp),(0)&7
  5263  0FDD  2FDF               	goto	u5471
  5264  0FDE  2FE0               	goto	u5470
  5265  0FDF                     u5471:
  5266  0FDF  2FE6               	goto	l11051
  5267  0FE0                     u5470:
  5268                           	line	80
  5269                           	
  5270  0FE0                     l14048:	
  5271  0FE0  30FF               	movlw	0FFh
  5272  0FE1  05A0               	andwf	(___ftpack@arg),f
  5273  0FE2  307F               	movlw	07Fh
  5274  0FE3  05A1               	andwf	(___ftpack@arg+1),f
  5275  0FE4  30FF               	movlw	0FFh
  5276  0FE5  05A2               	andwf	(___ftpack@arg+2),f
  5277                           	
  5278  0FE6                     l11051:	
  5279                           	line	81
  5280  0FE6  1003               	clrc
  5281  0FE7  0CA3               	rrf	(___ftpack@exp),f
  5282                           
  5283                           	line	82
  5284                           	
  5285  0FE8                     l14050:	
  5286  0FE8  0823               	movf	(___ftpack@exp),w
  5287  0FE9  00A5               	movwf	((??___ftpack+0)+0)
  5288  0FEA  01A6               	clrf	((??___ftpack+0)+0+1)
  5289  0FEB  01A7               	clrf	((??___ftpack+0)+0+2)
  5290  0FEC  3010               	movlw	010h
  5291  0FED                     u5485:
  5292  0FED  1003               	clrc
  5293  0FEE  0DA5               	rlf	(??___ftpack+0)+0,f
  5294  0FEF  0DA6               	rlf	(??___ftpack+0)+1,f
  5295  0FF0  0DA7               	rlf	(??___ftpack+0)+2,f
  5296  0FF1                     u5480:
  5297  0FF1  3EFF               	addlw	-1
  5298  0FF2  1D03               	skipz
  5299  0FF3  2FED               	goto	u5485
  5300  0FF4  0825               	movf	0+(??___ftpack+0)+0,w
  5301  0FF5  04A0               	iorwf	(___ftpack@arg),f
  5302  0FF6  0826               	movf	1+(??___ftpack+0)+0,w
  5303  0FF7  04A1               	iorwf	(___ftpack@arg+1),f
  5304  0FF8  0827               	movf	2+(??___ftpack+0)+0,w
  5305  0FF9  04A2               	iorwf	(___ftpack@arg+2),f
  5306                           	line	83
  5307                           	
  5308  0FFA                     l14052:	
  5309  0FFA  0824               	movf	(___ftpack@sign),w
  5310  0FFB  1D03               	skipz
  5311  0FFC  2FFE               	goto	u5490
  5312  0FFD  2FFF               	goto	l11052
  5313  0FFE                     u5490:
  5314                           	line	84
  5315                           	
  5316  0FFE                     l14054:	
  5317  0FFE  17A2               	bsf	(___ftpack@arg)+(23/8),(23)&7
  5318                           	
  5319  0FFF                     l11052:	
  5320                           	line	85
  5321                           	line	86
  5322                           	
  5323  0FFF                     l11041:	
  5324  0FFF  0008               	return
  5325                           	opt stack 0
  5326                           GLOBAL	__end_of___ftpack
  5327  1000                     	__end_of___ftpack:
  5328 ;; =============== function ___ftpack ends ============
  5329                           
  5330                           	signat	___ftpack,12411
  5331                           	global	___wmul
  5332                           psect	text1006,local,class=CODE,delta=2
  5333                           global __ptext1006
  5334  0E71                     __ptext1006:
  5335                           
  5336 ;; *************** function ___wmul *****************
  5337 ;; Defined at:
  5338 ;;		line 3 in file "C:\Program Files (x86)\HI-TECH Software\PICC\9.82\sources\wmul.c"
  5339 ;; Parameters:    Size  Location     Type
  5340 ;;  multiplier      2    0[BANK0 ] unsigned int 
  5341 ;;  multiplicand    2    2[BANK0 ] unsigned int 
  5342 ;; Auto vars:     Size  Location     Type
  5343 ;;  product         2    4[BANK0 ] unsigned int 
  5344 ;; Return value:  Size  Location     Type
  5345 ;;                  2    0[BANK0 ] unsigned int 
  5346 ;; Registers used:
  5347 ;;		wreg, status,2, status,0
  5348 ;; Tracked objects:
  5349 ;;		On entry : 0/0
  5350 ;;		On exit  : 0/0
  5351 ;;		Unchanged: 0/0
  5352 ;; Data sizes:     COMMON   BANK0   BANK1   BANK3   BANK2
  5353 ;;      Params:         0       4       0       0       0
  5354 ;;      Locals:         0       2       0       0       0
  5355 ;;      Temps:          0       0       0       0       0
  5356 ;;      Totals:         0       6       0       0       0
  5357 ;;Total ram usage:        6 bytes
  5358 ;; Hardware stack levels used:    1
  5359 ;; Hardware stack levels required when called:    1
  5360 ;; This function calls:
  5361 ;;		Nothing
  5362 ;; This function is called by:
  5363 ;;		_Trace_PID
  5364 ;; This function uses a non-reentrant model
  5365 ;;
  5366                           psect	text1006
  5367                           	file	"C:\Program Files (x86)\HI-TECH Software\PICC\9.82\sources\wmul.c"
  5368                           	line	3
  5369                           	global	__size_of___wmul
  5370  002C                     	__size_of___wmul	equ	__end_of___wmul-___wmul
  5371                           	
  5372  0E71                     ___wmul:	
  5373                           	opt	stack 5
  5374                           ; Regs used in ___wmul: [wreg+status,2+status,0]
  5375                           	line	4
  5376                           	
  5377  0E71                     l14014:	
  5378  0E71  1283               	bcf	status, 5	;RP0=0, select bank0
  5379  0E72  1303               	bcf	status, 6	;RP1=0, select bank0
  5380  0E73  01A4               	clrf	(___wmul@product)
  5381  0E74  01A5               	clrf	(___wmul@product+1)
  5382  0E75  2E76               	goto	l14016
  5383                           	line	6
  5384                           	
  5385  0E76                     l10706:	
  5386                           	line	7
  5387                           	
  5388  0E76                     l14016:	
  5389  0E76  1C20               	btfss	(___wmul@multiplier),(0)&7
  5390  0E77  2E79               	goto	u5351
  5391  0E78  2E7A               	goto	u5350
  5392  0E79                     u5351:
  5393  0E79  2E80               	goto	l10707
  5394  0E7A                     u5350:
  5395                           	line	8
  5396                           	
  5397  0E7A                     l14018:	
  5398  0E7A  0822               	movf	(___wmul@multiplicand),w
  5399  0E7B  07A4               	addwf	(___wmul@product),f
  5400  0E7C  1803               	skipnc
  5401  0E7D  0AA5               	incf	(___wmul@product+1),f
  5402  0E7E  0823               	movf	(___wmul@multiplicand+1),w
  5403  0E7F  07A5               	addwf	(___wmul@product+1),f
  5404                           	
  5405  0E80                     l10707:	
  5406                           	line	9
  5407  0E80  3001               	movlw	01h
  5408                           	
  5409  0E81                     u5365:
  5410  0E81  1003               	clrc
  5411  0E82  0DA2               	rlf	(___wmul@multiplicand),f
  5412  0E83  0DA3               	rlf	(___wmul@multiplicand+1),f
  5413  0E84  3EFF               	addlw	-1
  5414  0E85  1D03               	skipz
  5415  0E86  2E81               	goto	u5365
  5416                           	line	10
  5417                           	
  5418  0E87                     l14020:	
  5419  0E87  3001               	movlw	01h
  5420                           	
  5421  0E88                     u5375:
  5422  0E88  1003               	clrc
  5423  0E89  0CA1               	rrf	(___wmul@multiplier+1),f
  5424  0E8A  0CA0               	rrf	(___wmul@multiplier),f
  5425  0E8B  3EFF               	addlw	-1
  5426  0E8C  1D03               	skipz
  5427  0E8D  2E88               	goto	u5375
  5428                           	line	11
  5429  0E8E  0821               	movf	((___wmul@multiplier+1)),w
  5430  0E8F  0420               	iorwf	((___wmul@multiplier)),w
  5431  0E90  1D03               	skipz
  5432  0E91  2E93               	goto	u5381
  5433  0E92  2E94               	goto	u5380
  5434  0E93                     u5381:
  5435  0E93  2E76               	goto	l14016
  5436  0E94                     u5380:
  5437  0E94  2E95               	goto	l14022
  5438                           	
  5439  0E95                     l10708:	
  5440                           	line	12
  5441                           	
  5442  0E95                     l14022:	
  5443  0E95  0825               	movf	(___wmul@product+1),w
  5444  0E96  01A1               	clrf	(?___wmul+1)
  5445  0E97  07A1               	addwf	(?___wmul+1)
  5446  0E98  0824               	movf	(___wmul@product),w
  5447  0E99  01A0               	clrf	(?___wmul)
  5448  0E9A  07A0               	addwf	(?___wmul)
  5449                           
  5450  0E9B  2E9C               	goto	l10709
  5451                           	
  5452  0E9C                     l14024:	
  5453                           	line	13
  5454                           	
  5455  0E9C                     l10709:	
  5456  0E9C  0008               	return
  5457                           	opt stack 0
  5458                           GLOBAL	__end_of___wmul
  5459  0E9D                     	__end_of___wmul:
  5460 ;; =============== function ___wmul ends ============
  5461                           
  5462                           	signat	___wmul,8314
  5463                           	global	_Start_PD
  5464                           psect	text1007,local,class=CODE,delta=2
  5465                           global __ptext1007
  5466  070B                     __ptext1007:
  5467                           
  5468 ;; *************** function _Start_PD *****************
  5469 ;; Defined at:
  5470 ;;		line 106 in file "D:\6_pic_project\00_Design_Flow_Car\User\Car_demo\Car_demo.c"
  5471 ;; Parameters:    Size  Location     Type
  5472 ;;		None
  5473 ;; Auto vars:     Size  Location     Type
  5474 ;;  Trace_Mode      1   10[BANK0 ] unsigned char 
  5475 ;; Return value:  Size  Location     Type
  5476 ;;                  2    0[BANK0 ] int 
  5477 ;; Registers used:
  5478 ;;		wreg, fsr0l, fsr0h, status,2, status,0
  5479 ;; Tracked objects:
  5480 ;;		On entry : 0/0
  5481 ;;		On exit  : 0/0
  5482 ;;		Unchanged: 0/0
  5483 ;; Data sizes:     COMMON   BANK0   BANK1   BANK3   BANK2
  5484 ;;      Params:         0       2       0       0       0
  5485 ;;      Locals:         0       1       0       0       0
  5486 ;;      Temps:          0       8       0       0       0
  5487 ;;      Totals:         0      11       0       0       0
  5488 ;;Total ram usage:       11 bytes
  5489 ;; Hardware stack levels used:    1
  5490 ;; Hardware stack levels required when called:    1
  5491 ;; This function calls:
  5492 ;;		Nothing
  5493 ;; This function is called by:
  5494 ;;		_main
  5495 ;; This function uses a non-reentrant model
  5496 ;;
  5497                           psect	text1007
  5498                           	file	"D:\6_pic_project\00_Design_Flow_Car\User\Car_demo\Car_demo.c"
  5499                           	line	106
  5500                           	global	__size_of_Start_PD
  5501  008A                     	__size_of_Start_PD	equ	__end_of_Start_PD-_Start_PD
  5502                           	
  5503  070B                     _Start_PD:	
  5504                           	opt	stack 6
  5505                           ; Regs used in _Start_PD: [wreg-fsr0h+status,2+status,0]
  5506                           	line	107
  5507                           	
  5508  070B                     l13996:	
  5509                           ;Car_demo.c: 107: unsigned char Trace_Mode = (RC0<<7|RC3<<6|RE0<<5|RE1<<4|RE2<<3|RA4<<2|
                                 RC4<<1|RC5);
  5510  070B  3000               	movlw	0
  5511  070C  1283               	bcf	status, 5	;RP0=0, select bank0
  5512  070D  1303               	bcf	status, 6	;RP1=0, select bank0
  5513  070E  1A87               	btfsc	(61/8),(61)&7
  5514  070F  3001               	movlw	1
  5515  0710  00A2               	movwf	(??_Start_PD+0)+0
  5516  0711  3000               	movlw	0
  5517  0712  1A07               	btfsc	(60/8),(60)&7
  5518  0713  3001               	movlw	1
  5519  0714  00A3               	movwf	(??_Start_PD+1)+0
  5520  0715  3001               	movlw	01h
  5521  0716                     u5295:
  5522  0716  1003               	clrc
  5523  0717  0DA3               	rlf	(??_Start_PD+1)+0,f
  5524  0718  3EFF               	addlw	-1
  5525  0719  1D03               	skipz
  5526  071A  2F16               	goto	u5295
  5527  071B  3000               	movlw	0
  5528  071C  1A05               	btfsc	(44/8),(44)&7
  5529  071D  3001               	movlw	1
  5530  071E  00A4               	movwf	(??_Start_PD+2)+0
  5531  071F  3002               	movlw	02h
  5532  0720                     u5305:
  5533  0720  1003               	clrc
  5534  0721  0DA4               	rlf	(??_Start_PD+2)+0,f
  5535  0722  3EFF               	addlw	-1
  5536  0723  1D03               	skipz
  5537  0724  2F20               	goto	u5305
  5538  0725  3000               	movlw	0
  5539  0726  1909               	btfsc	(74/8),(74)&7
  5540  0727  3001               	movlw	1
  5541  0728  00A5               	movwf	(??_Start_PD+3)+0
  5542  0729  3003               	movlw	03h
  5543  072A                     u5315:
  5544  072A  1003               	clrc
  5545  072B  0DA5               	rlf	(??_Start_PD+3)+0,f
  5546  072C  3EFF               	addlw	-1
  5547  072D  1D03               	skipz
  5548  072E  2F2A               	goto	u5315
  5549  072F  3000               	movlw	0
  5550  0730  1889               	btfsc	(73/8),(73)&7
  5551  0731  3001               	movlw	1
  5552  0732  00A6               	movwf	(??_Start_PD+4)+0
  5553  0733  3004               	movlw	04h
  5554  0734                     u5325:
  5555  0734  1003               	clrc
  5556  0735  0DA6               	rlf	(??_Start_PD+4)+0,f
  5557  0736  3EFF               	addlw	-1
  5558  0737  1D03               	skipz
  5559  0738  2F34               	goto	u5325
  5560  0739  3000               	movlw	0
  5561  073A  1809               	btfsc	(72/8),(72)&7
  5562  073B  3001               	movlw	1
  5563  073C  00A7               	movwf	(??_Start_PD+5)+0
  5564  073D  3005               	movlw	05h
  5565  073E                     u5335:
  5566  073E  1003               	clrc
  5567  073F  0DA7               	rlf	(??_Start_PD+5)+0,f
  5568  0740  3EFF               	addlw	-1
  5569  0741  1D03               	skipz
  5570  0742  2F3E               	goto	u5335
  5571  0743  3000               	movlw	0
  5572  0744  1987               	btfsc	(59/8),(59)&7
  5573  0745  3001               	movlw	1
  5574  0746  00A8               	movwf	(??_Start_PD+6)+0
  5575  0747  3006               	movlw	06h
  5576  0748                     u5345:
  5577  0748  1003               	clrc
  5578  0749  0DA8               	rlf	(??_Start_PD+6)+0,f
  5579  074A  3EFF               	addlw	-1
  5580  074B  1D03               	skipz
  5581  074C  2F48               	goto	u5345
  5582  074D  3000               	movlw	0
  5583  074E  1807               	btfsc	(56/8),(56)&7
  5584  074F  3080               	movlw	(1 << (07h))
  5585  0750  0428               	iorwf	0+(??_Start_PD+6)+0,w
  5586  0751  0427               	iorwf	0+(??_Start_PD+5)+0,w
  5587  0752  0426               	iorwf	0+(??_Start_PD+4)+0,w
  5588  0753  0425               	iorwf	0+(??_Start_PD+3)+0,w
  5589  0754  0424               	iorwf	0+(??_Start_PD+2)+0,w
  5590  0755  0423               	iorwf	0+(??_Start_PD+1)+0,w
  5591  0756  0422               	iorwf	(??_Start_PD+0)+0,w
  5592  0757  00A9               	movwf	(??_Start_PD+7)+0
  5593  0758  0829               	movf	(??_Start_PD+7)+0,w
  5594  0759  00AA               	movwf	(Start_PD@Trace_Mode)
  5595                           	line	108
  5596                           ;Car_demo.c: 108: switch(Trace_Mode)
  5597  075A  2F74               	goto	l14012
  5598                           	line	110
  5599                           ;Car_demo.c: 109: {
  5600                           ;Car_demo.c: 110: case 0B11000001:
  5601                           	
  5602  075B                     l9963:	
  5603  075B  2F5E               	goto	l13998
  5604                           	line	111
  5605                           	
  5606  075C                     l9964:	
  5607  075C  2F5E               	goto	l13998
  5608                           	line	112
  5609                           	
  5610  075D                     l9965:	
  5611  075D  2F5E               	goto	l13998
  5612                           	line	113
  5613                           	
  5614  075E                     l9966:	
  5615                           	line	114
  5616                           	
  5617  075E                     l13998:	
  5618                           ;Car_demo.c: 111: case 0B10000011:
  5619                           ;Car_demo.c: 112: case 0B00000000:
  5620                           ;Car_demo.c: 113: case 0B10000001:
  5621                           ;Car_demo.c: 114: return -99;
  5622  075E  309D               	movlw	low(-99)
  5623  075F  00A0               	movwf	(?_Start_PD)
  5624  0760  30FF               	movlw	high(-99)
  5625  0761  00A1               	movwf	((?_Start_PD))+1
  5626  0762  2F94               	goto	l9967
  5627                           	
  5628  0763                     l14000:	
  5629  0763  2F94               	goto	l9967
  5630                           	line	115
  5631                           ;Car_demo.c: 115: case 0B01111110:
  5632                           	
  5633  0764                     l9968:	
  5634  0764  2F69               	goto	l14002
  5635                           	line	116
  5636                           	
  5637  0765                     l9969:	
  5638  0765  2F69               	goto	l14002
  5639                           	line	117
  5640                           	
  5641  0766                     l9970:	
  5642  0766  2F69               	goto	l14002
  5643                           	line	118
  5644                           	
  5645  0767                     l9971:	
  5646  0767  2F69               	goto	l14002
  5647                           	line	119
  5648                           	
  5649  0768                     l9972:	
  5650  0768  2F69               	goto	l14002
  5651                           	line	120
  5652                           	
  5653  0769                     l9973:	
  5654                           	line	121
  5655                           	
  5656  0769                     l14002:	
  5657                           ;Car_demo.c: 116: case 0B01111100:
  5658                           ;Car_demo.c: 117: case 0B00111100:
  5659                           ;Car_demo.c: 118: case 0B00111110:
  5660                           ;Car_demo.c: 119: case 0B00111101:
  5661                           ;Car_demo.c: 120: case 0B10111101:
  5662                           ;Car_demo.c: 121: return -66;
  5663  0769  30BE               	movlw	low(-66)
  5664  076A  00A0               	movwf	(?_Start_PD)
  5665  076B  30FF               	movlw	high(-66)
  5666  076C  00A1               	movwf	((?_Start_PD))+1
  5667  076D  2F94               	goto	l9967
  5668                           	
  5669  076E                     l14004:	
  5670  076E  2F94               	goto	l9967
  5671                           	line	122
  5672                           ;Car_demo.c: 122: default:
  5673                           	
  5674  076F                     l9974:	
  5675                           	line	123
  5676                           	
  5677  076F                     l14006:	
  5678                           ;Car_demo.c: 123: return 0;
  5679  076F  01A0               	clrf	(?_Start_PD)
  5680  0770  01A1               	clrf	(?_Start_PD+1)
  5681  0771  2F94               	goto	l9967
  5682                           	
  5683  0772                     l14008:	
  5684  0772  2F94               	goto	l9967
  5685                           	line	124
  5686                           	
  5687  0773                     l14010:	
  5688                           ;Car_demo.c: 124: }
  5689  0773  2F94               	goto	l9967
  5690                           	line	108
  5691                           	
  5692  0774                     l9962:	
  5693                           	
  5694  0774                     l14012:	
  5695  0774  082A               	movf	(Start_PD@Trace_Mode),w
  5696                           	; Switch size 1, requested type "space"
  5697                           ; Number of cases is 10, Range of values is 0 to 193
  5698                           ; switch strategies available:
  5699                           ; Name         Instructions Cycles
  5700                           ; simple_byte           31    16 (average)
  5701                           ; jumptable            260     6 (fixed)
  5702                           ; rangetable           198     6 (fixed)
  5703                           ; spacedrange          394     9 (fixed)
  5704                           ; locatedrange         194     3 (fixed)
  5705                           ;	Chosen strategy is simple_byte
  5706                           
  5707                           	opt asmopt_off
  5708  0775  3A00               	xorlw	0^0	; case 0
  5709  0776  1903               	skipnz
  5710  0777  2F5E               	goto	l13998
  5711  0778  3A3C               	xorlw	60^0	; case 60
  5712  0779  1903               	skipnz
  5713  077A  2F69               	goto	l14002
  5714  077B  3A01               	xorlw	61^60	; case 61
  5715  077C  1903               	skipnz
  5716  077D  2F69               	goto	l14002
  5717  077E  3A03               	xorlw	62^61	; case 62
  5718  077F  1903               	skipnz
  5719  0780  2F69               	goto	l14002
  5720  0781  3A42               	xorlw	124^62	; case 124
  5721  0782  1903               	skipnz
  5722  0783  2F69               	goto	l14002
  5723  0784  3A02               	xorlw	126^124	; case 126
  5724  0785  1903               	skipnz
  5725  0786  2F69               	goto	l14002
  5726  0787  3AFF               	xorlw	129^126	; case 129
  5727  0788  1903               	skipnz
  5728  0789  2F5E               	goto	l13998
  5729  078A  3A02               	xorlw	131^129	; case 131
  5730  078B  1903               	skipnz
  5731  078C  2F5E               	goto	l13998
  5732  078D  3A3E               	xorlw	189^131	; case 189
  5733  078E  1903               	skipnz
  5734  078F  2F69               	goto	l14002
  5735  0790  3A7C               	xorlw	193^189	; case 193
  5736  0791  1903               	skipnz
  5737  0792  2F5E               	goto	l13998
  5738  0793  2F6F               	goto	l14006
  5739                           	opt asmopt_on
  5740                           
  5741                           	line	124
  5742                           	
  5743  0794                     l9975:	
  5744                           	line	125
  5745                           	
  5746  0794                     l9967:	
  5747  0794  0008               	return
  5748                           	opt stack 0
  5749                           GLOBAL	__end_of_Start_PD
  5750  0795                     	__end_of_Start_PD:
  5751 ;; =============== function _Start_PD ends ============
  5752                           
  5753                           	signat	_Start_PD,90
  5754                           	global	_csb_init
  5755                           psect	text1008,local,class=CODE,delta=2
  5756                           global __ptext1008
  5757  0DDB                     __ptext1008:
  5758                           
  5759 ;; *************** function _csb_init *****************
  5760 ;; Defined at:
  5761 ;;		line 22 in file "D:\6_pic_project\00_Design_Flow_Car\Driver\csb.c"
  5762 ;; Parameters:    Size  Location     Type
  5763 ;;		None
  5764 ;; Auto vars:     Size  Location     Type
  5765 ;;		None
  5766 ;; Return value:  Size  Location     Type
  5767 ;;		None               void
  5768 ;; Registers used:
  5769 ;;		wreg, status,2
  5770 ;; Tracked objects:
  5771 ;;		On entry : 0/0
  5772 ;;		On exit  : 0/0
  5773 ;;		Unchanged: 0/0
  5774 ;; Data sizes:     COMMON   BANK0   BANK1   BANK3   BANK2
  5775 ;;      Params:         0       0       0       0       0
  5776 ;;      Locals:         0       0       0       0       0
  5777 ;;      Temps:          0       0       0       0       0
  5778 ;;      Totals:         0       0       0       0       0
  5779 ;;Total ram usage:        0 bytes
  5780 ;; Hardware stack levels used:    1
  5781 ;; Hardware stack levels required when called:    1
  5782 ;; This function calls:
  5783 ;;		Nothing
  5784 ;; This function is called by:
  5785 ;;		_main
  5786 ;; This function uses a non-reentrant model
  5787 ;;
  5788                           psect	text1008
  5789                           	file	"D:\6_pic_project\00_Design_Flow_Car\Driver\csb.c"
  5790                           	line	22
  5791                           	global	__size_of_csb_init
  5792  0015                     	__size_of_csb_init	equ	__end_of_csb_init-_csb_init
  5793                           	
  5794  0DDB                     _csb_init:	
  5795                           	opt	stack 6
  5796                           ; Regs used in _csb_init: [wreg+status,2]
  5797                           	line	23
  5798                           	
  5799  0DDB                     l13952:	
  5800                           ;csb.c: 23: GIE=1;
  5801  0DDB  178B               	bsf	(95/8),(95)&7
  5802                           	line	24
  5803                           ;csb.c: 24: PEIE=1;
  5804  0DDC  170B               	bsf	(94/8),(94)&7
  5805                           	line	26
  5806                           ;csb.c: 26: TMR1IF=0;
  5807  0DDD  1283               	bcf	status, 5	;RP0=0, select bank0
  5808  0DDE  1303               	bcf	status, 6	;RP1=0, select bank0
  5809  0DDF  100C               	bcf	(96/8),(96)&7
  5810                           	line	28
  5811                           ;csb.c: 28: TRISA1=1;
  5812  0DE0  1683               	bsf	status, 5	;RP0=1, select bank1
  5813  0DE1  1303               	bcf	status, 6	;RP1=0, select bank1
  5814  0DE2  1485               	bsf	(1065/8)^080h,(1065)&7
  5815                           	line	29
  5816                           ;csb.c: 29: TRISA0=0;
  5817  0DE3  1005               	bcf	(1064/8)^080h,(1064)&7
  5818                           	line	30
  5819                           	
  5820  0DE4                     l13954:	
  5821                           ;csb.c: 30: ADCON1=7;TRISD=0;
  5822  0DE4  3007               	movlw	(07h)
  5823  0DE5  009F               	movwf	(159)^080h	;volatile
  5824                           	
  5825  0DE6                     l13956:	
  5826  0DE6  0188               	clrf	(136)^080h	;volatile
  5827                           	line	32
  5828                           	
  5829  0DE7                     l13958:	
  5830                           ;csb.c: 32: RA0 = 0;
  5831  0DE7  1283               	bcf	status, 5	;RP0=0, select bank0
  5832  0DE8  1303               	bcf	status, 6	;RP1=0, select bank0
  5833  0DE9  1005               	bcf	(40/8),(40)&7
  5834                           	line	33
  5835                           	
  5836  0DEA                     l13960:	
  5837                           ;csb.c: 33: RA1 = 1;
  5838  0DEA  1485               	bsf	(41/8),(41)&7
  5839                           	line	35
  5840                           	
  5841  0DEB                     l13962:	
  5842                           ;csb.c: 35: T1CON=0B00000000;
  5843  0DEB  0190               	clrf	(16)	;volatile
  5844                           	line	36
  5845                           	
  5846  0DEC                     l13964:	
  5847                           ;csb.c: 36: TMR1H=0x00;
  5848  0DEC  018F               	clrf	(15)	;volatile
  5849                           	line	37
  5850                           	
  5851  0DED                     l13966:	
  5852                           ;csb.c: 37: TMR1L=0x00;
  5853  0DED  018E               	clrf	(14)	;volatile
  5854                           	line	38
  5855                           	
  5856  0DEE                     l13968:	
  5857                           ;csb.c: 38: TMR1ON=0x00;
  5858  0DEE  1010               	bcf	(128/8),(128)&7
  5859                           	line	39
  5860                           	
  5861  0DEF                     l9167:	
  5862  0DEF  0008               	return
  5863                           	opt stack 0
  5864                           GLOBAL	__end_of_csb_init
  5865  0DF0                     	__end_of_csb_init:
  5866 ;; =============== function _csb_init ends ============
  5867                           
  5868                           	signat	_csb_init,88
  5869                           	global	_Encoder_Init
  5870                           psect	text1009,local,class=CODE,delta=2
  5871                           global __ptext1009
  5872  0D73                     __ptext1009:
  5873                           
  5874 ;; *************** function _Encoder_Init *****************
  5875 ;; Defined at:
  5876 ;;		line 4 in file "D:\6_pic_project\00_Design_Flow_Car\Driver\Encoder.c"
  5877 ;; Parameters:    Size  Location     Type
  5878 ;;		None
  5879 ;; Auto vars:     Size  Location     Type
  5880 ;;		None
  5881 ;; Return value:  Size  Location     Type
  5882 ;;		None               void
  5883 ;; Registers used:
  5884 ;;		wreg
  5885 ;; Tracked objects:
  5886 ;;		On entry : 0/0
  5887 ;;		On exit  : 0/0
  5888 ;;		Unchanged: 0/0
  5889 ;; Data sizes:     COMMON   BANK0   BANK1   BANK3   BANK2
  5890 ;;      Params:         0       0       0       0       0
  5891 ;;      Locals:         0       0       0       0       0
  5892 ;;      Temps:          0       0       0       0       0
  5893 ;;      Totals:         0       0       0       0       0
  5894 ;;Total ram usage:        0 bytes
  5895 ;; Hardware stack levels used:    1
  5896 ;; Hardware stack levels required when called:    1
  5897 ;; This function calls:
  5898 ;;		Nothing
  5899 ;; This function is called by:
  5900 ;;		_main
  5901 ;; This function uses a non-reentrant model
  5902 ;;
  5903                           psect	text1009
  5904                           	file	"D:\6_pic_project\00_Design_Flow_Car\Driver\Encoder.c"
  5905                           	line	4
  5906                           	global	__size_of_Encoder_Init
  5907  000F                     	__size_of_Encoder_Init	equ	__end_of_Encoder_Init-_Encoder_Init
  5908                           	
  5909  0D73                     _Encoder_Init:	
  5910                           	opt	stack 6
  5911                           ; Regs used in _Encoder_Init: [wreg]
  5912                           	line	5
  5913                           	
  5914  0D73                     l13944:	
  5915                           ;Encoder.c: 5: TRISB0=1;
  5916  0D73  1683               	bsf	status, 5	;RP0=1, select bank1
  5917  0D74  1303               	bcf	status, 6	;RP1=0, select bank1
  5918  0D75  1406               	bsf	(1072/8)^080h,(1072)&7
  5919                           	line	8
  5920                           ;Encoder.c: 8: GIE=1;
  5921  0D76  178B               	bsf	(95/8),(95)&7
  5922                           	line	9
  5923                           ;Encoder.c: 9: INTE=1;
  5924  0D77  160B               	bsf	(92/8),(92)&7
  5925                           	line	10
  5926                           ;Encoder.c: 10: INTF=0;
  5927  0D78  108B               	bcf	(89/8),(89)&7
  5928                           	line	12
  5929                           	
  5930  0D79                     l13946:	
  5931                           ;Encoder.c: 12: OPTION_REG=0B01000111;
  5932  0D79  3047               	movlw	(047h)
  5933  0D7A  0081               	movwf	(129)^080h	;volatile
  5934                           	line	15
  5935                           	
  5936  0D7B                     l13948:	
  5937                           ;Encoder.c: 15: T0IE=1;
  5938  0D7B  168B               	bsf	(93/8),(93)&7
  5939                           	line	16
  5940                           	
  5941  0D7C                     l13950:	
  5942                           ;Encoder.c: 16: T0IF=0;
  5943  0D7C  110B               	bcf	(90/8),(90)&7
  5944                           	line	17
  5945                           ;Encoder.c: 17: TMR0=60;
  5946  0D7D  303C               	movlw	(03Ch)
  5947  0D7E  1283               	bcf	status, 5	;RP0=0, select bank0
  5948  0D7F  1303               	bcf	status, 6	;RP1=0, select bank0
  5949  0D80  0081               	movwf	(1)	;volatile
  5950                           	line	18
  5951                           	
  5952  0D81                     l7756:	
  5953  0D81  0008               	return
  5954                           	opt stack 0
  5955                           GLOBAL	__end_of_Encoder_Init
  5956  0D82                     	__end_of_Encoder_Init:
  5957 ;; =============== function _Encoder_Init ends ============
  5958                           
  5959                           	signat	_Encoder_Init,88
  5960                           	global	_Usart_Init
  5961                           psect	text1010,local,class=CODE,delta=2
  5962                           global __ptext1010
  5963  0D82                     __ptext1010:
  5964                           
  5965 ;; *************** function _Usart_Init *****************
  5966 ;; Defined at:
  5967 ;;		line 39 in file "D:\6_pic_project\00_Design_Flow_Car\Driver\Usart.c"
  5968 ;; Parameters:    Size  Location     Type
  5969 ;;		None
  5970 ;; Auto vars:     Size  Location     Type
  5971 ;;		None
  5972 ;; Return value:  Size  Location     Type
  5973 ;;		None               void
  5974 ;; Registers used:
  5975 ;;		wreg
  5976 ;; Tracked objects:
  5977 ;;		On entry : 0/0
  5978 ;;		On exit  : 0/0
  5979 ;;		Unchanged: 0/0
  5980 ;; Data sizes:     COMMON   BANK0   BANK1   BANK3   BANK2
  5981 ;;      Params:         0       0       0       0       0
  5982 ;;      Locals:         0       0       0       0       0
  5983 ;;      Temps:          0       0       0       0       0
  5984 ;;      Totals:         0       0       0       0       0
  5985 ;;Total ram usage:        0 bytes
  5986 ;; Hardware stack levels used:    1
  5987 ;; Hardware stack levels required when called:    1
  5988 ;; This function calls:
  5989 ;;		Nothing
  5990 ;; This function is called by:
  5991 ;;		_main
  5992 ;; This function uses a non-reentrant model
  5993 ;;
  5994                           psect	text1010
  5995                           	file	"D:\6_pic_project\00_Design_Flow_Car\Driver\Usart.c"
  5996                           	line	39
  5997                           	global	__size_of_Usart_Init
  5998  0010                     	__size_of_Usart_Init	equ	__end_of_Usart_Init-_Usart_Init
  5999                           	
  6000  0D82                     _Usart_Init:	
  6001                           	opt	stack 6
  6002                           ; Regs used in _Usart_Init: [wreg]
  6003                           	line	40
  6004                           	
  6005  0D82                     l13936:	
  6006                           ;Usart.c: 40: TXSTA=0B00100100;
  6007  0D82  3024               	movlw	(024h)
  6008  0D83  1683               	bsf	status, 5	;RP0=1, select bank1
  6009  0D84  1303               	bcf	status, 6	;RP1=0, select bank1
  6010  0D85  0098               	movwf	(152)^080h	;volatile
  6011                           	line	41
  6012                           ;Usart.c: 41: RCSTA=0B10010000;
  6013  0D86  3090               	movlw	(090h)
  6014  0D87  1283               	bcf	status, 5	;RP0=0, select bank0
  6015  0D88  1303               	bcf	status, 6	;RP1=0, select bank0
  6016  0D89  0098               	movwf	(24)	;volatile
  6017                           	line	42
  6018                           ;Usart.c: 42: SPBRG=12;
  6019  0D8A  300C               	movlw	(0Ch)
  6020  0D8B  1683               	bsf	status, 5	;RP0=1, select bank1
  6021  0D8C  1303               	bcf	status, 6	;RP1=0, select bank1
  6022  0D8D  0099               	movwf	(153)^080h	;volatile
  6023                           	line	43
  6024                           	
  6025  0D8E                     l13938:	
  6026                           ;Usart.c: 43: GIE=1;
  6027  0D8E  178B               	bsf	(95/8),(95)&7
  6028                           	line	44
  6029                           	
  6030  0D8F                     l13940:	
  6031                           ;Usart.c: 44: PEIE=1;
  6032  0D8F  170B               	bsf	(94/8),(94)&7
  6033                           	line	45
  6034                           	
  6035  0D90                     l13942:	
  6036                           ;Usart.c: 45: RCIE=1;
  6037  0D90  168C               	bsf	(1125/8)^080h,(1125)&7
  6038                           	line	46
  6039                           	
  6040  0D91                     l4999:	
  6041  0D91  0008               	return
  6042                           	opt stack 0
  6043                           GLOBAL	__end_of_Usart_Init
  6044  0D92                     	__end_of_Usart_Init:
  6045 ;; =============== function _Usart_Init ends ============
  6046                           
  6047                           	signat	_Usart_Init,88
  6048                           	global	_Usart_GPIO_Init
  6049                           psect	text1011,local,class=CODE,delta=2
  6050                           global __ptext1011
  6051  0D46                     __ptext1011:
  6052                           
  6053 ;; *************** function _Usart_GPIO_Init *****************
  6054 ;; Defined at:
  6055 ;;		line 28 in file "D:\6_pic_project\00_Design_Flow_Car\Driver\Usart.c"
  6056 ;; Parameters:    Size  Location     Type
  6057 ;;		None
  6058 ;; Auto vars:     Size  Location     Type
  6059 ;;		None
  6060 ;; Return value:  Size  Location     Type
  6061 ;;		None               void
  6062 ;; Registers used:
  6063 ;;		None
  6064 ;; Tracked objects:
  6065 ;;		On entry : 0/0
  6066 ;;		On exit  : 0/0
  6067 ;;		Unchanged: 0/0
  6068 ;; Data sizes:     COMMON   BANK0   BANK1   BANK3   BANK2
  6069 ;;      Params:         0       0       0       0       0
  6070 ;;      Locals:         0       0       0       0       0
  6071 ;;      Temps:          0       0       0       0       0
  6072 ;;      Totals:         0       0       0       0       0
  6073 ;;Total ram usage:        0 bytes
  6074 ;; Hardware stack levels used:    1
  6075 ;; Hardware stack levels required when called:    1
  6076 ;; This function calls:
  6077 ;;		Nothing
  6078 ;; This function is called by:
  6079 ;;		_main
  6080 ;; This function uses a non-reentrant model
  6081 ;;
  6082                           psect	text1011
  6083                           	file	"D:\6_pic_project\00_Design_Flow_Car\Driver\Usart.c"
  6084                           	line	28
  6085                           	global	__size_of_Usart_GPIO_Init
  6086  0005                     	__size_of_Usart_GPIO_Init	equ	__end_of_Usart_GPIO_Init-_Usart_GPIO_Init
  6087                           	
  6088  0D46                     _Usart_GPIO_Init:	
  6089                           	opt	stack 6
  6090                           ; Regs used in _Usart_GPIO_Init: []
  6091                           	line	29
  6092                           	
  6093  0D46                     l13934:	
  6094                           ;Usart.c: 29: TRISC6=1;
  6095  0D46  1683               	bsf	status, 5	;RP0=1, select bank1
  6096  0D47  1303               	bcf	status, 6	;RP1=0, select bank1
  6097  0D48  1707               	bsf	(1086/8)^080h,(1086)&7
  6098                           	line	30
  6099                           ;Usart.c: 30: TRISC7=1;
  6100  0D49  1787               	bsf	(1087/8)^080h,(1087)&7
  6101                           	line	31
  6102                           	
  6103  0D4A                     l4996:	
  6104  0D4A  0008               	return
  6105                           	opt stack 0
  6106                           GLOBAL	__end_of_Usart_GPIO_Init
  6107  0D4B                     	__end_of_Usart_GPIO_Init:
  6108 ;; =============== function _Usart_GPIO_Init ends ============
  6109                           
  6110                           	signat	_Usart_GPIO_Init,88
  6111                           	global	_putch
  6112                           psect	text1012,local,class=CODE,delta=2
  6113                           global __ptext1012
  6114  0D65                     __ptext1012:
  6115                           
  6116 ;; *************** function _putch *****************
  6117 ;; Defined at:
  6118 ;;		line 13 in file "D:\6_pic_project\00_Design_Flow_Car\Driver\Usart.c"
  6119 ;; Parameters:    Size  Location     Type
  6120 ;;  ch              1    wreg     unsigned char 
  6121 ;; Auto vars:     Size  Location     Type
  6122 ;;  ch              1    0[BANK0 ] unsigned char 
  6123 ;; Return value:  Size  Location     Type
  6124 ;;		None               void
  6125 ;; Registers used:
  6126 ;;		wreg
  6127 ;; Tracked objects:
  6128 ;;		On entry : 0/0
  6129 ;;		On exit  : 0/0
  6130 ;;		Unchanged: 0/0
  6131 ;; Data sizes:     COMMON   BANK0   BANK1   BANK3   BANK2
  6132 ;;      Params:         0       0       0       0       0
  6133 ;;      Locals:         0       1       0       0       0
  6134 ;;      Temps:          0       0       0       0       0
  6135 ;;      Totals:         0       1       0       0       0
  6136 ;;Total ram usage:        1 bytes
  6137 ;; Hardware stack levels used:    1
  6138 ;; Hardware stack levels required when called:    1
  6139 ;; This function calls:
  6140 ;;		Nothing
  6141 ;; This function is called by:
  6142 ;;		_printf
  6143 ;; This function uses a non-reentrant model
  6144 ;;
  6145                           psect	text1012
  6146                           	file	"D:\6_pic_project\00_Design_Flow_Car\Driver\Usart.c"
  6147                           	line	13
  6148                           	global	__size_of_putch
  6149  000E                     	__size_of_putch	equ	__end_of_putch-_putch
  6150                           	
  6151  0D65                     _putch:	
  6152                           	opt	stack 5
  6153                           ; Regs used in _putch: [wreg]
  6154                           ;putch@ch stored from wreg
  6155  0D65  1283               	bcf	status, 5	;RP0=0, select bank0
  6156  0D66  1303               	bcf	status, 6	;RP1=0, select bank0
  6157  0D67  00A0               	movwf	(putch@ch)
  6158                           	line	14
  6159                           	
  6160  0D68                     l13924:	
  6161                           ;Usart.c: 14: TXREG=ch;
  6162  0D68  0820               	movf	(putch@ch),w
  6163  0D69  0099               	movwf	(25)	;volatile
  6164                           	line	15
  6165                           ;Usart.c: 15: while(TRMT==0);
  6166  0D6A  2D6B               	goto	l4984
  6167                           	
  6168  0D6B                     l4985:	
  6169                           	
  6170  0D6B                     l4984:	
  6171  0D6B  1683               	bsf	status, 5	;RP0=1, select bank1
  6172  0D6C  1303               	bcf	status, 6	;RP1=0, select bank1
  6173  0D6D  1C98               	btfss	(1217/8)^080h,(1217)&7
  6174  0D6E  2D70               	goto	u5231
  6175  0D6F  2D71               	goto	u5230
  6176  0D70                     u5231:
  6177  0D70  2D6B               	goto	l4984
  6178  0D71                     u5230:
  6179  0D71  2D72               	goto	l4987
  6180                           	
  6181  0D72                     l4986:	
  6182                           	line	16
  6183                           	
  6184  0D72                     l4987:	
  6185  0D72  0008               	return
  6186                           	opt stack 0
  6187                           GLOBAL	__end_of_putch
  6188  0D73                     	__end_of_putch:
  6189 ;; =============== function _putch ends ============
  6190                           
  6191                           	signat	_putch,4216
  6192                           	global	_Motor_Speed_Set
  6193                           psect	text1013,local,class=CODE,delta=2
  6194                           global __ptext1013
  6195  0F00                     __ptext1013:
  6196                           
  6197 ;; *************** function _Motor_Speed_Set *****************
  6198 ;; Defined at:
  6199 ;;		line 60 in file "D:\6_pic_project\00_Design_Flow_Car\Driver\Motor.c"
  6200 ;; Parameters:    Size  Location     Type
  6201 ;;  Speed1          2    0[BANK0 ] int 
  6202 ;;  Speed2          2    2[BANK0 ] int 
  6203 ;; Auto vars:     Size  Location     Type
  6204 ;;		None
  6205 ;; Return value:  Size  Location     Type
  6206 ;;		None               void
  6207 ;; Registers used:
  6208 ;;		wreg, status,2, status,0, btemp+1
  6209 ;; Tracked objects:
  6210 ;;		On entry : 0/0
  6211 ;;		On exit  : 0/0
  6212 ;;		Unchanged: 0/0
  6213 ;; Data sizes:     COMMON   BANK0   BANK1   BANK3   BANK2
  6214 ;;      Params:         0       4       0       0       0
  6215 ;;      Locals:         0       0       0       0       0
  6216 ;;      Temps:          0       0       0       0       0
  6217 ;;      Totals:         0       4       0       0       0
  6218 ;;Total ram usage:        4 bytes
  6219 ;; Hardware stack levels used:    1
  6220 ;; Hardware stack levels required when called:    1
  6221 ;; This function calls:
  6222 ;;		Nothing
  6223 ;; This function is called by:
  6224 ;;		_main
  6225 ;; This function uses a non-reentrant model
  6226 ;;
  6227                           psect	text1013
  6228                           	file	"D:\6_pic_project\00_Design_Flow_Car\Driver\Motor.c"
  6229                           	line	60
  6230                           	global	__size_of_Motor_Speed_Set
  6231  003B                     	__size_of_Motor_Speed_Set	equ	__end_of_Motor_Speed_Set-_Motor_Speed_Set
  6232                           	
  6233  0F00                     _Motor_Speed_Set:	
  6234                           	opt	stack 6
  6235                           ; Regs used in _Motor_Speed_Set: [wreg+status,2+status,0+btemp+1]
  6236                           	line	61
  6237                           	
  6238  0F00                     l13908:	
  6239                           ;Motor.c: 61: if(Speed1 > 0 )
  6240  0F00  1283               	bcf	status, 5	;RP0=0, select bank0
  6241  0F01  1303               	bcf	status, 6	;RP1=0, select bank0
  6242  0F02  0821               	movf	(Motor_Speed_Set@Speed1+1),w
  6243  0F03  3A80               	xorlw	80h
  6244  0F04  00FF               	movwf	btemp+1
  6245  0F05  3080               	movlw	(high(01h))^80h
  6246  0F06  027F               	subwf	btemp+1,w
  6247  0F07  1D03               	skipz
  6248  0F08  2F0B               	goto	u5215
  6249  0F09  3001               	movlw	low(01h)
  6250  0F0A  0220               	subwf	(Motor_Speed_Set@Speed1),w
  6251  0F0B                     u5215:
  6252                           
  6253  0F0B  1C03               	skipc
  6254  0F0C  2F0E               	goto	u5211
  6255  0F0D  2F0F               	goto	u5210
  6256  0F0E                     u5211:
  6257  0F0E  2F16               	goto	l3608
  6258  0F0F                     u5210:
  6259                           	line	63
  6260                           	
  6261  0F0F                     l13910:	
  6262                           ;Motor.c: 62: {
  6263                           ;Motor.c: 63: RB4 = 1;
  6264  0F0F  1283               	bcf	status, 5	;RP0=0, select bank0
  6265  0F10  1303               	bcf	status, 6	;RP1=0, select bank0
  6266  0F11  1606               	bsf	(52/8),(52)&7
  6267                           	line	64
  6268                           ;Motor.c: 64: RB5 = 0;
  6269  0F12  1286               	bcf	(53/8),(53)&7
  6270                           	line	65
  6271                           	
  6272  0F13                     l13912:	
  6273                           ;Motor.c: 65: CCPR1L=(unsigned char)Speed1;
  6274  0F13  0820               	movf	(Motor_Speed_Set@Speed1),w
  6275  0F14  0095               	movwf	(21)	;volatile
  6276                           	line	66
  6277                           ;Motor.c: 66: }
  6278  0F15  2F1E               	goto	l13916
  6279                           	line	67
  6280                           	
  6281  0F16                     l3608:	
  6282                           	line	69
  6283                           ;Motor.c: 67: else
  6284                           ;Motor.c: 68: {
  6285                           ;Motor.c: 69: RB4 = 0;
  6286  0F16  1283               	bcf	status, 5	;RP0=0, select bank0
  6287  0F17  1303               	bcf	status, 6	;RP1=0, select bank0
  6288  0F18  1206               	bcf	(52/8),(52)&7
  6289                           	line	70
  6290                           ;Motor.c: 70: RB5 = 1;
  6291  0F19  1686               	bsf	(53/8),(53)&7
  6292                           	line	71
  6293                           	
  6294  0F1A                     l13914:	
  6295                           ;Motor.c: 71: CCPR1L=(unsigned char)(-Speed1);
  6296  0F1A  0320               	decf	(Motor_Speed_Set@Speed1),w
  6297  0F1B  3AFF               	xorlw	0ffh
  6298  0F1C  0095               	movwf	(21)	;volatile
  6299  0F1D  2F1E               	goto	l13916
  6300                           	line	72
  6301                           	
  6302  0F1E                     l3609:	
  6303                           	line	74
  6304                           	
  6305  0F1E                     l13916:	
  6306                           ;Motor.c: 72: }
  6307                           ;Motor.c: 74: if(Speed2 >0 )
  6308  0F1E  0823               	movf	(Motor_Speed_Set@Speed2+1),w
  6309  0F1F  3A80               	xorlw	80h
  6310  0F20  00FF               	movwf	btemp+1
  6311  0F21  3080               	movlw	(high(01h))^80h
  6312  0F22  027F               	subwf	btemp+1,w
  6313  0F23  1D03               	skipz
  6314  0F24  2F27               	goto	u5225
  6315  0F25  3001               	movlw	low(01h)
  6316  0F26  0222               	subwf	(Motor_Speed_Set@Speed2),w
  6317  0F27                     u5225:
  6318                           
  6319  0F27  1C03               	skipc
  6320  0F28  2F2A               	goto	u5221
  6321  0F29  2F2B               	goto	u5220
  6322  0F2A                     u5221:
  6323  0F2A  2F32               	goto	l3610
  6324  0F2B                     u5220:
  6325                           	line	76
  6326                           	
  6327  0F2B                     l13918:	
  6328                           ;Motor.c: 75: {
  6329                           ;Motor.c: 76: RB6 = 1;
  6330  0F2B  1283               	bcf	status, 5	;RP0=0, select bank0
  6331  0F2C  1303               	bcf	status, 6	;RP1=0, select bank0
  6332  0F2D  1706               	bsf	(54/8),(54)&7
  6333                           	line	77
  6334                           ;Motor.c: 77: RB7 = 0;
  6335  0F2E  1386               	bcf	(55/8),(55)&7
  6336                           	line	78
  6337                           	
  6338  0F2F                     l13920:	
  6339                           ;Motor.c: 78: CCPR2L=(unsigned char)Speed2;
  6340  0F2F  0822               	movf	(Motor_Speed_Set@Speed2),w
  6341  0F30  009B               	movwf	(27)	;volatile
  6342                           	line	79
  6343                           ;Motor.c: 79: }
  6344  0F31  2F3A               	goto	l3612
  6345                           	line	80
  6346                           	
  6347  0F32                     l3610:	
  6348                           	line	82
  6349                           ;Motor.c: 80: else
  6350                           ;Motor.c: 81: {
  6351                           ;Motor.c: 82: RB6 = 0;
  6352  0F32  1283               	bcf	status, 5	;RP0=0, select bank0
  6353  0F33  1303               	bcf	status, 6	;RP1=0, select bank0
  6354  0F34  1306               	bcf	(54/8),(54)&7
  6355                           	line	83
  6356                           ;Motor.c: 83: RB7 = 1;
  6357  0F35  1786               	bsf	(55/8),(55)&7
  6358                           	line	84
  6359                           	
  6360  0F36                     l13922:	
  6361                           ;Motor.c: 84: CCPR2L=(unsigned char)(-Speed2);
  6362  0F36  0322               	decf	(Motor_Speed_Set@Speed2),w
  6363  0F37  3AFF               	xorlw	0ffh
  6364  0F38  009B               	movwf	(27)	;volatile
  6365  0F39  2F3A               	goto	l3612
  6366                           	line	85
  6367                           	
  6368  0F3A                     l3611:	
  6369                           	line	86
  6370                           	
  6371  0F3A                     l3612:	
  6372  0F3A  0008               	return
  6373                           	opt stack 0
  6374                           GLOBAL	__end_of_Motor_Speed_Set
  6375  0F3B                     	__end_of_Motor_Speed_Set:
  6376 ;; =============== function _Motor_Speed_Set ends ============
  6377                           
  6378                           	signat	_Motor_Speed_Set,8312
  6379                           	global	_Motor_CCP_PWM_Init
  6380                           psect	text1014,local,class=CODE,delta=2
  6381                           global __ptext1014
  6382  0DC7                     __ptext1014:
  6383                           
  6384 ;; *************** function _Motor_CCP_PWM_Init *****************
  6385 ;; Defined at:
  6386 ;;		line 31 in file "D:\6_pic_project\00_Design_Flow_Car\Driver\Motor.c"
  6387 ;; Parameters:    Size  Location     Type
  6388 ;;		None
  6389 ;; Auto vars:     Size  Location     Type
  6390 ;;		None
  6391 ;; Return value:  Size  Location     Type
  6392 ;;		None               void
  6393 ;; Registers used:
  6394 ;;		wreg, status,2
  6395 ;; Tracked objects:
  6396 ;;		On entry : 0/0
  6397 ;;		On exit  : 0/0
  6398 ;;		Unchanged: 0/0
  6399 ;; Data sizes:     COMMON   BANK0   BANK1   BANK3   BANK2
  6400 ;;      Params:         0       0       0       0       0
  6401 ;;      Locals:         0       0       0       0       0
  6402 ;;      Temps:          0       0       0       0       0
  6403 ;;      Totals:         0       0       0       0       0
  6404 ;;Total ram usage:        0 bytes
  6405 ;; Hardware stack levels used:    1
  6406 ;; Hardware stack levels required when called:    1
  6407 ;; This function calls:
  6408 ;;		Nothing
  6409 ;; This function is called by:
  6410 ;;		_main
  6411 ;; This function uses a non-reentrant model
  6412 ;;
  6413                           psect	text1014
  6414                           	file	"D:\6_pic_project\00_Design_Flow_Car\Driver\Motor.c"
  6415                           	line	31
  6416                           	global	__size_of_Motor_CCP_PWM_Init
  6417  0014                     	__size_of_Motor_CCP_PWM_Init	equ	__end_of_Motor_CCP_PWM_Init-_Motor_CCP_PWM_Init
  6418                           	
  6419  0DC7                     _Motor_CCP_PWM_Init:	
  6420                           	opt	stack 6
  6421                           ; Regs used in _Motor_CCP_PWM_Init: [wreg+status,2]
  6422                           	line	33
  6423                           	
  6424  0DC7                     l13900:	
  6425                           ;Motor.c: 33: CCP1CON=0X0C;
  6426  0DC7  300C               	movlw	(0Ch)
  6427  0DC8  1283               	bcf	status, 5	;RP0=0, select bank0
  6428  0DC9  1303               	bcf	status, 6	;RP1=0, select bank0
  6429  0DCA  0097               	movwf	(23)	;volatile
  6430                           	line	34
  6431                           ;Motor.c: 34: CCPR1L=50;
  6432  0DCB  3032               	movlw	(032h)
  6433  0DCC  0095               	movwf	(21)	;volatile
  6434                           	line	35
  6435                           ;Motor.c: 35: PR2=100;
  6436  0DCD  3064               	movlw	(064h)
  6437  0DCE  1683               	bsf	status, 5	;RP0=1, select bank1
  6438  0DCF  1303               	bcf	status, 6	;RP1=0, select bank1
  6439  0DD0  0092               	movwf	(146)^080h	;volatile
  6440                           	line	38
  6441                           ;Motor.c: 38: CCP2CON = 0x0c;
  6442  0DD1  300C               	movlw	(0Ch)
  6443  0DD2  1283               	bcf	status, 5	;RP0=0, select bank0
  6444  0DD3  1303               	bcf	status, 6	;RP1=0, select bank0
  6445  0DD4  009D               	movwf	(29)	;volatile
  6446                           	line	39
  6447                           ;Motor.c: 39: CCPR2L = 50;
  6448  0DD5  3032               	movlw	(032h)
  6449  0DD6  009B               	movwf	(27)	;volatile
  6450                           	line	42
  6451                           	
  6452  0DD7                     l13902:	
  6453                           ;Motor.c: 42: T2CON=0;
  6454  0DD7  0192               	clrf	(18)	;volatile
  6455                           	line	43
  6456                           	
  6457  0DD8                     l13904:	
  6458                           ;Motor.c: 43: TMR2=0;
  6459  0DD8  0191               	clrf	(17)	;volatile
  6460                           	line	44
  6461                           	
  6462  0DD9                     l13906:	
  6463                           ;Motor.c: 44: TMR2ON=1;
  6464  0DD9  1512               	bsf	(146/8),(146)&7
  6465                           	line	45
  6466                           	
  6467  0DDA                     l3602:	
  6468  0DDA  0008               	return
  6469                           	opt stack 0
  6470                           GLOBAL	__end_of_Motor_CCP_PWM_Init
  6471  0DDB                     	__end_of_Motor_CCP_PWM_Init:
  6472 ;; =============== function _Motor_CCP_PWM_Init ends ============
  6473                           
  6474                           	signat	_Motor_CCP_PWM_Init,88
  6475                           	global	_Motor_GPIO_Init
  6476                           psect	text1015,local,class=CODE,delta=2
  6477                           global __ptext1015
  6478  0D5C                     __ptext1015:
  6479                           
  6480 ;; *************** function _Motor_GPIO_Init *****************
  6481 ;; Defined at:
  6482 ;;		line 21 in file "D:\6_pic_project\00_Design_Flow_Car\Driver\Motor.c"
  6483 ;; Parameters:    Size  Location     Type
  6484 ;;		None
  6485 ;; Auto vars:     Size  Location     Type
  6486 ;;		None
  6487 ;; Return value:  Size  Location     Type
  6488 ;;		None               void
  6489 ;; Registers used:
  6490 ;;		None
  6491 ;; Tracked objects:
  6492 ;;		On entry : 0/0
  6493 ;;		On exit  : 0/0
  6494 ;;		Unchanged: 0/0
  6495 ;; Data sizes:     COMMON   BANK0   BANK1   BANK3   BANK2
  6496 ;;      Params:         0       0       0       0       0
  6497 ;;      Locals:         0       0       0       0       0
  6498 ;;      Temps:          0       0       0       0       0
  6499 ;;      Totals:         0       0       0       0       0
  6500 ;;Total ram usage:        0 bytes
  6501 ;; Hardware stack levels used:    1
  6502 ;; Hardware stack levels required when called:    1
  6503 ;; This function calls:
  6504 ;;		Nothing
  6505 ;; This function is called by:
  6506 ;;		_main
  6507 ;; This function uses a non-reentrant model
  6508 ;;
  6509                           psect	text1015
  6510                           	file	"D:\6_pic_project\00_Design_Flow_Car\Driver\Motor.c"
  6511                           	line	21
  6512                           	global	__size_of_Motor_GPIO_Init
  6513  0009                     	__size_of_Motor_GPIO_Init	equ	__end_of_Motor_GPIO_Init-_Motor_GPIO_Init
  6514                           	
  6515  0D5C                     _Motor_GPIO_Init:	
  6516                           	opt	stack 6
  6517                           ; Regs used in _Motor_GPIO_Init: []
  6518                           	line	22
  6519                           	
  6520  0D5C                     l13898:	
  6521                           ;Motor.c: 22: TRISB4=0;
  6522  0D5C  1683               	bsf	status, 5	;RP0=1, select bank1
  6523  0D5D  1303               	bcf	status, 6	;RP1=0, select bank1
  6524  0D5E  1206               	bcf	(1076/8)^080h,(1076)&7
  6525                           	line	23
  6526                           ;Motor.c: 23: TRISB5=0;
  6527  0D5F  1286               	bcf	(1077/8)^080h,(1077)&7
  6528                           	line	24
  6529                           ;Motor.c: 24: TRISB6=0;
  6530  0D60  1306               	bcf	(1078/8)^080h,(1078)&7
  6531                           	line	25
  6532                           ;Motor.c: 25: TRISB7=0;
  6533  0D61  1386               	bcf	(1079/8)^080h,(1079)&7
  6534                           	line	26
  6535                           ;Motor.c: 26: TRISC1=0;
  6536  0D62  1087               	bcf	(1081/8)^080h,(1081)&7
  6537                           	line	27
  6538                           ;Motor.c: 27: TRISC2=0;
  6539  0D63  1107               	bcf	(1082/8)^080h,(1082)&7
  6540                           	line	28
  6541                           	
  6542  0D64                     l3599:	
  6543  0D64  0008               	return
  6544                           	opt stack 0
  6545                           GLOBAL	__end_of_Motor_GPIO_Init
  6546  0D65                     	__end_of_Motor_GPIO_Init:
  6547 ;; =============== function _Motor_GPIO_Init ends ============
  6548                           
  6549                           	signat	_Motor_GPIO_Init,88
  6550                           	global	_LCD1602_GPIO_Init
  6551                           psect	text1016,local,class=CODE,delta=2
  6552                           global __ptext1016
  6553  0D53                     __ptext1016:
  6554                           
  6555 ;; *************** function _LCD1602_GPIO_Init *****************
  6556 ;; Defined at:
  6557 ;;		line 180 in file "D:\6_pic_project\00_Design_Flow_Car\Driver\LCD1602.c"
  6558 ;; Parameters:    Size  Location     Type
  6559 ;;		None
  6560 ;; Auto vars:     Size  Location     Type
  6561 ;;		None
  6562 ;; Return value:  Size  Location     Type
  6563 ;;		None               void
  6564 ;; Registers used:
  6565 ;;		wreg, status,2
  6566 ;; Tracked objects:
  6567 ;;		On entry : 0/0
  6568 ;;		On exit  : 0/0
  6569 ;;		Unchanged: 0/0
  6570 ;; Data sizes:     COMMON   BANK0   BANK1   BANK3   BANK2
  6571 ;;      Params:         0       0       0       0       0
  6572 ;;      Locals:         0       0       0       0       0
  6573 ;;      Temps:          0       0       0       0       0
  6574 ;;      Totals:         0       0       0       0       0
  6575 ;;Total ram usage:        0 bytes
  6576 ;; Hardware stack levels used:    1
  6577 ;; Hardware stack levels required when called:    1
  6578 ;; This function calls:
  6579 ;;		Nothing
  6580 ;; This function is called by:
  6581 ;;		_main
  6582 ;; This function uses a non-reentrant model
  6583 ;;
  6584                           psect	text1016
  6585                           	file	"D:\6_pic_project\00_Design_Flow_Car\Driver\LCD1602.c"
  6586                           	line	180
  6587                           	global	__size_of_LCD1602_GPIO_Init
  6588  0009                     	__size_of_LCD1602_GPIO_Init	equ	__end_of_LCD1602_GPIO_Init-_LCD1602_GPIO_Init
  6589                           	
  6590  0D53                     _LCD1602_GPIO_Init:	
  6591                           	opt	stack 6
  6592                           ; Regs used in _LCD1602_GPIO_Init: [wreg+status,2]
  6593                           	line	181
  6594                           	
  6595  0D53                     l13892:	
  6596                           ;LCD1602.c: 181: TRISA2=0;
  6597  0D53  1683               	bsf	status, 5	;RP0=1, select bank1
  6598  0D54  1303               	bcf	status, 6	;RP1=0, select bank1
  6599  0D55  1105               	bcf	(1066/8)^080h,(1066)&7
  6600                           	line	182
  6601                           ;LCD1602.c: 182: TRISA5=0;
  6602  0D56  1285               	bcf	(1069/8)^080h,(1069)&7
  6603                           	line	183
  6604                           ;LCD1602.c: 183: TRISA3=0;
  6605  0D57  1185               	bcf	(1067/8)^080h,(1067)&7
  6606                           	line	184
  6607                           	
  6608  0D58                     l13894:	
  6609                           ;LCD1602.c: 184: TRISD=0x00;
  6610  0D58  0188               	clrf	(136)^080h	;volatile
  6611                           	line	185
  6612                           	
  6613  0D59                     l13896:	
  6614                           ;LCD1602.c: 185: ADCON1=0x07;
  6615  0D59  3007               	movlw	(07h)
  6616  0D5A  009F               	movwf	(159)^080h	;volatile
  6617                           	line	186
  6618                           	
  6619  0D5B                     l739:	
  6620  0D5B  0008               	return
  6621                           	opt stack 0
  6622                           GLOBAL	__end_of_LCD1602_GPIO_Init
  6623  0D5C                     	__end_of_LCD1602_GPIO_Init:
  6624 ;; =============== function _LCD1602_GPIO_Init ends ============
  6625                           
  6626                           	signat	_LCD1602_GPIO_Init,88
  6627                           	global	_LCD1602_Delay
  6628                           psect	text1017,local,class=CODE,delta=2
  6629                           global __ptext1017
  6630  0E07                     __ptext1017:
  6631                           
  6632 ;; *************** function _LCD1602_Delay *****************
  6633 ;; Defined at:
  6634 ;;		line 11 in file "D:\6_pic_project\00_Design_Flow_Car\Driver\LCD1602.c"
  6635 ;; Parameters:    Size  Location     Type
  6636 ;;		None
  6637 ;; Auto vars:     Size  Location     Type
  6638 ;;  i               2    0[BANK0 ] unsigned int 
  6639 ;; Return value:  Size  Location     Type
  6640 ;;		None               void
  6641 ;; Registers used:
  6642 ;;		wreg, status,2, status,0
  6643 ;; Tracked objects:
  6644 ;;		On entry : 0/0
  6645 ;;		On exit  : 0/0
  6646 ;;		Unchanged: 0/0
  6647 ;; Data sizes:     COMMON   BANK0   BANK1   BANK3   BANK2
  6648 ;;      Params:         0       0       0       0       0
  6649 ;;      Locals:         0       2       0       0       0
  6650 ;;      Temps:          0       0       0       0       0
  6651 ;;      Totals:         0       2       0       0       0
  6652 ;;Total ram usage:        2 bytes
  6653 ;; Hardware stack levels used:    1
  6654 ;; Hardware stack levels required when called:    1
  6655 ;; This function calls:
  6656 ;;		Nothing
  6657 ;; This function is called by:
  6658 ;;		_LCD1602_WriteCommand
  6659 ;;		_LCD1602_WriteData
  6660 ;;		_LCD1602_Init
  6661 ;; This function uses a non-reentrant model
  6662 ;;
  6663                           psect	text1017
  6664                           	file	"D:\6_pic_project\00_Design_Flow_Car\Driver\LCD1602.c"
  6665                           	line	11
  6666                           	global	__size_of_LCD1602_Delay
  6667  001C                     	__size_of_LCD1602_Delay	equ	__end_of_LCD1602_Delay-_LCD1602_Delay
  6668                           	
  6669  0E07                     _LCD1602_Delay:	
  6670                           	opt	stack 4
  6671                           ; Regs used in _LCD1602_Delay: [wreg+status,2+status,0]
  6672                           	line	13
  6673                           	
  6674  0E07                     l13832:	
  6675                           ;LCD1602.c: 12: unsigned int i;
  6676                           ;LCD1602.c: 13: for(i=999;i>0;i--);
  6677  0E07  30E7               	movlw	low(03E7h)
  6678  0E08  1283               	bcf	status, 5	;RP0=0, select bank0
  6679  0E09  1303               	bcf	status, 6	;RP1=0, select bank0
  6680  0E0A  00A0               	movwf	(LCD1602_Delay@i)
  6681  0E0B  3003               	movlw	high(03E7h)
  6682  0E0C  00A1               	movwf	((LCD1602_Delay@i))+1
  6683                           	
  6684  0E0D                     l13834:	
  6685  0E0D  0821               	movf	((LCD1602_Delay@i+1)),w
  6686  0E0E  0420               	iorwf	((LCD1602_Delay@i)),w
  6687  0E0F  1D03               	skipz
  6688  0E10  2E12               	goto	u5101
  6689  0E11  2E13               	goto	u5100
  6690  0E12                     u5101:
  6691  0E12  2E15               	goto	l13838
  6692  0E13                     u5100:
  6693  0E13  2E22               	goto	l687
  6694                           	
  6695  0E14                     l13836:	
  6696  0E14  2E22               	goto	l687
  6697                           	
  6698  0E15                     l685:	
  6699                           	
  6700  0E15                     l13838:	
  6701  0E15  3001               	movlw	low(01h)
  6702  0E16  02A0               	subwf	(LCD1602_Delay@i),f
  6703  0E17  3000               	movlw	high(01h)
  6704  0E18  1C03               	skipc
  6705  0E19  03A1               	decf	(LCD1602_Delay@i+1),f
  6706  0E1A  02A1               	subwf	(LCD1602_Delay@i+1),f
  6707                           	
  6708  0E1B                     l13840:	
  6709  0E1B  0821               	movf	((LCD1602_Delay@i+1)),w
  6710  0E1C  0420               	iorwf	((LCD1602_Delay@i)),w
  6711  0E1D  1D03               	skipz
  6712  0E1E  2E20               	goto	u5111
  6713  0E1F  2E21               	goto	u5110
  6714  0E20                     u5111:
  6715  0E20  2E15               	goto	l13838
  6716  0E21                     u5110:
  6717  0E21  2E22               	goto	l687
  6718                           	
  6719  0E22                     l686:	
  6720                           	line	14
  6721                           	
  6722  0E22                     l687:	
  6723  0E22  0008               	return
  6724                           	opt stack 0
  6725                           GLOBAL	__end_of_LCD1602_Delay
  6726  0E23                     	__end_of_LCD1602_Delay:
  6727 ;; =============== function _LCD1602_Delay ends ============
  6728                           
  6729                           	signat	_LCD1602_Delay,88
  6730                           	global	_Service
  6731                           psect	text1018,local,class=CODE,delta=2
  6732                           global __ptext1018
  6733  0EC9                     __ptext1018:
  6734                           
  6735 ;; *************** function _Service *****************
  6736 ;; Defined at:
  6737 ;;		line 76 in file "D:\6_pic_project\00_Design_Flow_Car\User\Car_demo\Car_demo.c"
  6738 ;; Parameters:    Size  Location     Type
  6739 ;;		None
  6740 ;; Auto vars:     Size  Location     Type
  6741 ;;		None
  6742 ;; Return value:  Size  Location     Type
  6743 ;;		None               void
  6744 ;; Registers used:
  6745 ;;		wreg
  6746 ;; Tracked objects:
  6747 ;;		On entry : 0/0
  6748 ;;		On exit  : 0/0
  6749 ;;		Unchanged: 0/0
  6750 ;; Data sizes:     COMMON   BANK0   BANK1   BANK3   BANK2
  6751 ;;      Params:         0       0       0       0       0
  6752 ;;      Locals:         0       0       0       0       0
  6753 ;;      Temps:          5       0       0       0       0
  6754 ;;      Totals:         5       0       0       0       0
  6755 ;;Total ram usage:        5 bytes
  6756 ;; Hardware stack levels used:    1
  6757 ;; This function calls:
  6758 ;;		Nothing
  6759 ;; This function is called by:
  6760 ;;		Interrupt level 1
  6761 ;; This function uses a non-reentrant model
  6762 ;;
  6763                           psect	text1018
  6764                           	file	"D:\6_pic_project\00_Design_Flow_Car\User\Car_demo\Car_demo.c"
  6765                           	line	76
  6766                           	global	__size_of_Service
  6767  0037                     	__size_of_Service	equ	__end_of_Service-_Service
  6768                           	
  6769  0EC9                     _Service:	
  6770                           	opt	stack 4
  6771                           ; Regs used in _Service: [wreg]
  6772                           psect	intentry,class=CODE,delta=2
  6773                           global __pintentry
  6774  0004                     __pintentry:
  6775                           global interrupt_function
  6776  0004                     interrupt_function:
  6777                           	global saved_w
  6778  007E                     	saved_w	set	btemp+0
  6779  0004  00FE               	movwf	saved_w
  6780  0005  0E03               	swapf	status,w
  6781  0006  00F1               	movwf	(??_Service+1)
  6782  0007  0804               	movf	fsr0,w
  6783  0008  00F2               	movwf	(??_Service+2)
  6784  0009  080A               	movf	pclath,w
  6785  000A  00F3               	movwf	(??_Service+3)
  6786  000B  1283               	bcf	status, 5	;RP0=0, select bank0
  6787  000C  1303               	bcf	status, 6	;RP1=0, select bank0
  6788  000D  087F               	movf	btemp+1,w
  6789  000E  00F4               	movwf	(??_Service+4)
  6790  000F  120A  158A  2EC9   	ljmp	_Service
  6791                           psect	text1018
  6792                           	line	78
  6793                           	
  6794  0EC9                     i1l13218:	
  6795                           ;Car_demo.c: 78: if(RCIF==1)
  6796  0EC9  1E8C               	btfss	(101/8),(101)&7
  6797  0ECA  2ECC               	goto	u392_21
  6798  0ECB  2ECD               	goto	u392_20
  6799  0ECC                     u392_21:
  6800  0ECC  2ED3               	goto	i1l9950
  6801  0ECD                     u392_20:
  6802                           	line	80
  6803                           	
  6804  0ECD                     i1l13220:	
  6805                           ;Car_demo.c: 82: if(bluetooth == '#'){}
  6806  0ECD  081A               	movf	(26),w	;volatile
  6807  0ECE  00F0               	movwf	(??_Service+0)+0
  6808  0ECF  0870               	movf	(??_Service+0)+0,w
  6809  0ED0  00F5               	movwf	(_bluetooth)
  6810                           	line	82
  6811                           	
  6812  0ED1                     i1l9951:	
  6813                           	line	83
  6814                           ;Car_demo.c: 83: RCIF=0;
  6815  0ED1  128C               	bcf	(101/8),(101)&7
  6816                           	line	84
  6817                           ;Car_demo.c: 84: }
  6818  0ED2  2EF4               	goto	i1l9952
  6819                           	line	85
  6820                           	
  6821  0ED3                     i1l9950:	
  6822                           ;Car_demo.c: 85: else if(T0IF==1)
  6823  0ED3  1D0B               	btfss	(90/8),(90)&7
  6824  0ED4  2ED6               	goto	u393_21
  6825  0ED5  2ED7               	goto	u393_20
  6826  0ED6                     u393_21:
  6827  0ED6  2EDB               	goto	i1l9953
  6828  0ED7                     u393_20:
  6829                           	line	87
  6830                           	
  6831  0ED7                     i1l13222:	
  6832                           ;Car_demo.c: 86: {
  6833                           ;Car_demo.c: 87: TMR0=60;
  6834  0ED7  303C               	movlw	(03Ch)
  6835  0ED8  0081               	movwf	(1)	;volatile
  6836                           	line	88
  6837                           	
  6838  0ED9                     i1l13224:	
  6839                           ;Car_demo.c: 88: T0IF=0;
  6840  0ED9  110B               	bcf	(90/8),(90)&7
  6841                           	line	89
  6842                           ;Car_demo.c: 89: }
  6843  0EDA  2EF4               	goto	i1l9952
  6844                           	line	90
  6845                           	
  6846  0EDB                     i1l9953:	
  6847                           ;Car_demo.c: 90: else if(INTF==1)
  6848  0EDB  1C8B               	btfss	(89/8),(89)&7
  6849  0EDC  2EDE               	goto	u394_21
  6850  0EDD  2EDF               	goto	u394_20
  6851  0EDE                     u394_21:
  6852  0EDE  2EEC               	goto	i1l9955
  6853  0EDF                     u394_20:
  6854                           	line	92
  6855                           	
  6856  0EDF                     i1l13226:	
  6857                           ;Car_demo.c: 91: {
  6858                           ;Car_demo.c: 92: if(Start_Find_flag)
  6859  0EDF  086C               	movf	(_Start_Find_flag),w
  6860  0EE0  1D03               	skipz
  6861  0EE1  2EE3               	goto	u395_20
  6862  0EE2  2EEA               	goto	i1l13230
  6863  0EE3                     u395_20:
  6864                           	line	94
  6865                           	
  6866  0EE3                     i1l13228:	
  6867                           ;Car_demo.c: 93: {
  6868                           ;Car_demo.c: 94: Encoder_Counter++;
  6869  0EE3  3001               	movlw	low(01h)
  6870  0EE4  07E3               	addwf	(_Encoder_Counter),f
  6871  0EE5  1803               	skipnc
  6872  0EE6  0AE4               	incf	(_Encoder_Counter+1),f
  6873  0EE7  3000               	movlw	high(01h)
  6874  0EE8  07E4               	addwf	(_Encoder_Counter+1),f
  6875  0EE9  2EEA               	goto	i1l13230
  6876                           	line	95
  6877                           	
  6878  0EEA                     i1l9956:	
  6879                           	line	96
  6880                           	
  6881  0EEA                     i1l13230:	
  6882                           ;Car_demo.c: 95: }
  6883                           ;Car_demo.c: 96: INTF=0;
  6884  0EEA  108B               	bcf	(89/8),(89)&7
  6885                           	line	97
  6886                           ;Car_demo.c: 97: }
  6887  0EEB  2EF4               	goto	i1l9952
  6888                           	line	98
  6889                           	
  6890  0EEC                     i1l9955:	
  6891                           ;Car_demo.c: 98: else if(RBIF == 1)
  6892  0EEC  1C0B               	btfss	(88/8),(88)&7
  6893  0EED  2EEF               	goto	u396_21
  6894  0EEE  2EF0               	goto	u396_20
  6895  0EEF                     u396_21:
  6896  0EEF  2EF4               	goto	i1l9952
  6897  0EF0                     u396_20:
  6898                           	line	100
  6899                           	
  6900  0EF0                     i1l13232:	
  6901                           ;Car_demo.c: 99: {
  6902                           ;Car_demo.c: 100: RBIF=0;
  6903  0EF0  100B               	bcf	(88/8),(88)&7
  6904  0EF1  2EF4               	goto	i1l9952
  6905                           	line	101
  6906                           	
  6907  0EF2                     i1l9958:	
  6908  0EF2  2EF4               	goto	i1l9952
  6909                           	line	102
  6910                           	
  6911  0EF3                     i1l9957:	
  6912  0EF3  2EF4               	goto	i1l9952
  6913                           	
  6914  0EF4                     i1l9954:	
  6915                           	
  6916  0EF4                     i1l9952:	
  6917                           ;Car_demo.c: 101: }
  6918                           ;Car_demo.c: 102: TMR1IF=0;
  6919  0EF4  100C               	bcf	(96/8),(96)&7
  6920                           	line	103
  6921                           	
  6922  0EF5                     i1l9959:	
  6923  0EF5  0874               	movf	(??_Service+4),w
  6924  0EF6  00FF               	movwf	btemp+1
  6925  0EF7  0873               	movf	(??_Service+3),w
  6926  0EF8  008A               	movwf	pclath
  6927  0EF9  0872               	movf	(??_Service+2),w
  6928  0EFA  0084               	movwf	fsr0
  6929  0EFB  0E71               	swapf	(??_Service+1)^0FFFFFF80h,w
  6930  0EFC  0083               	movwf	status
  6931  0EFD  0EFE               	swapf	saved_w,f
  6932  0EFE  0E7E               	swapf	saved_w,w
  6933  0EFF  0009               	retfie
  6934                           	opt stack 0
  6935                           GLOBAL	__end_of_Service
  6936  0F00                     	__end_of_Service:
  6937 ;; =============== function _Service ends ============
  6938                           
  6939                           	signat	_Service,88
  6940                           psect	text1019,local,class=CODE,delta=2
  6941                           global __ptext1019
  6942  0000                     __ptext1019:
  6943                           	global	btemp
  6944  007E                     	btemp set 07Eh
  6945                           
  6946                           	DABS	1,126,2	;btemp
  6947                           	global	wtemp0
  6948  007E                     	wtemp0 set btemp


HI-TECH Software PICC Macro Assembler V9.82 build 9453 
Symbol Table                                                                                   Wed Jun 19 19:39:12 2024

      __end_of_Usart_GPIO_Init 0D4B                              _m 00CC                              _x 0077  
                            _y 0078                              pc 0002                             _RD 0C60  
                           _Kd 00AA                             _WR 0C61                             _Kp 00DD  
                           _yz 00A0                             fsr 0004            ___wmul@multiplicand 0022  
                 ___ftadd@exp1 0058                   ___ftadd@exp2 0057                   ___ftadd@sign 0056  
                          l710 0F82                            l711 0F82                            l705 0F4A  
                          l706 0F57                            l707 0F56                            l708 0F73  
                          l709 0F5E                            l690 0DA2                            l739 0D5B  
                          l685 0E15                            l693 0DB3                            l686 0E22  
                          l687 0E22                            l696 0E49                            _GIE 005F  
                          _RA0 0028                            _RA1 0029                            _RA2 002A  
                          _RA3 002B                            _RC0 0038                            _RA4 002C  
                          _RA5 002D                            _RB4 0034                            _RC3 003B  
                          _RB5 0035                            _RE0 0048                            _RC4 003C  
                          _RB6 0036                            _RE1 0049                            _RC5 003D  
                          _RB7 0037                            _RE2 004A                            _PR2 0092  
                          _PWM 00AC                 _Bifurcate_Flag 00C6               _odomoter_counter 00C2  
                          _dis 00BA                            _mod 0076                            fsr0 0004  
                          indf 0000                           l3602 0DDA                           l3610 0F32  
                         l3611 0F3A                           l3612 0F3A                           l3608 0F16  
                         l3609 0F1E                           l3599 0D64                           l5686 0DF3  
                         l5687 0DF1                           l4984 0D6B                           l5688 0E06  
                         l4985 0D6B                           l5689 0E06                           l4986 0D72  
                         l4987 0D72                           l4996 0D4A                           l8460 0309  
                         l8453 0350                           l8461 0310                           l8470 0430  
                         l8462 0317                           l8454 02E8                           l4999 0D91  
                         l9167 0DEF                           l8455 0380                           l8463 031E  
                         l8464 0325                           l8456 02ED                           l8465 032C  
                         l8457 02F4                           l8466 0333                           l8458 02FB  
                         l8467 033A                           l8459 0302                           l7756 0D81  
                         l8468 0341                           l8469 0348                           STR_1 0825  
                         STR_2 081F                           STR_3 0818                           l9962 0774  
                         l9970 0766                           STR_4 0806                           l9971 0767  
                         l9963 075B                           l9972 0768                           l9964 075C  
                         l9980 00C9                           l9973 0769                           l9965 075D  
                         l9981 00D9                           l9974 076F                           l9966 075E  
                         l9982 0293                           l9990 01F8                           l9975 0794  
                         l9967 0794                           l9991 0189                           l9983 0167  
                         l9968 0764                           l9992 01B3                           l9984 00F5  
                         l9969 0765                           l9993 01B2                           l9985 0122  
                         l9994 01F7                           l9986 0121                           l9978 00A0  
                         l9995 0216                           l9987 0166                           l9979 00DA  
                         l9988 0292                           l9996 0208                           l9997 0291  
                         l9989 0217                           l9998 0290                           l9999 0237  
                         _T0IE 005D                           _T0IF 005A                           u5100 0E13  
                         u5101 0E12                           u5110 0E21                           u4310 06CB  
                         u5111 0E20                           u4311 06CA                           u4320 06D3  
                         u6000 0616                           u4321 06D2                           u4305 06BB  
                         u6001 0615                           u5210 0F0F                           u6010 0620  
                         u5211 0F0E                           u6011 061F                           u5220 0F2B  
                         u4340 06EF                           u4260 0678                           u5221 0F2A  
                         u4341 06EE                           u4261 0677                           u6021 0629  
                         u5230 0D71                           u4350 06F5                           u4270 068D  
                         u6022 0630                           u5215 0F0B                           u5231 0D70  
                         u4335 06E0                           u5400 0F90                           u4280 06A8  
                         u6200 00F1                           u5225 0F27                           u5305 0720  
                         u5401 0F8F                           u4281 06A7                           u6105 02A3  
                         u6201 00F0                           u4290 06AF                           u6050 0647  
                         u6210 00FB                           u5315 072A                           u4291 06AE  
                         u4275 0689                           u6051 0646                           u6035 0632  
                         u6115 02AD                           u6211 00FA                           _PEIE 005E  
                         u5420 0FAD                           u6060 0EA4                           u6300 0230  
                         u6220 0113                           u5325 0734                           u5421 0FAC  
                         u6045 063A                           u6061 0EA3                           u6125 02B7  
                         u6301 022F                           u6221 0112                           u6205 00ED  
                         _INTE 005C                           u5350 0E7A                           u6070 0F44  
                         u6310 023D                           u6230 016F                           _INTF 0059  
                         u5335 073E                           u5351 0E79                           u5415 0F9F  
                         u6071 0F43                           u6135 02C1                           u6311 023C  
                         u6231 016E                           _RBIE 005B                           u5440 0FCB  
                         u6080 0F50                           u6240 0174                           u6160 00A7  
                         _RBIF 0058                           u5345 0748                           u5441 0FCA  
                         u6081 0F4F                           u6145 02CB                           u6305 022C  
                         u6241 0173                           u6161 00A6                           u6090 0F81  
                         u6250 0185                           u6170 00C5                           u5435 0FBE  
                         u6091 0F80                           u6155 02D5                           u6251 0184  
                         u6171 00C4                           _RCIE 0465                           u5380 0E94  
                         u5460 0FDC                           u5700 045F                           u6260 018D  
                         u6180 00D2                           _RCIF 0065                           u5381 0E93  
                         u5365 0E81                           u5461 0FDB                           u5701 045E  
                         u6181 00D1                           u5470 0FE0                           u5390 0F89  
                         u5710 046C                           u6270 01A5                           u6190 00E0  
                         u5295 0716                           u5375 0E88                           u5471 0FDF  
                         u5455 0FD0                           u6271 01A4                           u6255 0181  
                         u6191 00DF                           u6175 00C1                           u5480 0FF1  
                         u5720 0472                           u6280 0203                           u5721 0471  
                         u6281 0202                           u5490 0FFE                           u5650 07A3  
                         u5810 04CE                           u5730 047C                           u6290 021F  
                         u5651 07A2                           u5811 04CD                           u5731 047B  
                         u6291 021E                           u5660 07EA                           u5820 04D6  
                         u5740 0485                           u5485 0FED                           u5661 07E9  
                         u5901 053B                           u5821 04D5                           u5805 04BC  
                         u5741 0484                           u5670 0E05                           u5910 0546  
                         u5902 0542                           u5750 048A                           u5671 0E04  
                         u5911 0545                           u5751 0489                           u5840 04E7  
                         u5760 049F                           u5680 044F                           u5920 058A  
                         u5841 04E6                           u5761 049E                           u5921 0589  
                         u5850 04EF                           u5690 0455                           u5930 05A3  
                         u5675 0E01                           u5851 04EE                           u5835 04D8  
                         u5691 0454                           u5931 05A2                           u5780 04B0  
                         u5940 05BB                           u5781 04AF                           u5870 0505  
                         u5790 04B8                           u5950 05CD                           u5871 0504  
                         u5791 04B7                           u5775 04A1                           u5880 050B  
                         u5960 05EF                           u5881 050A                           u5865 04F3  
                         u5961 05EE                           u5945 05B7                           u5890 0520  
                         u5891 051F                           u5971 05F8                           u5955 05C9  
                         u5972 05FF                           u5985 0601                           u5995 0609  
                         _PWM1 00AE                           _TMR0 0001                           _PWM2 00B0  
                         _TMR2 0011                           _TRMT 04C1                           _WREN 0C62  
                         _Turn 00B8                           _main 0015                   ___ftpack@arg 0020  
                 ___ftpack@exp 0023                           btemp 007E                           start 0012  
                 ___ftmul@cntr 004A                   ___ftmul@sign 004B                   ___fttol@exp1 0035  
                 ___fttol@lval 0031     __end_of_Motor_CCP_PWM_Init 0DDB                __end_of_Service 0F00  
                        l10000 024B                          l10001 028F                          l10002 0294  
                        l10003 0295                          l10020 07B9                          l10004 0295  
                        l10013 07D6                          l10021 07D5                          l10022 07EB  
                        l10014 079D                          l10023 07EC                          l10015 07AA  
                        l10016 07C1                          l10017 07AC                          l10018 07EC  
                        l10019 07AD                          l11040 0F91                          l11041 0FFF  
                        l11050 0FDC                          l11042 0FA7                          l11051 0FE6  
                        l11043 0F9A                          l11052 0FFF                          l11044 0FAE  
                        l11045 0FC5                          l11046 0FAF                          l11038 0F99  
                        l11047 0FCC                          l11048 0FD8                          l11049 0FCD  
                        l14000 0763                          l14010 0773                          l14002 0769  
                        l10706 0E76                          l10810 061C                          l10707 0E80  
                        l10811 0631                          l14004 076E                          l14012 0774  
                        l10708 0E95                          l14020 0E87                          l10820 06CC  
                        l10812 0648                          l10804 0592                          l10709 0E9C  
                        l10821 06F1                          l10805 0664                          l14006 076F  
                        l14022 0E95                          l14014 0E71                          l14030 0F91  
                        l10822 06DD                          l10750 0468                          l10806 05AB  
                        l10823 06EA                          l10815 0682                          l10807 05EB  
                        l14008 0772                          l14024 0E9C                          l14016 0E76  
                        l14040 0FB3                          l14032 0F98                          l10824 06DE  
                        l10816 070A                          l14200 0DF0                          l10760 04A0  
                        l10752 0460                          l10808 0600                          l10825 06F0  
                        l10817 06CD                          l10753 0576                          l10809 0617  
                        l14018 0E7A                          l14050 0FE8                          l14042 0FBD  
                        l14034 0F9A                          l14026 0F83                          l10826 0701  
                        l10818 06B9                          l14202 0DF3                          l10762 04B9  
                        l10754 047D                          l14210 0455                          l10842 0EAD  
                        l10819 06BA                          l10771 04F0                          l10763 04BA  
                        l10843 0EC8                          l14052 0FFA                          l14044 0FCD  
                        l14036 0FA7                          l14028 0F89                          l13340 0678  
                        l10772 04F1                          l10764 04C8                          l14220 0472  
                        l10756 047C                          l14212 0460                          l14204 0431  
                        l14300 05EF                          l10773 04FF                          l10765 04BB  
                        l10757 0486                          l14054 0FFE                          l14046 0FD8  
                        l14038 0FAF                          l13350 069B                          l13342 0681  
                        l10774 04F2                          l10766 04CF                          l14230 048C  
                        l10758 048B                          l14222 047D                          l14214 0467  
                        l14206 044B                          l14310 061C                          l14302 0600  
                        l10775 0506                          l10759 04D0                          l10767 0507  
                        l14048 0FE0                          l13360 06B8                          l13352 06A2  
                        l13344 0682                          l14160 0D97                          l10776 051C  
                        l10768 0507                          l14240 04BB                          l14232 0492  
                        l14224 0481                          l14216 0468                          l14208 044F  
                        l14320 0648                          l14312 0620                          l14304 0608  
                        l14400 03A7                          l10777 0531                          l10769 04D7  
                        l13370 06DE                          l13362 06BA                          l13354 06A4  
                        l13346 0694                          l13338 0665                          l14162 0D98  
                        l14170 0DA6                          l10778 055A                          l14250 04E7  
                        l14242 04C8                          l14234 04A0                          l14226 0485  
                        l14218 046C                          l14322 0664                          l14314 0631  
                        l14306 0610                          l14330 0EC8                          l14402 0430  
                        l14410 003E                          l13380 070A                          l13372 06EA  
                        l13356 06A8                          l13364 06CD                          l13348 0695  
                        l14164 0D99                          l14180 0DB0                          l14172 0DA8  
                        l14260 0520                          l14252 04F2                          l14236 04AA  
                        l14244 04D0                          l14228 048A                          l14316 0639  
                        l14308 0617                          l14324 0E9D                          l14340 0E37  
                        l14332 0E23                          l14500 0203                          l14420 0068  
                        l14412 004F                          l14404 0015                          l13366 06D3  
                        l13374 06F1                          l13358 06AF                          l14166 0D9A  
                        l14158 0D95                          l14174 0DA9                          l14190 07B4  
                        l14182 0798                          l14270 055A                          l14262 0531  
                        l14254 04FF                          l14246 04D7                          l14238 04B0  
                        l14318 0641                          l14326 0EA4                          l14342 0E3D  
                        l14334 0E26                          l14350 0F4A                          l14510 021F  
                        l14502 0204                          l14430 00A7                          l14422 0073  
                        l14414 0054                          l14406 0023                          l13376 06F5  
                        l13368 06DC                          l14168 0D9F                          l14176 0DAA  
                        l14192 07B9                          l14184 079D                          l14272 0576  
                        l14264 0542                          l14256 050B                          l14248 04E1  
                        l14280 0592                          l14328 0EAD                          l14344 0E43  
                        l14336 0E2B                          l14360 0F73                          l14352 0F50  
                        l14520 0258                          l14512 0230                          l14504 0206  
                        l14440 00D3                          l14432 00B4                          l14424 0079  
                        l14416 005E                          l14408 002D                          l13378 0701  
                        l14178 0DAB                          l14194 07C0                          l14186 07A3  
                        l14266 0546                          l14258 051C                          l14290 05D9  
                        l14282 05A3                          l14274 0577                          l14338 0E31  
                        l14354 0F57                          l14346 0F3E                          l14370 02FB  
                        l14362 0298                          l14522 0262                          l14514 0237  
                        l14506 0208                          l14450 00F5                          l14442 00D5  
                        l14434 00C5                          l14426 009A                          l14418 0063  
                        l13900 0DC7                          l14188 07AD                          l14196 07C1  
                        l14268 0556                          l14292 05DA                          l14284 05AA  
                        l14276 058A                          l14356 0F5E                          l14348 0F44  
                        l14380 031E                          l14372 0302                          l14364 02E8  
                        l14524 026B                          l14516 023D                          l14508 0217  
                        l14460 0118                          l14452 00FB                          l14436 00C9  
                        l14444 00DA                          l14428 00A0                          l13902 0DD7  
                        l13910 0F0F                          l14198 07D6                          l14294 05E0  
                        l14286 05AB                          l14278 0591                          l14358 0F6C  
                        l14390 0341                          l14382 0325                          l14374 0309  
                        l14366 02ED                          l14518 024B                          l14454 0108  
                        l14462 0122                          l14446 00E0                          l14470 0167  
                        l14438 00D2                          l13840 0E1B                          l13832 0E07  
                        l13904 0DD8                          l13920 0F2F                          l13912 0F13  
                        l14296 05E6                          l14288 05D8                          l14392 0348  
                        l14384 032C                          l14376 0310                          l14368 02F4  
                        l14480 018D                          l14472 016F                          l14464 012F  
                        l14456 0113                          l14448 00F1                          l13834 0E0D  
                        l13906 0DD9                          l13922 0F36                          l13914 0F1A  
                        l14298 05EB                          l14394 034F                          l14386 0333  
                        l14378 0317                          l14482 019A                          l14490 01B3  
                        l14474 0174                          l14466 0139                          l14458 0116  
                        l13836 0E14                          l13916 0F1E                          l13908 0F00  
                        l13924 0D68                          l13940 0D8F                          l14388 033A  
                        l14396 0350                          l14492 01C0                          l14484 01A5  
                        l14476 0185                          l14468 0142                          l13838 0E15  
                        l13918 0F2B                          l13934 0D46                          l13942 0D90  
                        l13950 0D7C                          l14398 0380                          l14494 01CA  
                        l14486 01A7                          l14478 0189                          l13936 0D82  
                        l13944 0D73                          l13960 0DEA                          l13952 0DDB  
                        l14496 01D3                          l14488 01A9                          l13938 0D8E  
                        l13946 0D79                          l13962 0DEB                          l13954 0DE4  
                        l14498 01F8                          l13892 0D53                          l13948 0D7B  
                        l13964 0DEC                          l13956 0DE6                          l13894 0D58  
                        l13966 0DED                          l13958 0DE7                          l13896 0D59  
                        l13968 0DEE                          l13898 0D5C                          l13996 070B  
                        l13998 075E                          ?_main 0070              ??_Motor_GPIO_Init 0020  
                        _EEADR 010D                __end_of___ftadd 0577                          _CARRY 0018  
              __end_of___ftmul 0665                          _T1CON 0010                __end_of___fttol 070B  
                        _T2CON 0012              _LCD1602_GPIO_Init 0D53                          _RCREG 001A  
                        _RCSTA 0018                          _TMR1H 000F                          _TMR1L 000E  
                        _SPBRG 0099                          _PORTB 0006                          _PORTD 0008  
                        _TRISB 0086                          _TRISD 0088                          _TXREG 0019  
                        _TXSTA 0098       __size_of_Motor_Speed_Set 003B             ?_LCD1602_GPIO_Init 0070  
                        _nRBPU 040F                          _Speed 00B2   __end_of_LCD1602_WriteCommand 0DA3  
                ___awtoft@sign 003B                          _table 00CD                  ___ftpack@sign 0024  
                        _putch 0D65                 __pbitbssCOMMON 03C8                          pclath 000A  
        __size_of_LCD1602_Init 0027            ??_LCD1602_GPIO_Init 0020          Motor_Speed_Set@Speed1 0020  
        Motor_Speed_Set@Speed2 0022                          status 0003                          wtemp0 007E  
             __end_of_Delay_ms 0E07           __end_of_Encoder_Init 0D82                   __end_of_main 0298  
             ?_Usart_GPIO_Init 0070            _LCD1602_WriteString 0F3B                    _Circle_Mode 0067  
    __end_of_LCD1602_GPIO_Init 0D5C                         ??_main 00E0                  ___fttol@sign1 0030  
                 _LCD1602_Init 0E23               __end_of_Start_PD 0795                         _ADCON1 009F  
               _Timer0_Counter 00B6                         _EEDATA 010C                         _CCPR1L 0015  
                       _CCPR2L 001B                         _EECON1 018C                         _EECON2 018D  
             __end_of___awtoft 0EC9                         ?_putch 0070               __end_of___ftpack 1000  
         ?_LCD1602_WriteString 0023                         i1l9950 0ED3                         i1l9951 0ED1  
                       i1l9952 0EF4                         i1l9953 0EDB                         i1l9954 0EF4  
                       i1l9955 0EEC                         i1l9956 0EEA                         i1l9957 0EF3  
                       i1l9958 0EF2                         i1l9959 0EF5                         u392_20 0ECD  
                       u392_21 0ECC                         u393_20 0ED7                         u393_21 0ED6  
                       u394_20 0EDF                         u394_21 0EDE                         u395_20 0EE3  
                       u396_20 0EF0                         u396_21 0EEF                         _TMR1IE 0460  
                       _TMR1IF 0060                         _TMR2IE 0461                         _TMR2IF 0061  
                       _TMR1ON 0080                         _TMR2ON 0092                         _TRISA0 0428  
                       _TRISA1 0429                         _TRISB0 0430                         _TRISA2 042A  
                       _TRISB1 0431                         _TRISA3 042B                         _TRISC0 0438  
                       _TRISA4 042C                         _TRISC1 0439                         _TRISB3 0433  
                       _TRISA5 042D                         _TRISC2 043A                         _TRISB4 0434  
                       _TRISC3 043B                         _TRISB5 0435                         _TRISE0 0448  
                       _TRISC4 043C                         _TRISB6 0436                         _TRISE1 0449  
                       _TRISC5 043D                         _TRISB7 0437                         _TRISE2 044A  
                       _TRISC6 043E                         _TRISC7 043F                         _KeyNum 00C7  
             __end_of_csb_init 0DF0          LCD1602_WriteData@Data 0022                     _Motor_Flag 00C8  
                    ??_Service 0070                         ___wmul 0E71                      ??___ftadd 0052  
                    ??___ftmul 0042                      ??___fttol 002C                     _Speed_left 006A  
                   _Trace_Byte 006E                         _printf 0795                         clrloop 0D4C  
        ___ftmul@f3_as_product 0047             __size_of_Trace_PID 0199         __size_of_LCD1602_Delay 001C  
                       saved_w 007E          ??_LCD1602_WriteString 0025              ??_Motor_Speed_Set 0024  
                   _Usart_Init 0D82                     ___ftadd@f1 004C                     ___ftadd@f2 004F  
                   ___awtoft@c 0036                     ___ftmul@f1 003C                     ___ftmul@f2 003F  
                   ___fttol@f1 0028                 __pcstackCOMMON 0070                   __pidataBANK1 07ED  
         _LCD1602_WriteCommand 0D92                  __end_of_putch 0D73     __size_of_LCD1602_GPIO_Init 0009  
            _LCD1602_WriteData 0DA3             ?_LCD1602_WriteData 0070                      ?_Delay_ms 0020  
          ??_LCD1602_WriteData 0022                        ??_putch 0020                     __pbssBANK0 0063  
                   __pbssBANK1 00A0          __size_of_Encoder_Init 000F                 _err_difference 00BE  
                _LCD1602_Delay 0E07              __end_of_Trace_PID 0431                _Motor_GPIO_Init 0D5C  
                   __pmaintext 0015          ?_LCD1602_WriteCommand 0070                        ?___wmul 0020  
    __end_of_LCD1602_WriteData 0DB4                      ?_Start_PD 0020                     __pintentry 0004  
                      _CCP1CON 0017                        _CCP2CON 001D                     __ptext1000 0DF0  
                   __ptext1001 0795                     __ptext1010 0D82                     __ptext1002 0DA3  
                   __ptext1011 0D46                     __ptext1003 0D92                     __ptext1012 0D65  
                   __ptext1004 0665                     __ptext1013 0F00                     __ptext1005 0F83  
                   __ptext1014 0DC7                     __ptext1006 0E71                     __ptext1015 0D5C  
                   __ptext1007 070B                     __ptext1016 0D53                     __ptext1008 0DDB  
                   __ptext1017 0E07                     __ptext1009 0D73                     __ptext1018 0EC9  
                   __ptext1019 0000                      ?___awtoft 0036                      ?___ftpack 0020  
                      ?_printf 0021                        i1l13220 0ECD                        i1l13230 0EEA  
                      i1l13222 0ED7                        i1l13232 0EF0                        i1l13224 0ED9  
                      i1l13226 0EDF                        i1l13218 0EC9                        i1l13228 0EE3  
                   ??_Delay_ms 0022                   _Encoder_Init 0D73                      ?_csb_init 0070  
           _Motor_CCP_PWM_Init 0DC7                        _IO_flag 0068                 _Speed_measure1 00CA  
               _Speed_measure2 00CB                    ?_Usart_Init 0070                 ?_LCD1602_Delay 0070  
          ?_Motor_CCP_PWM_Init 0070                        _Key_Val 0069                        _Service 0EC9  
                      ___ftadd 0431                __size_of___wmul 002C                     ??_Start_PD 0022  
                      ___ftmul 0577                        ___fttol 0665                     ??___awtoft 0039  
                   ??___ftpack 0025           ??_Motor_CCP_PWM_Init 0020                __size_of_printf 0058  
                  _Speed_right 006B                     ??_csb_init 0020           end_of_initialization 0E6D  
      __end_of_Motor_GPIO_Init 0D65                      _RBIF_FLAG 03C8                      Delay_ms@x 0020  
                      init_ram 0DB8         ??_LCD1602_WriteCommand 0022                        printf@c 0027  
                      printf@f 0026                        putch@ch 0020     __size_of_LCD1602_WriteData 0011  
          __size_of_Usart_Init 0010                _Motor_Speed_Set 0F00       __size_of_Usart_GPIO_Init 0005  
                 _Counter_temp 00A8                ??_LCD1602_Delay 0020                    ___ftmul@exp 0046  
  LCD1602_WriteCommand@Command 0022                 __end_of___wmul 0E9D             Start_PD@Trace_Mode 002A  
               __end_of_printf 07ED    __end_of_LCD1602_WriteString 0F83            start_initialization 0E4A  
            __size_of_Delay_ms 0017               ?_Motor_GPIO_Init 0070                _Start_Find_flag 006C  
                    _Speed_Set 00B4                      _Trace_PID 0298                       ??___wmul 0024  
      __end_of_Motor_Speed_Set 0F3B                    __pdataBANK1 00CD                       ??_printf 0023  
            __size_of_Start_PD 008A              __size_of___awtoft 002C              __size_of___ftpack 007D  
                    _Stop_Flag 006D                    __pbssCOMMON 0075                  __pcstackBANK0 0020  
                __pcstackBANK1 00E0         LCD1602_WriteString@row 0027              ??_Usart_GPIO_Init 0020  
            __size_of_csb_init 0015                   ??_Usart_Init 0020                _Speed_Velcolity 00C9  
                     ?_Service 0070                     ?_Trace_PID 0059                       ?___ftadd 004C  
                    __ptext994 0298                      __ptext995 0F3B                      __ptext996 0E23  
                    __ptext997 0E9D                      __ptext998 0577                      __ptext999 0431  
                     ?___ftmul 003C                       ?___fttol 0028                      __pstrings 0800  
                    _bluetooth 0075             __end_of_Usart_Init 0D92                  ?_LCD1602_Init 0070  
               __size_of_putch 000E      LCD1602_WriteString@String 0024              interrupt_function 0004  
               ___wmul@product 0024      LCD1602_WriteString@column 0023               ?_Motor_Speed_Set 0020  
                  __stringbase 0805              ___wmul@multiplier 0020    __size_of_Motor_CCP_PWM_Init 0014  
               ??_LCD1602_Init 0023                     printf@flag 0024                       _Delay_ms 0DF0  
                    init_fetch 0DB4                    ??_Trace_PID 005B               __size_of_Service 0037  
__size_of_LCD1602_WriteCommand 0011                       _Start_PD 070B               __size_of___ftadd 0146  
             __size_of___ftmul 00EE               __size_of___fttol 00A6                       ___awtoft 0E9D  
                     ___ftpack 0F83                       _Turn_PWM 0065    LCD1602_WriteString@Location 0026  
               LCD1602_Delay@i 0020                       _csb_init 0DDB                       _distance 00BC  
                     _last_err 00C0          __end_of_LCD1602_Delay 0E23                  __size_of_main 0283  
                     clear_ram 0D4B                       _turn_err 00C4                _Usart_GPIO_Init 0D46  
                ?_Encoder_Init 0070                       intlevel1 0000   __size_of_LCD1602_WriteString 0048  
              _Encoder_Counter 0063           __end_of_LCD1602_Init 0E4A                      stringcode 0800  
     __size_of_Motor_GPIO_Init 0009                       printf@ap 0025                     _OPTION_REG 0081  
               ??_Encoder_Init 0020                       stringdir 0800                       stringtab 0800  
